	.text
	.syntax unified
	.eabi_attribute	67, "2.09"	@ Tag_conformance
	.cpu	cortex-m23
	.eabi_attribute	6, 16	@ Tag_CPU_arch
	.eabi_attribute	7, 77	@ Tag_CPU_arch_profile
	.eabi_attribute	8, 0	@ Tag_ARM_ISA_use
	.eabi_attribute	9, 3	@ Tag_THUMB_ISA_use
	.eabi_attribute	34, 0	@ Tag_CPU_unaligned_access
	.eabi_attribute	17, 1	@ Tag_ABI_PCS_GOT_use
	.eabi_attribute	20, 2	@ Tag_ABI_FP_denormal
	.eabi_attribute	21, 0	@ Tag_ABI_FP_exceptions
	.eabi_attribute	23, 1	@ Tag_ABI_FP_number_model
	.eabi_attribute	24, 1	@ Tag_ABI_align_needed
	.eabi_attribute	25, 1	@ Tag_ABI_align_preserved
	.eabi_attribute	38, 1	@ Tag_ABI_FP_16bit_format
	.eabi_attribute	18, 2	@ Tag_ABI_PCS_wchar_t
	.eabi_attribute	26, 1	@ Tag_ABI_enum_size
	.eabi_attribute	14, 0	@ Tag_ABI_PCS_R9_use
	.file	"bpwm.c"
	.file	1 "C:\\Keil_v5\\ARM\\ARMCLANG\\Bin\\..\\include" "stdint.h"
	.file	2 "E:\\ROBOCON2024\\01. Coding\\Nuvoton\\demo_robot_3wheel\\SampleCode\\NuCodeGen\\DemoCodeGen\\KEIL" "../../../../Library/Device/Nuvoton/M251/Include/sys_reg.h"
	.file	3 "E:\\ROBOCON2024\\01. Coding\\Nuvoton\\demo_robot_3wheel\\SampleCode\\NuCodeGen\\DemoCodeGen\\KEIL" "../../../../Library/Device/Nuvoton/M251/Include/bpwm_reg.h"
	.file	4 "E:\\ROBOCON2024\\01. Coding\\Nuvoton\\demo_robot_3wheel\\SampleCode\\NuCodeGen\\DemoCodeGen\\KEIL" "../../../../Library/Device/Nuvoton/M251/Include/clk_reg.h"
	.section	.text.BPWM_ConfigCaptureChannel,"ax",%progbits
	.hidden	BPWM_ConfigCaptureChannel       @ -- Begin function BPWM_ConfigCaptureChannel
	.globl	BPWM_ConfigCaptureChannel
	.p2align	2
	.type	BPWM_ConfigCaptureChannel,%function
	.code	16                              @ @BPWM_ConfigCaptureChannel
	.thumb_func
BPWM_ConfigCaptureChannel:
.Lfunc_begin0:
	.file	5 "E:\\ROBOCON2024\\01. Coding\\Nuvoton\\demo_robot_3wheel\\SampleCode\\NuCodeGen\\DemoCodeGen\\KEIL" "../../../../Library/StdDriver/src/bpwm.c"
	.loc	5 36 0                          @ ../../../../Library/StdDriver/src/bpwm.c:36:0
	.fnstart
	.cfi_sections .debug_frame
	.cfi_startproc
@ %bb.0:
	.save	{r7, lr}
	push	{r7, lr}
	.cfi_def_cfa_offset 8
	.cfi_offset lr, -4
	.cfi_offset r7, -8
	.pad	#40
	sub	sp, #40
	.cfi_def_cfa_offset 48
	str	r0, [sp, #36]
	str	r1, [sp, #32]
	str	r2, [sp, #28]
	str	r3, [sp, #24]
	add	r1, sp, #8
	movs	r0, #1
.Ltmp0:
	.loc	5 40 14 prologue_end            @ ../../../../Library/StdDriver/src/bpwm.c:40:14
	strh	r0, [r1]
	add	r2, sp, #4
	ldr	r1, __arm_cp.0_0
	.loc	5 40 33 is_stmt 0               @ ../../../../Library/StdDriver/src/bpwm.c:40:33
	strh	r1, [r2]
	mov	r2, sp
	movs	r1, #0
	.loc	5 41 13 is_stmt 1               @ ../../../../Library/StdDriver/src/bpwm.c:41:13
	strb	r1, [r2]
	lsls	r0, r0, #30
.Ltmp1:
	.loc	5 44 15                         @ ../../../../Library/StdDriver/src/bpwm.c:44:15
	ldr	r0, [r0]
	movw	r1, #65280
	.loc	5 44 20 is_stmt 0               @ ../../../../Library/StdDriver/src/bpwm.c:44:20
	ands	r0, r1
	movw	r1, #22528
	.loc	5 44 40                         @ ../../../../Library/StdDriver/src/bpwm.c:44:40
	cmp	r0, r1
	beq	.LBB0_3
	b	.LBB0_1
.LBB0_1:
	.loc	5 0 40                          @ ../../../../Library/StdDriver/src/bpwm.c:0:40
	movs	r0, #1
	lsls	r0, r0, #30
	.loc	5 44 49                         @ ../../../../Library/StdDriver/src/bpwm.c:44:49
	ldr	r0, [r0]
	movw	r1, #65280
	.loc	5 44 54                         @ ../../../../Library/StdDriver/src/bpwm.c:44:54
	ands	r0, r1
	movw	r1, #22016
	.loc	5 44 74                         @ ../../../../Library/StdDriver/src/bpwm.c:44:74
	cmp	r0, r1
	beq	.LBB0_3
	b	.LBB0_2
.LBB0_2:
	.loc	5 0 74                          @ ../../../../Library/StdDriver/src/bpwm.c:0:74
	movs	r0, #1
	lsls	r0, r0, #30
	.loc	5 44 83                         @ ../../../../Library/StdDriver/src/bpwm.c:44:83
	ldr	r0, [r0]
	movw	r1, #65280
	.loc	5 44 88                         @ ../../../../Library/StdDriver/src/bpwm.c:44:88
	ands	r0, r1
	movw	r1, #21504
.Ltmp2:
	.loc	5 44 9                          @ ../../../../Library/StdDriver/src/bpwm.c:44:9
	cmp	r0, r1
	bne	.LBB0_7
	b	.LBB0_3
.LBB0_3:
.Ltmp3:
	.loc	5 46 13 is_stmt 1               @ ../../../../Library/StdDriver/src/bpwm.c:46:13
	ldr	r0, [sp, #36]
	ldr	r1, __arm_cp.0_1
.Ltmp4:
	.loc	5 46 13 is_stmt 0               @ ../../../../Library/StdDriver/src/bpwm.c:46:13
	cmp	r0, r1
	bne	.LBB0_5
	b	.LBB0_4
.LBB0_4:
	.loc	5 0 13                          @ ../../../../Library/StdDriver/src/bpwm.c:0:13
	movw	r0, #256
.Ltmp5:
	.loc	5 48 20 is_stmt 1               @ ../../../../Library/StdDriver/src/bpwm.c:48:20
	str	r0, [sp, #20]
	.loc	5 49 9                          @ ../../../../Library/StdDriver/src/bpwm.c:49:9
	b	.LBB0_6
.Ltmp6:
.LBB0_5:
	.loc	5 0 9 is_stmt 0                 @ ../../../../Library/StdDriver/src/bpwm.c:0:9
	movw	r0, #512
.Ltmp7:
	.loc	5 52 20 is_stmt 1               @ ../../../../Library/StdDriver/src/bpwm.c:52:20
	str	r0, [sp, #20]
	b	.LBB0_6
.Ltmp8:
.LBB0_6:
	.loc	5 54 5                          @ ../../../../Library/StdDriver/src/bpwm.c:54:5
	b	.LBB0_11
.Ltmp9:
.LBB0_7:
	.loc	5 57 13                         @ ../../../../Library/StdDriver/src/bpwm.c:57:13
	ldr	r0, [sp, #36]
	ldr	r1, __arm_cp.0_1
.Ltmp10:
	.loc	5 57 13 is_stmt 0               @ ../../../../Library/StdDriver/src/bpwm.c:57:13
	cmp	r0, r1
	bne	.LBB0_9
	b	.LBB0_8
.LBB0_8:
	.loc	5 0 13                          @ ../../../../Library/StdDriver/src/bpwm.c:0:13
	ldr	r0, __arm_cp.0_2
.Ltmp11:
	.loc	5 59 27 is_stmt 1               @ ../../../../Library/StdDriver/src/bpwm.c:59:27
	ldr	r0, [r0]
	movw	r1, #256
	.loc	5 59 35 is_stmt 0               @ ../../../../Library/StdDriver/src/bpwm.c:59:35
	ands	r0, r1
	.loc	5 59 20                         @ ../../../../Library/StdDriver/src/bpwm.c:59:20
	str	r0, [sp, #20]
	.loc	5 60 9 is_stmt 1                @ ../../../../Library/StdDriver/src/bpwm.c:60:9
	b	.LBB0_10
.Ltmp12:
.LBB0_9:
	.loc	5 0 9 is_stmt 0                 @ ../../../../Library/StdDriver/src/bpwm.c:0:9
	ldr	r0, __arm_cp.0_2
.Ltmp13:
	.loc	5 63 27 is_stmt 1               @ ../../../../Library/StdDriver/src/bpwm.c:63:27
	ldr	r0, [r0]
	movw	r1, #512
	.loc	5 63 35 is_stmt 0               @ ../../../../Library/StdDriver/src/bpwm.c:63:35
	ands	r0, r1
	.loc	5 63 20                         @ ../../../../Library/StdDriver/src/bpwm.c:63:20
	str	r0, [sp, #20]
	b	.LBB0_10
.Ltmp14:
.LBB0_10:
	.loc	5 0 20                          @ ../../../../Library/StdDriver/src/bpwm.c:0:20
	b	.LBB0_11
.LBB0_11:
.Ltmp15:
	.loc	5 67 9 is_stmt 1                @ ../../../../Library/StdDriver/src/bpwm.c:67:9
	ldr	r0, [sp, #20]
.Ltmp16:
	.loc	5 67 9 is_stmt 0                @ ../../../../Library/StdDriver/src/bpwm.c:67:9
	cbnz	r0, .LBB0_13
	b	.LBB0_12
.LBB0_12:
.Ltmp17:
	.loc	5 70 27 is_stmt 1               @ ../../../../Library/StdDriver/src/bpwm.c:70:27
	bl	CLK_GetPLLClockFreq
	.loc	5 70 25 is_stmt 0               @ ../../../../Library/StdDriver/src/bpwm.c:70:25
	str	r0, [sp, #16]
	.loc	5 71 5 is_stmt 1                @ ../../../../Library/StdDriver/src/bpwm.c:71:5
	b	.LBB0_17
.Ltmp18:
.LBB0_13:
	.loc	5 75 9                          @ ../../../../Library/StdDriver/src/bpwm.c:75:9
	bl	SystemCoreClockUpdate
.Ltmp19:
	.loc	5 77 13                         @ ../../../../Library/StdDriver/src/bpwm.c:77:13
	ldr	r0, [sp, #36]
	ldr	r1, __arm_cp.0_1
.Ltmp20:
	.loc	5 77 13 is_stmt 0               @ ../../../../Library/StdDriver/src/bpwm.c:77:13
	cmp	r0, r1
	bne	.LBB0_15
	b	.LBB0_14
.LBB0_14:
.Ltmp21:
	.loc	5 79 31 is_stmt 1               @ ../../../../Library/StdDriver/src/bpwm.c:79:31
	bl	CLK_GetPCLK0Freq
	.loc	5 79 29 is_stmt 0               @ ../../../../Library/StdDriver/src/bpwm.c:79:29
	str	r0, [sp, #16]
	.loc	5 80 9 is_stmt 1                @ ../../../../Library/StdDriver/src/bpwm.c:80:9
	b	.LBB0_16
.Ltmp22:
.LBB0_15:
	.loc	5 83 31                         @ ../../../../Library/StdDriver/src/bpwm.c:83:31
	bl	CLK_GetPCLK1Freq
	.loc	5 83 29 is_stmt 0               @ ../../../../Library/StdDriver/src/bpwm.c:83:29
	str	r0, [sp, #16]
	b	.LBB0_16
.Ltmp23:
.LBB0_16:
	.loc	5 0 29                          @ ../../../../Library/StdDriver/src/bpwm.c:0:29
	b	.LBB0_17
.LBB0_17:
	.loc	5 87 21 is_stmt 1               @ ../../../../Library/StdDriver/src/bpwm.c:87:21
	ldr	r0, [sp, #16]
	movw	r1, #1000
	udiv	r0, r0, r1
	str	r0, [sp, #16]
	add	r1, sp, #8
	movs	r0, #1
.Ltmp24:
	.loc	5 89 22                         @ ../../../../Library/StdDriver/src/bpwm.c:89:22
	strh	r0, [r1]
	.loc	5 89 10 is_stmt 0               @ ../../../../Library/StdDriver/src/bpwm.c:89:10
	b	.LBB0_18
.LBB0_18:                               @ =>This Inner Loop Header: Depth=1
	.loc	5 0 10                          @ ../../../../Library/StdDriver/src/bpwm.c:0:10
	add	r0, sp, #8
.Ltmp25:
	.loc	5 89 29                         @ ../../../../Library/StdDriver/src/bpwm.c:89:29
	ldrh	r0, [r0]
	movw	r1, #4096
.Ltmp26:
	.loc	5 89 5                          @ ../../../../Library/StdDriver/src/bpwm.c:89:5
	cmp	r0, r1
	bhi	.LBB0_30
	b	.LBB0_19
.LBB0_19:                               @   in Loop: Header=BB0_18 Depth=1
	.loc	5 0 5                           @ ../../../../Library/StdDriver/src/bpwm.c:0:5
	add	r0, sp, #8
.Ltmp27:
	.loc	5 91 47 is_stmt 1               @ ../../../../Library/StdDriver/src/bpwm.c:91:47
	ldrh	r1, [r0]
	ldr	r0, __arm_cp.0_3
	.loc	5 91 45 is_stmt 0               @ ../../../../Library/StdDriver/src/bpwm.c:91:45
	muls	r0, r1, r0
	.loc	5 91 62                         @ ../../../../Library/StdDriver/src/bpwm.c:91:62
	ldr	r1, [sp, #16]
	.loc	5 91 60                         @ ../../../../Library/StdDriver/src/bpwm.c:91:60
	udiv	r0, r0, r1
	.loc	5 91 32                         @ ../../../../Library/StdDriver/src/bpwm.c:91:32
	str	r0, [sp, #12]
.Ltmp28:
	.loc	5 93 13 is_stmt 1               @ ../../../../Library/StdDriver/src/bpwm.c:93:13
	ldr	r0, [sp, #12]
	.loc	5 93 38 is_stmt 0               @ ../../../../Library/StdDriver/src/bpwm.c:93:38
	ldr	r1, [sp, #28]
.Ltmp29:
	.loc	5 93 13                         @ ../../../../Library/StdDriver/src/bpwm.c:93:13
	cmp	r0, r1
	bhs	.LBB0_25
	b	.LBB0_20
.LBB0_20:                               @   in Loop: Header=BB0_18 Depth=1
	.loc	5 0 13                          @ ../../../../Library/StdDriver/src/bpwm.c:0:13
	add	r0, sp, #8
.Ltmp30:
	.loc	5 95 17 is_stmt 1               @ ../../../../Library/StdDriver/src/bpwm.c:95:17
	ldrh	r0, [r0]
	movw	r1, #4096
.Ltmp31:
	.loc	5 95 17 is_stmt 0               @ ../../../../Library/StdDriver/src/bpwm.c:95:17
	cmp	r0, r1
	bne	.LBB0_22
	b	.LBB0_21
.LBB0_21:                               @   in Loop: Header=BB0_18 Depth=1
	.loc	5 0 17                          @ ../../../../Library/StdDriver/src/bpwm.c:0:17
	mov	r1, sp
	movs	r0, #1
.Ltmp32:
	.loc	5 98 29 is_stmt 1               @ ../../../../Library/StdDriver/src/bpwm.c:98:29
	strb	r0, [r1]
	.loc	5 99 13                         @ ../../../../Library/StdDriver/src/bpwm.c:99:13
	b	.LBB0_22
.Ltmp33:
.LBB0_22:                               @   in Loop: Header=BB0_18 Depth=1
	.loc	5 0 13 is_stmt 0                @ ../../../../Library/StdDriver/src/bpwm.c:0:13
	add	r0, sp, #8
.Ltmp34:
	.loc	5 101 33 is_stmt 1              @ ../../../../Library/StdDriver/src/bpwm.c:101:33
	ldrh	r0, [r0]
	.loc	5 101 45 is_stmt 0              @ ../../../../Library/StdDriver/src/bpwm.c:101:45
	adds	r1, r0, #1
	ldr	r0, __arm_cp.0_3
	.loc	5 101 30                        @ ../../../../Library/StdDriver/src/bpwm.c:101:30
	muls	r0, r1, r0
	.loc	5 101 55                        @ ../../../../Library/StdDriver/src/bpwm.c:101:55
	ldr	r2, [sp, #12]
	.loc	5 101 80                        @ ../../../../Library/StdDriver/src/bpwm.c:101:80
	ldr	r1, [sp, #16]
	.loc	5 101 78                        @ ../../../../Library/StdDriver/src/bpwm.c:101:78
	muls	r1, r2, r1
.Ltmp35:
	.loc	5 101 17                        @ ../../../../Library/StdDriver/src/bpwm.c:101:17
	cmp	r0, r1
	bhi	.LBB0_24
	b	.LBB0_23
.LBB0_23:                               @   in Loop: Header=BB0_18 Depth=1
	.loc	5 0 17                          @ ../../../../Library/StdDriver/src/bpwm.c:0:17
	mov	r1, sp
	movs	r0, #1
.Ltmp36:
	.loc	5 103 29 is_stmt 1              @ ../../../../Library/StdDriver/src/bpwm.c:103:29
	strb	r0, [r1]
	.loc	5 104 13                        @ ../../../../Library/StdDriver/src/bpwm.c:104:13
	b	.LBB0_24
.Ltmp37:
.LBB0_24:                               @   in Loop: Header=BB0_18 Depth=1
	.loc	5 105 9                         @ ../../../../Library/StdDriver/src/bpwm.c:105:9
	b	.LBB0_26
.Ltmp38:
.LBB0_25:                               @   in Loop: Header=BB0_18 Depth=1
	.loc	5 0 9 is_stmt 0                 @ ../../../../Library/StdDriver/src/bpwm.c:0:9
	mov	r1, sp
	movs	r0, #1
.Ltmp39:
	.loc	5 108 25 is_stmt 1              @ ../../../../Library/StdDriver/src/bpwm.c:108:25
	strb	r0, [r1]
	b	.LBB0_26
.Ltmp40:
.LBB0_26:                               @   in Loop: Header=BB0_18 Depth=1
	.loc	5 0 25 is_stmt 0                @ ../../../../Library/StdDriver/src/bpwm.c:0:25
	mov	r0, sp
.Ltmp41:
	.loc	5 111 13 is_stmt 1              @ ../../../../Library/StdDriver/src/bpwm.c:111:13
	ldrb	r0, [r0]
.Ltmp42:
	.loc	5 111 13 is_stmt 0              @ ../../../../Library/StdDriver/src/bpwm.c:111:13
	cbz	r0, .LBB0_28
	b	.LBB0_27
.LBB0_27:
.Ltmp43:
	.loc	5 113 13 is_stmt 1              @ ../../../../Library/StdDriver/src/bpwm.c:113:13
	b	.LBB0_30
.Ltmp44:
.LBB0_28:                               @   in Loop: Header=BB0_18 Depth=1
	.loc	5 115 5                         @ ../../../../Library/StdDriver/src/bpwm.c:115:5
	b	.LBB0_29
.Ltmp45:
.LBB0_29:                               @   in Loop: Header=BB0_18 Depth=1
	.loc	5 89 65                         @ ../../../../Library/StdDriver/src/bpwm.c:89:65
	ldr	r0, [sp, #8]
	adds	r0, r0, #1
	add	r1, sp, #8
	strh	r0, [r1]
	.loc	5 89 5 is_stmt 0                @ ../../../../Library/StdDriver/src/bpwm.c:89:5
	b	.LBB0_18
.Ltmp46:
.LBB0_30:
	.loc	5 118 19 is_stmt 1              @ ../../../../Library/StdDriver/src/bpwm.c:118:19
	ldr	r0, [sp, #8]
	.loc	5 118 31 is_stmt 0              @ ../../../../Library/StdDriver/src/bpwm.c:118:31
	subs	r1, r0, #1
	add	r0, sp, #8
	.loc	5 118 17                        @ ../../../../Library/StdDriver/src/bpwm.c:118:17
	strh	r1, [r0]
	.loc	5 120 5 is_stmt 1               @ ../../../../Library/StdDriver/src/bpwm.c:120:5
	ldrh	r0, [r0]
	ldr	r1, [sp, #36]
	str	r0, [r1, #20]
	.loc	5 123 6                         @ ../../../../Library/StdDriver/src/bpwm.c:123:6
	ldr	r1, [sp, #36]
	movs	r0, #1
	.loc	5 123 18 is_stmt 0              @ ../../../../Library/StdDriver/src/bpwm.c:123:18
	str	r0, [r1, #4]
	add	r0, sp, #4
	.loc	5 125 5 is_stmt 1               @ ../../../../Library/StdDriver/src/bpwm.c:125:5
	ldrh	r0, [r0]
	ldr	r1, [sp, #36]
	str	r0, [r1, #48]
	.loc	5 127 13                        @ ../../../../Library/StdDriver/src/bpwm.c:127:13
	ldr	r0, [sp, #12]
	.loc	5 127 5 is_stmt 0               @ ../../../../Library/StdDriver/src/bpwm.c:127:5
	add	sp, #40
	pop	{r7, pc}
.Ltmp47:
	.p2align	2
@ %bb.31:
	.loc	5 0 5                           @ ../../../../Library/StdDriver/src/bpwm.c:0:5
__arm_cp.0_0:
	.long	65535                           @ 0xffff
.Lcpi_end0:
	.size	__arm_cp.0_0, .Lcpi_end0-__arm_cp.0_0
__arm_cp.0_1:
	.long	1074110464                      @ 0x4005a000
.Lcpi_end1:
	.size	__arm_cp.0_1, .Lcpi_end1-__arm_cp.0_1
__arm_cp.0_2:
	.long	1073742360                      @ 0x40000218
.Lcpi_end2:
	.size	__arm_cp.0_2, .Lcpi_end2-__arm_cp.0_2
__arm_cp.0_3:
	.long	1000000                         @ 0xf4240
.Lcpi_end3:
	.size	__arm_cp.0_3, .Lcpi_end3-__arm_cp.0_3
.Lfunc_end0:
	.size	BPWM_ConfigCaptureChannel, .Lfunc_end0-BPWM_ConfigCaptureChannel
	.cfi_endproc
	.cantunwind
	.fnend
                                        @ -- End function
	.section	.text.BPWM_ConfigOutputChannel,"ax",%progbits
	.hidden	BPWM_ConfigOutputChannel        @ -- Begin function BPWM_ConfigOutputChannel
	.globl	BPWM_ConfigOutputChannel
	.p2align	2
	.type	BPWM_ConfigOutputChannel,%function
	.code	16                              @ @BPWM_ConfigOutputChannel
	.thumb_func
BPWM_ConfigOutputChannel:
.Lfunc_begin1:
	.loc	5 143 0 is_stmt 1               @ ../../../../Library/StdDriver/src/bpwm.c:143:0
	.fnstart
	.cfi_startproc
@ %bb.0:
	.save	{r4, lr}
	push	{r4, lr}
	.cfi_def_cfa_offset 8
	.cfi_offset lr, -4
	.cfi_offset r4, -8
	.pad	#40
	sub	sp, #40
	.cfi_def_cfa_offset 48
	str	r0, [sp, #36]
	str	r1, [sp, #32]
	str	r2, [sp, #28]
	str	r3, [sp, #24]
	add	r1, sp, #8
	movs	r0, #1
.Ltmp48:
	.loc	5 147 14 prologue_end           @ ../../../../Library/StdDriver/src/bpwm.c:147:14
	strh	r0, [r1]
	add	r2, sp, #4
	ldr	r1, __arm_cp.1_0
	.loc	5 147 33 is_stmt 0              @ ../../../../Library/StdDriver/src/bpwm.c:147:33
	strh	r1, [r2]
	lsls	r0, r0, #30
.Ltmp49:
	.loc	5 150 15 is_stmt 1              @ ../../../../Library/StdDriver/src/bpwm.c:150:15
	ldr	r0, [r0]
	movw	r1, #65280
	.loc	5 150 20 is_stmt 0              @ ../../../../Library/StdDriver/src/bpwm.c:150:20
	ands	r0, r1
	movw	r1, #22528
	.loc	5 150 40                        @ ../../../../Library/StdDriver/src/bpwm.c:150:40
	cmp	r0, r1
	beq	.LBB1_3
	b	.LBB1_1
.LBB1_1:
	.loc	5 0 40                          @ ../../../../Library/StdDriver/src/bpwm.c:0:40
	movs	r0, #1
	lsls	r0, r0, #30
	.loc	5 150 49                        @ ../../../../Library/StdDriver/src/bpwm.c:150:49
	ldr	r0, [r0]
	movw	r1, #65280
	.loc	5 150 54                        @ ../../../../Library/StdDriver/src/bpwm.c:150:54
	ands	r0, r1
	movw	r1, #22016
	.loc	5 150 74                        @ ../../../../Library/StdDriver/src/bpwm.c:150:74
	cmp	r0, r1
	beq	.LBB1_3
	b	.LBB1_2
.LBB1_2:
	.loc	5 0 74                          @ ../../../../Library/StdDriver/src/bpwm.c:0:74
	movs	r0, #1
	lsls	r0, r0, #30
	.loc	5 150 83                        @ ../../../../Library/StdDriver/src/bpwm.c:150:83
	ldr	r0, [r0]
	movw	r1, #65280
	.loc	5 150 88                        @ ../../../../Library/StdDriver/src/bpwm.c:150:88
	ands	r0, r1
	movw	r1, #21504
.Ltmp50:
	.loc	5 150 9                         @ ../../../../Library/StdDriver/src/bpwm.c:150:9
	cmp	r0, r1
	bne	.LBB1_7
	b	.LBB1_3
.LBB1_3:
.Ltmp51:
	.loc	5 152 13 is_stmt 1              @ ../../../../Library/StdDriver/src/bpwm.c:152:13
	ldr	r0, [sp, #36]
	ldr	r1, __arm_cp.1_1
.Ltmp52:
	.loc	5 152 13 is_stmt 0              @ ../../../../Library/StdDriver/src/bpwm.c:152:13
	cmp	r0, r1
	bne	.LBB1_5
	b	.LBB1_4
.LBB1_4:
	.loc	5 0 13                          @ ../../../../Library/StdDriver/src/bpwm.c:0:13
	movw	r0, #256
.Ltmp53:
	.loc	5 154 20 is_stmt 1              @ ../../../../Library/StdDriver/src/bpwm.c:154:20
	str	r0, [sp, #20]
	.loc	5 155 9                         @ ../../../../Library/StdDriver/src/bpwm.c:155:9
	b	.LBB1_6
.Ltmp54:
.LBB1_5:
	.loc	5 0 9 is_stmt 0                 @ ../../../../Library/StdDriver/src/bpwm.c:0:9
	movw	r0, #512
.Ltmp55:
	.loc	5 158 20 is_stmt 1              @ ../../../../Library/StdDriver/src/bpwm.c:158:20
	str	r0, [sp, #20]
	b	.LBB1_6
.Ltmp56:
.LBB1_6:
	.loc	5 160 5                         @ ../../../../Library/StdDriver/src/bpwm.c:160:5
	b	.LBB1_11
.Ltmp57:
.LBB1_7:
	.loc	5 163 13                        @ ../../../../Library/StdDriver/src/bpwm.c:163:13
	ldr	r0, [sp, #36]
	ldr	r1, __arm_cp.1_1
.Ltmp58:
	.loc	5 163 13 is_stmt 0              @ ../../../../Library/StdDriver/src/bpwm.c:163:13
	cmp	r0, r1
	bne	.LBB1_9
	b	.LBB1_8
.LBB1_8:
	.loc	5 0 13                          @ ../../../../Library/StdDriver/src/bpwm.c:0:13
	ldr	r0, __arm_cp.1_2
.Ltmp59:
	.loc	5 165 27 is_stmt 1              @ ../../../../Library/StdDriver/src/bpwm.c:165:27
	ldr	r0, [r0]
	movw	r1, #256
	.loc	5 165 35 is_stmt 0              @ ../../../../Library/StdDriver/src/bpwm.c:165:35
	ands	r0, r1
	.loc	5 165 20                        @ ../../../../Library/StdDriver/src/bpwm.c:165:20
	str	r0, [sp, #20]
	.loc	5 166 9 is_stmt 1               @ ../../../../Library/StdDriver/src/bpwm.c:166:9
	b	.LBB1_10
.Ltmp60:
.LBB1_9:
	.loc	5 0 9 is_stmt 0                 @ ../../../../Library/StdDriver/src/bpwm.c:0:9
	ldr	r0, __arm_cp.1_2
.Ltmp61:
	.loc	5 169 27 is_stmt 1              @ ../../../../Library/StdDriver/src/bpwm.c:169:27
	ldr	r0, [r0]
	movw	r1, #512
	.loc	5 169 35 is_stmt 0              @ ../../../../Library/StdDriver/src/bpwm.c:169:35
	ands	r0, r1
	.loc	5 169 20                        @ ../../../../Library/StdDriver/src/bpwm.c:169:20
	str	r0, [sp, #20]
	b	.LBB1_10
.Ltmp62:
.LBB1_10:
	.loc	5 0 20                          @ ../../../../Library/StdDriver/src/bpwm.c:0:20
	b	.LBB1_11
.LBB1_11:
.Ltmp63:
	.loc	5 173 9 is_stmt 1               @ ../../../../Library/StdDriver/src/bpwm.c:173:9
	ldr	r0, [sp, #20]
.Ltmp64:
	.loc	5 173 9 is_stmt 0               @ ../../../../Library/StdDriver/src/bpwm.c:173:9
	cbnz	r0, .LBB1_13
	b	.LBB1_12
.LBB1_12:
.Ltmp65:
	.loc	5 176 27 is_stmt 1              @ ../../../../Library/StdDriver/src/bpwm.c:176:27
	bl	CLK_GetPLLClockFreq
	.loc	5 176 25 is_stmt 0              @ ../../../../Library/StdDriver/src/bpwm.c:176:25
	str	r0, [sp, #16]
	.loc	5 177 5 is_stmt 1               @ ../../../../Library/StdDriver/src/bpwm.c:177:5
	b	.LBB1_17
.Ltmp66:
.LBB1_13:
	.loc	5 181 9                         @ ../../../../Library/StdDriver/src/bpwm.c:181:9
	bl	SystemCoreClockUpdate
.Ltmp67:
	.loc	5 183 13                        @ ../../../../Library/StdDriver/src/bpwm.c:183:13
	ldr	r0, [sp, #36]
	ldr	r1, __arm_cp.1_1
.Ltmp68:
	.loc	5 183 13 is_stmt 0              @ ../../../../Library/StdDriver/src/bpwm.c:183:13
	cmp	r0, r1
	bne	.LBB1_15
	b	.LBB1_14
.LBB1_14:
.Ltmp69:
	.loc	5 185 31 is_stmt 1              @ ../../../../Library/StdDriver/src/bpwm.c:185:31
	bl	CLK_GetPCLK0Freq
	.loc	5 185 29 is_stmt 0              @ ../../../../Library/StdDriver/src/bpwm.c:185:29
	str	r0, [sp, #16]
	.loc	5 186 9 is_stmt 1               @ ../../../../Library/StdDriver/src/bpwm.c:186:9
	b	.LBB1_16
.Ltmp70:
.LBB1_15:
	.loc	5 189 31                        @ ../../../../Library/StdDriver/src/bpwm.c:189:31
	bl	CLK_GetPCLK1Freq
	.loc	5 189 29 is_stmt 0              @ ../../../../Library/StdDriver/src/bpwm.c:189:29
	str	r0, [sp, #16]
	b	.LBB1_16
.Ltmp71:
.LBB1_16:
	.loc	5 0 29                          @ ../../../../Library/StdDriver/src/bpwm.c:0:29
	b	.LBB1_17
.LBB1_17:
	add	r1, sp, #8
	movs	r0, #1
.Ltmp72:
	.loc	5 193 22 is_stmt 1              @ ../../../../Library/StdDriver/src/bpwm.c:193:22
	strh	r0, [r1]
	.loc	5 193 10 is_stmt 0              @ ../../../../Library/StdDriver/src/bpwm.c:193:10
	b	.LBB1_18
.LBB1_18:                               @ =>This Inner Loop Header: Depth=1
	.loc	5 0 10                          @ ../../../../Library/StdDriver/src/bpwm.c:0:10
	add	r0, sp, #8
.Ltmp73:
	.loc	5 193 29                        @ ../../../../Library/StdDriver/src/bpwm.c:193:29
	ldrh	r0, [r0]
	ldr	r1, __arm_cp.1_3
.Ltmp74:
	.loc	5 193 5                         @ ../../../../Library/StdDriver/src/bpwm.c:193:5
	cmp	r0, r1
	bhi	.LBB1_23
	b	.LBB1_19
.LBB1_19:                               @   in Loop: Header=BB1_18 Depth=1
.Ltmp75:
	.loc	5 195 14 is_stmt 1              @ ../../../../Library/StdDriver/src/bpwm.c:195:14
	ldr	r0, [sp, #16]
	.loc	5 195 32 is_stmt 0              @ ../../../../Library/StdDriver/src/bpwm.c:195:32
	ldr	r1, [sp, #28]
	.loc	5 195 30                        @ ../../../../Library/StdDriver/src/bpwm.c:195:30
	udiv	r0, r0, r1
	add	r1, sp, #8
	.loc	5 195 48                        @ ../../../../Library/StdDriver/src/bpwm.c:195:48
	ldrh	r1, [r1]
	.loc	5 195 46                        @ ../../../../Library/StdDriver/src/bpwm.c:195:46
	udiv	r0, r0, r1
	.loc	5 195 11                        @ ../../../../Library/StdDriver/src/bpwm.c:195:11
	str	r0, [sp, #12]
.Ltmp76:
	.loc	5 198 13 is_stmt 1              @ ../../../../Library/StdDriver/src/bpwm.c:198:13
	ldr	r0, [sp, #12]
	movs	r1, #1
	lsls	r1, r1, #16
.Ltmp77:
	.loc	5 198 13 is_stmt 0              @ ../../../../Library/StdDriver/src/bpwm.c:198:13
	cmp	r0, r1
	bhi	.LBB1_21
	b	.LBB1_20
.LBB1_20:
.Ltmp78:
	.loc	5 200 32 is_stmt 1              @ ../../../../Library/StdDriver/src/bpwm.c:200:32
	ldr	r0, [sp, #12]
	add	r1, sp, #4
	.loc	5 200 20 is_stmt 0              @ ../../../../Library/StdDriver/src/bpwm.c:200:20
	strh	r0, [r1]
	.loc	5 201 13 is_stmt 1              @ ../../../../Library/StdDriver/src/bpwm.c:201:13
	b	.LBB1_23
.Ltmp79:
.LBB1_21:                               @   in Loop: Header=BB1_18 Depth=1
	.loc	5 203 5                         @ ../../../../Library/StdDriver/src/bpwm.c:203:5
	b	.LBB1_22
.Ltmp80:
.LBB1_22:                               @   in Loop: Header=BB1_18 Depth=1
	.loc	5 193 63                        @ ../../../../Library/StdDriver/src/bpwm.c:193:63
	ldr	r0, [sp, #8]
	adds	r0, r0, #1
	add	r1, sp, #8
	strh	r0, [r1]
	.loc	5 193 5 is_stmt 0               @ ../../../../Library/StdDriver/src/bpwm.c:193:5
	b	.LBB1_18
.Ltmp81:
.LBB1_23:
	.loc	5 206 9 is_stmt 1               @ ../../../../Library/StdDriver/src/bpwm.c:206:9
	ldr	r2, [sp, #16]
	add	r1, sp, #8
	.loc	5 206 38 is_stmt 0              @ ../../../../Library/StdDriver/src/bpwm.c:206:38
	ldrh	r4, [r1]
	add	r0, sp, #4
	.loc	5 206 62                        @ ../../../../Library/StdDriver/src/bpwm.c:206:62
	ldrh	r3, [r0]
	.loc	5 206 50                        @ ../../../../Library/StdDriver/src/bpwm.c:206:50
	muls	r3, r4, r3
	.loc	5 206 25                        @ ../../../../Library/StdDriver/src/bpwm.c:206:25
	udiv	r2, r2, r3
	.loc	5 206 7                         @ ../../../../Library/StdDriver/src/bpwm.c:206:7
	str	r2, [sp, #12]
	.loc	5 209 19 is_stmt 1              @ ../../../../Library/StdDriver/src/bpwm.c:209:19
	ldr	r2, [sp, #8]
	.loc	5 209 31 is_stmt 0              @ ../../../../Library/StdDriver/src/bpwm.c:209:31
	subs	r2, r2, #1
	.loc	5 209 17                        @ ../../../../Library/StdDriver/src/bpwm.c:209:17
	strh	r2, [r1]
	.loc	5 211 5 is_stmt 1               @ ../../../../Library/StdDriver/src/bpwm.c:211:5
	ldrh	r1, [r1]
	ldr	r2, [sp, #36]
	str	r1, [r2, #20]
	.loc	5 213 6                         @ ../../../../Library/StdDriver/src/bpwm.c:213:6
	ldr	r2, [sp, #36]
	movs	r1, #1
	.loc	5 213 18 is_stmt 0              @ ../../../../Library/StdDriver/src/bpwm.c:213:18
	str	r1, [r2, #4]
	.loc	5 215 14 is_stmt 1              @ ../../../../Library/StdDriver/src/bpwm.c:215:14
	ldr	r1, [sp, #4]
	.loc	5 215 21 is_stmt 0              @ ../../../../Library/StdDriver/src/bpwm.c:215:21
	subs	r1, r1, #1
	.loc	5 215 12                        @ ../../../../Library/StdDriver/src/bpwm.c:215:12
	strh	r1, [r0]
	.loc	5 216 5 is_stmt 1               @ ../../../../Library/StdDriver/src/bpwm.c:216:5
	ldrh	r0, [r0]
	ldr	r1, [sp, #36]
	str	r0, [r1, #48]
.Ltmp82:
	.loc	5 218 9                         @ ../../../../Library/StdDriver/src/bpwm.c:218:9
	ldr	r0, [sp, #24]
.Ltmp83:
	.loc	5 218 9 is_stmt 0               @ ../../../../Library/StdDriver/src/bpwm.c:218:9
	cmp	r0, #0
	beq	.LBB1_28
	b	.LBB1_24
.LBB1_24:
.Ltmp84:
	.loc	5 220 13 is_stmt 1              @ ../../../../Library/StdDriver/src/bpwm.c:220:13
	ldr	r0, [sp, #24]
.Ltmp85:
	.loc	5 220 13 is_stmt 0              @ ../../../../Library/StdDriver/src/bpwm.c:220:13
	cmp	r0, #100
	blo	.LBB1_26
	b	.LBB1_25
.LBB1_25:
	.loc	5 0 13                          @ ../../../../Library/StdDriver/src/bpwm.c:0:13
	add	r0, sp, #4
.Ltmp86:
	.loc	5 221 13 is_stmt 1              @ ../../../../Library/StdDriver/src/bpwm.c:221:13
	ldrh	r0, [r0]
	ldr	r1, [sp, #36]
	ldr	r2, [sp, #32]
	lsls	r2, r2, #2
	adds	r1, r1, r2
	str	r0, [r1, #80]
	b	.LBB1_27
.LBB1_26:
	.loc	5 223 13                        @ ../../../../Library/StdDriver/src/bpwm.c:223:13
	ldr	r1, [sp, #24]
	add	r0, sp, #4
	ldrh	r0, [r0]
	adds	r0, r0, #1
	muls	r0, r1, r0
	movs	r1, #100
	udiv	r0, r0, r1
	ldr	r1, [sp, #36]
	ldr	r2, [sp, #32]
	lsls	r2, r2, #2
	adds	r1, r1, r2
	str	r0, [r1, #80]
	b	.LBB1_27
.Ltmp87:
.LBB1_27:
	.loc	5 225 85                        @ ../../../../Library/StdDriver/src/bpwm.c:225:85
	ldr	r0, [sp, #32]
	.loc	5 225 99 is_stmt 0              @ ../../../../Library/StdDriver/src/bpwm.c:225:99
	lsls	r0, r0, #1
	ldr	r3, __arm_cp.1_4
	.loc	5 225 81                        @ ../../../../Library/StdDriver/src/bpwm.c:225:81
	mov	r4, r3
	lsls	r4, r0
	.loc	5 225 10                        @ ../../../../Library/StdDriver/src/bpwm.c:225:10
	ldr	r1, [sp, #36]
	movs	r2, #176
	.loc	5 225 24                        @ ../../../../Library/StdDriver/src/bpwm.c:225:24
	ldr	r0, [r1, r2]
	bics	r0, r4
	str	r0, [r1, r2]
	.loc	5 226 49 is_stmt 1              @ ../../../../Library/StdDriver/src/bpwm.c:226:49
	ldr	r0, [sp, #32]
	.loc	5 226 63 is_stmt 0              @ ../../../../Library/StdDriver/src/bpwm.c:226:63
	lsls	r0, r0, #1
	.loc	5 226 71                        @ ../../../../Library/StdDriver/src/bpwm.c:226:71
	adds	r0, #16
	movs	r4, #1
	.loc	5 226 44                        @ ../../../../Library/StdDriver/src/bpwm.c:226:44
	lsls	r4, r0
	.loc	5 226 10                        @ ../../../../Library/StdDriver/src/bpwm.c:226:10
	ldr	r1, [sp, #36]
	.loc	5 226 24                        @ ../../../../Library/StdDriver/src/bpwm.c:226:24
	ldr	r0, [r1, r2]
	orrs	r0, r4
	str	r0, [r1, r2]
	.loc	5 227 87 is_stmt 1              @ ../../../../Library/StdDriver/src/bpwm.c:227:87
	ldr	r0, [sp, #32]
	.loc	5 227 101 is_stmt 0             @ ../../../../Library/StdDriver/src/bpwm.c:227:101
	lsls	r0, r0, #1
	.loc	5 227 83                        @ ../../../../Library/StdDriver/src/bpwm.c:227:83
	lsls	r3, r0
	.loc	5 227 10                        @ ../../../../Library/StdDriver/src/bpwm.c:227:10
	ldr	r1, [sp, #36]
	movs	r2, #180
	.loc	5 227 24                        @ ../../../../Library/StdDriver/src/bpwm.c:227:24
	ldr	r0, [r1, r2]
	bics	r0, r3
	str	r0, [r1, r2]
	.loc	5 228 50 is_stmt 1              @ ../../../../Library/StdDriver/src/bpwm.c:228:50
	ldr	r0, [sp, #32]
	.loc	5 228 64 is_stmt 0              @ ../../../../Library/StdDriver/src/bpwm.c:228:64
	lsls	r0, r0, #1
	.loc	5 228 72                        @ ../../../../Library/StdDriver/src/bpwm.c:228:72
	adds	r0, #16
	movs	r3, #2
	.loc	5 228 45                        @ ../../../../Library/StdDriver/src/bpwm.c:228:45
	lsls	r3, r0
	.loc	5 228 10                        @ ../../../../Library/StdDriver/src/bpwm.c:228:10
	ldr	r1, [sp, #36]
	.loc	5 228 24                        @ ../../../../Library/StdDriver/src/bpwm.c:228:24
	ldr	r0, [r1, r2]
	orrs	r0, r3
	str	r0, [r1, r2]
	.loc	5 229 5 is_stmt 1               @ ../../../../Library/StdDriver/src/bpwm.c:229:5
	b	.LBB1_29
.Ltmp88:
.LBB1_28:
	.loc	5 232 9                         @ ../../../../Library/StdDriver/src/bpwm.c:232:9
	ldr	r0, [sp, #36]
	ldr	r1, [sp, #32]
	lsls	r1, r1, #2
	adds	r1, r0, r1
	movs	r0, #0
	str	r0, [r1, #80]
	.loc	5 233 85                        @ ../../../../Library/StdDriver/src/bpwm.c:233:85
	ldr	r0, [sp, #32]
	.loc	5 233 99 is_stmt 0              @ ../../../../Library/StdDriver/src/bpwm.c:233:99
	lsls	r0, r0, #1
	ldr	r3, __arm_cp.1_4
	.loc	5 233 81                        @ ../../../../Library/StdDriver/src/bpwm.c:233:81
	mov	r4, r3
	lsls	r4, r0
	.loc	5 233 10                        @ ../../../../Library/StdDriver/src/bpwm.c:233:10
	ldr	r1, [sp, #36]
	movs	r2, #176
	.loc	5 233 24                        @ ../../../../Library/StdDriver/src/bpwm.c:233:24
	ldr	r0, [r1, r2]
	bics	r0, r4
	str	r0, [r1, r2]
	.loc	5 234 49 is_stmt 1              @ ../../../../Library/StdDriver/src/bpwm.c:234:49
	ldr	r0, [sp, #32]
	.loc	5 234 63 is_stmt 0              @ ../../../../Library/StdDriver/src/bpwm.c:234:63
	lsls	r0, r0, #1
	movs	r4, #1
	.loc	5 234 44                        @ ../../../../Library/StdDriver/src/bpwm.c:234:44
	lsls	r4, r0
	.loc	5 234 10                        @ ../../../../Library/StdDriver/src/bpwm.c:234:10
	ldr	r1, [sp, #36]
	.loc	5 234 24                        @ ../../../../Library/StdDriver/src/bpwm.c:234:24
	ldr	r0, [r1, r2]
	orrs	r0, r4
	str	r0, [r1, r2]
	.loc	5 235 87 is_stmt 1              @ ../../../../Library/StdDriver/src/bpwm.c:235:87
	ldr	r0, [sp, #32]
	.loc	5 235 101 is_stmt 0             @ ../../../../Library/StdDriver/src/bpwm.c:235:101
	lsls	r0, r0, #1
	.loc	5 235 83                        @ ../../../../Library/StdDriver/src/bpwm.c:235:83
	lsls	r3, r0
	.loc	5 235 10                        @ ../../../../Library/StdDriver/src/bpwm.c:235:10
	ldr	r1, [sp, #36]
	movs	r2, #180
	.loc	5 235 24                        @ ../../../../Library/StdDriver/src/bpwm.c:235:24
	ldr	r0, [r1, r2]
	bics	r0, r3
	str	r0, [r1, r2]
	.loc	5 236 50 is_stmt 1              @ ../../../../Library/StdDriver/src/bpwm.c:236:50
	ldr	r0, [sp, #32]
	.loc	5 236 64 is_stmt 0              @ ../../../../Library/StdDriver/src/bpwm.c:236:64
	lsls	r0, r0, #1
	.loc	5 236 72                        @ ../../../../Library/StdDriver/src/bpwm.c:236:72
	adds	r0, #16
	movs	r3, #2
	.loc	5 236 45                        @ ../../../../Library/StdDriver/src/bpwm.c:236:45
	lsls	r3, r0
	.loc	5 236 10                        @ ../../../../Library/StdDriver/src/bpwm.c:236:10
	ldr	r1, [sp, #36]
	.loc	5 236 24                        @ ../../../../Library/StdDriver/src/bpwm.c:236:24
	ldr	r0, [r1, r2]
	orrs	r0, r3
	str	r0, [r1, r2]
	b	.LBB1_29
.Ltmp89:
.LBB1_29:
	.loc	5 239 13 is_stmt 1              @ ../../../../Library/StdDriver/src/bpwm.c:239:13
	ldr	r0, [sp, #12]
	.loc	5 239 5 is_stmt 0               @ ../../../../Library/StdDriver/src/bpwm.c:239:5
	add	sp, #40
	pop	{r4, pc}
.Ltmp90:
	.p2align	2
@ %bb.30:
	.loc	5 0 5                           @ ../../../../Library/StdDriver/src/bpwm.c:0:5
__arm_cp.1_0:
	.long	65535                           @ 0xffff
.Lcpi_end4:
	.size	__arm_cp.1_0, .Lcpi_end4-__arm_cp.1_0
__arm_cp.1_1:
	.long	1074110464                      @ 0x4005a000
.Lcpi_end5:
	.size	__arm_cp.1_1, .Lcpi_end5-__arm_cp.1_1
__arm_cp.1_2:
	.long	1073742360                      @ 0x40000218
.Lcpi_end6:
	.size	__arm_cp.1_2, .Lcpi_end6-__arm_cp.1_2
__arm_cp.1_3:
	.long	4094                            @ 0xffe
.Lcpi_end7:
	.size	__arm_cp.1_3, .Lcpi_end7-__arm_cp.1_3
__arm_cp.1_4:
	.long	196611                          @ 0x30003
.Lcpi_end8:
	.size	__arm_cp.1_4, .Lcpi_end8-__arm_cp.1_4
.Lfunc_end1:
	.size	BPWM_ConfigOutputChannel, .Lfunc_end1-BPWM_ConfigOutputChannel
	.cfi_endproc
	.cantunwind
	.fnend
                                        @ -- End function
	.section	.text.BPWM_Start,"ax",%progbits
	.hidden	BPWM_Start                      @ -- Begin function BPWM_Start
	.globl	BPWM_Start
	.p2align	1
	.type	BPWM_Start,%function
	.code	16                              @ @BPWM_Start
	.thumb_func
BPWM_Start:
.Lfunc_begin2:
	.loc	5 252 0 is_stmt 1               @ ../../../../Library/StdDriver/src/bpwm.c:252:0
	.fnstart
	.cfi_startproc
@ %bb.0:
	.pad	#8
	sub	sp, #8
	.cfi_def_cfa_offset 8
	str	r0, [sp, #4]
	str	r1, [sp]
.Ltmp91:
	.loc	5 253 6 prologue_end            @ ../../../../Library/StdDriver/src/bpwm.c:253:6
	ldr	r1, [sp, #4]
	movs	r0, #1
	.loc	5 253 19 is_stmt 0              @ ../../../../Library/StdDriver/src/bpwm.c:253:19
	str	r0, [r1, #32]
	.loc	5 254 1 is_stmt 1               @ ../../../../Library/StdDriver/src/bpwm.c:254:1
	add	sp, #8
	bx	lr
.Ltmp92:
.Lfunc_end2:
	.size	BPWM_Start, .Lfunc_end2-BPWM_Start
	.cfi_endproc
	.cantunwind
	.fnend
                                        @ -- End function
	.section	.text.BPWM_Stop,"ax",%progbits
	.hidden	BPWM_Stop                       @ -- Begin function BPWM_Stop
	.globl	BPWM_Stop
	.p2align	1
	.type	BPWM_Stop,%function
	.code	16                              @ @BPWM_Stop
	.thumb_func
BPWM_Stop:
.Lfunc_begin3:
	.loc	5 266 0                         @ ../../../../Library/StdDriver/src/bpwm.c:266:0
	.fnstart
	.cfi_startproc
@ %bb.0:
	.pad	#8
	sub	sp, #8
	.cfi_def_cfa_offset 8
	str	r0, [sp, #4]
	str	r1, [sp]
.Ltmp93:
	.loc	5 267 6 prologue_end            @ ../../../../Library/StdDriver/src/bpwm.c:267:6
	ldr	r1, [sp, #4]
	movs	r0, #0
	.loc	5 267 20 is_stmt 0              @ ../../../../Library/StdDriver/src/bpwm.c:267:20
	str	r0, [r1, #48]
	.loc	5 268 1 is_stmt 1               @ ../../../../Library/StdDriver/src/bpwm.c:268:1
	add	sp, #8
	bx	lr
.Ltmp94:
.Lfunc_end3:
	.size	BPWM_Stop, .Lfunc_end3-BPWM_Stop
	.cfi_endproc
	.cantunwind
	.fnend
                                        @ -- End function
	.section	.text.BPWM_ForceStop,"ax",%progbits
	.hidden	BPWM_ForceStop                  @ -- Begin function BPWM_ForceStop
	.globl	BPWM_ForceStop
	.p2align	1
	.type	BPWM_ForceStop,%function
	.code	16                              @ @BPWM_ForceStop
	.thumb_func
BPWM_ForceStop:
.Lfunc_begin4:
	.loc	5 280 0                         @ ../../../../Library/StdDriver/src/bpwm.c:280:0
	.fnstart
	.cfi_startproc
@ %bb.0:
	.pad	#8
	sub	sp, #8
	.cfi_def_cfa_offset 8
	str	r0, [sp, #4]
	str	r1, [sp]
.Ltmp95:
	.loc	5 281 6 prologue_end            @ ../../../../Library/StdDriver/src/bpwm.c:281:6
	ldr	r1, [sp, #4]
	.loc	5 281 19 is_stmt 0              @ ../../../../Library/StdDriver/src/bpwm.c:281:19
	ldr	r0, [r1, #32]
	movs	r2, #1
	bics	r0, r2
	str	r0, [r1, #32]
	.loc	5 282 1 is_stmt 1               @ ../../../../Library/StdDriver/src/bpwm.c:282:1
	add	sp, #8
	bx	lr
.Ltmp96:
.Lfunc_end4:
	.size	BPWM_ForceStop, .Lfunc_end4-BPWM_ForceStop
	.cfi_endproc
	.cantunwind
	.fnend
                                        @ -- End function
	.section	.text.BPWM_EnableADCTrigger,"ax",%progbits
	.hidden	BPWM_EnableADCTrigger           @ -- Begin function BPWM_EnableADCTrigger
	.globl	BPWM_EnableADCTrigger
	.p2align	1
	.type	BPWM_EnableADCTrigger,%function
	.code	16                              @ @BPWM_EnableADCTrigger
	.thumb_func
BPWM_EnableADCTrigger:
.Lfunc_begin5:
	.loc	5 301 0                         @ ../../../../Library/StdDriver/src/bpwm.c:301:0
	.fnstart
	.cfi_startproc
@ %bb.0:
	.pad	#12
	sub	sp, #12
	.cfi_def_cfa_offset 12
	str	r0, [sp, #8]
	str	r1, [sp, #4]
	str	r2, [sp]
.Ltmp97:
	.loc	5 302 9 prologue_end            @ ../../../../Library/StdDriver/src/bpwm.c:302:9
	ldr	r0, [sp, #4]
.Ltmp98:
	.loc	5 302 9 is_stmt 0               @ ../../../../Library/StdDriver/src/bpwm.c:302:9
	cmp	r0, #3
	bhi	.LBB5_2
	b	.LBB5_1
.LBB5_1:
.Ltmp99:
	.loc	5 304 61 is_stmt 1              @ ../../../../Library/StdDriver/src/bpwm.c:304:61
	ldr	r0, [sp, #4]
	.loc	5 304 75 is_stmt 0              @ ../../../../Library/StdDriver/src/bpwm.c:304:75
	lsls	r0, r0, #3
	movs	r3, #15
	.loc	5 304 57                        @ ../../../../Library/StdDriver/src/bpwm.c:304:57
	lsls	r3, r0
	.loc	5 304 10                        @ ../../../../Library/StdDriver/src/bpwm.c:304:10
	ldr	r1, [sp, #8]
	movs	r2, #248
	.loc	5 304 25                        @ ../../../../Library/StdDriver/src/bpwm.c:304:25
	ldr	r0, [r1, r2]
	bics	r0, r3
	str	r0, [r1, r2]
	.loc	5 305 56 is_stmt 1              @ ../../../../Library/StdDriver/src/bpwm.c:305:56
	ldr	r3, [sp]
	movs	r0, #128
	.loc	5 305 54 is_stmt 0              @ ../../../../Library/StdDriver/src/bpwm.c:305:54
	orrs	r3, r0
	.loc	5 305 74                        @ ../../../../Library/StdDriver/src/bpwm.c:305:74
	ldr	r0, [sp, #4]
	.loc	5 305 88                        @ ../../../../Library/StdDriver/src/bpwm.c:305:88
	lsls	r0, r0, #3
	.loc	5 305 70                        @ ../../../../Library/StdDriver/src/bpwm.c:305:70
	lsls	r3, r0
	.loc	5 305 10                        @ ../../../../Library/StdDriver/src/bpwm.c:305:10
	ldr	r1, [sp, #8]
	.loc	5 305 25                        @ ../../../../Library/StdDriver/src/bpwm.c:305:25
	ldr	r0, [r1, r2]
	orrs	r0, r3
	str	r0, [r1, r2]
	.loc	5 306 5 is_stmt 1               @ ../../../../Library/StdDriver/src/bpwm.c:306:5
	b	.LBB5_3
.Ltmp100:
.LBB5_2:
	.loc	5 309 62                        @ ../../../../Library/StdDriver/src/bpwm.c:309:62
	ldr	r0, [sp, #4]
	.loc	5 309 76 is_stmt 0              @ ../../../../Library/StdDriver/src/bpwm.c:309:76
	lsls	r0, r0, #3
	.loc	5 309 83                        @ ../../../../Library/StdDriver/src/bpwm.c:309:83
	subs	r0, #32
	movs	r3, #15
	.loc	5 309 57                        @ ../../../../Library/StdDriver/src/bpwm.c:309:57
	lsls	r3, r0
	.loc	5 309 10                        @ ../../../../Library/StdDriver/src/bpwm.c:309:10
	ldr	r1, [sp, #8]
	movs	r2, #252
	.loc	5 309 25                        @ ../../../../Library/StdDriver/src/bpwm.c:309:25
	ldr	r0, [r1, r2]
	bics	r0, r3
	str	r0, [r1, r2]
	.loc	5 310 56 is_stmt 1              @ ../../../../Library/StdDriver/src/bpwm.c:310:56
	ldr	r3, [sp]
	movs	r0, #128
	.loc	5 310 54 is_stmt 0              @ ../../../../Library/StdDriver/src/bpwm.c:310:54
	orrs	r3, r0
	.loc	5 310 75                        @ ../../../../Library/StdDriver/src/bpwm.c:310:75
	ldr	r0, [sp, #4]
	.loc	5 310 89                        @ ../../../../Library/StdDriver/src/bpwm.c:310:89
	lsls	r0, r0, #3
	.loc	5 310 96                        @ ../../../../Library/StdDriver/src/bpwm.c:310:96
	subs	r0, #32
	.loc	5 310 70                        @ ../../../../Library/StdDriver/src/bpwm.c:310:70
	lsls	r3, r0
	.loc	5 310 10                        @ ../../../../Library/StdDriver/src/bpwm.c:310:10
	ldr	r1, [sp, #8]
	.loc	5 310 25                        @ ../../../../Library/StdDriver/src/bpwm.c:310:25
	ldr	r0, [r1, r2]
	orrs	r0, r3
	str	r0, [r1, r2]
	b	.LBB5_3
.Ltmp101:
.LBB5_3:
	.loc	5 312 1 is_stmt 1               @ ../../../../Library/StdDriver/src/bpwm.c:312:1
	add	sp, #12
	bx	lr
.Ltmp102:
.Lfunc_end5:
	.size	BPWM_EnableADCTrigger, .Lfunc_end5-BPWM_EnableADCTrigger
	.cfi_endproc
	.cantunwind
	.fnend
                                        @ -- End function
	.section	.text.BPWM_DisableADCTrigger,"ax",%progbits
	.hidden	BPWM_DisableADCTrigger          @ -- Begin function BPWM_DisableADCTrigger
	.globl	BPWM_DisableADCTrigger
	.p2align	1
	.type	BPWM_DisableADCTrigger,%function
	.code	16                              @ @BPWM_DisableADCTrigger
	.thumb_func
BPWM_DisableADCTrigger:
.Lfunc_begin6:
	.loc	5 323 0                         @ ../../../../Library/StdDriver/src/bpwm.c:323:0
	.fnstart
	.cfi_startproc
@ %bb.0:
	.pad	#8
	sub	sp, #8
	.cfi_def_cfa_offset 8
	str	r0, [sp, #4]
	str	r1, [sp]
.Ltmp103:
	.loc	5 324 9 prologue_end            @ ../../../../Library/StdDriver/src/bpwm.c:324:9
	ldr	r0, [sp]
.Ltmp104:
	.loc	5 324 9 is_stmt 0               @ ../../../../Library/StdDriver/src/bpwm.c:324:9
	cmp	r0, #3
	bhi	.LBB6_2
	b	.LBB6_1
.LBB6_1:
.Ltmp105:
	.loc	5 326 58 is_stmt 1              @ ../../../../Library/StdDriver/src/bpwm.c:326:58
	ldr	r0, [sp]
	.loc	5 326 72 is_stmt 0              @ ../../../../Library/StdDriver/src/bpwm.c:326:72
	lsls	r0, r0, #3
	movs	r3, #128
	.loc	5 326 54                        @ ../../../../Library/StdDriver/src/bpwm.c:326:54
	lsls	r3, r0
	.loc	5 326 10                        @ ../../../../Library/StdDriver/src/bpwm.c:326:10
	ldr	r1, [sp, #4]
	movs	r2, #248
	.loc	5 326 25                        @ ../../../../Library/StdDriver/src/bpwm.c:326:25
	ldr	r0, [r1, r2]
	bics	r0, r3
	str	r0, [r1, r2]
	.loc	5 327 5 is_stmt 1               @ ../../../../Library/StdDriver/src/bpwm.c:327:5
	b	.LBB6_3
.Ltmp106:
.LBB6_2:
	.loc	5 330 59                        @ ../../../../Library/StdDriver/src/bpwm.c:330:59
	ldr	r0, [sp]
	.loc	5 330 73 is_stmt 0              @ ../../../../Library/StdDriver/src/bpwm.c:330:73
	lsls	r0, r0, #3
	.loc	5 330 80                        @ ../../../../Library/StdDriver/src/bpwm.c:330:80
	subs	r0, #32
	movs	r3, #128
	.loc	5 330 54                        @ ../../../../Library/StdDriver/src/bpwm.c:330:54
	lsls	r3, r0
	.loc	5 330 10                        @ ../../../../Library/StdDriver/src/bpwm.c:330:10
	ldr	r1, [sp, #4]
	movs	r2, #252
	.loc	5 330 25                        @ ../../../../Library/StdDriver/src/bpwm.c:330:25
	ldr	r0, [r1, r2]
	bics	r0, r3
	str	r0, [r1, r2]
	b	.LBB6_3
.Ltmp107:
.LBB6_3:
	.loc	5 332 1 is_stmt 1               @ ../../../../Library/StdDriver/src/bpwm.c:332:1
	add	sp, #8
	bx	lr
.Ltmp108:
.Lfunc_end6:
	.size	BPWM_DisableADCTrigger, .Lfunc_end6-BPWM_DisableADCTrigger
	.cfi_endproc
	.cantunwind
	.fnend
                                        @ -- End function
	.section	.text.BPWM_ClearADCTriggerFlag,"ax",%progbits
	.hidden	BPWM_ClearADCTriggerFlag        @ -- Begin function BPWM_ClearADCTriggerFlag
	.globl	BPWM_ClearADCTriggerFlag
	.p2align	1
	.type	BPWM_ClearADCTriggerFlag,%function
	.code	16                              @ @BPWM_ClearADCTriggerFlag
	.thumb_func
BPWM_ClearADCTriggerFlag:
.Lfunc_begin7:
	.loc	5 344 0                         @ ../../../../Library/StdDriver/src/bpwm.c:344:0
	.fnstart
	.cfi_startproc
@ %bb.0:
	.pad	#12
	sub	sp, #12
	.cfi_def_cfa_offset 12
	str	r0, [sp, #8]
	str	r1, [sp, #4]
	str	r2, [sp]
.Ltmp109:
	.loc	5 345 51 prologue_end           @ ../../../../Library/StdDriver/src/bpwm.c:345:51
	ldr	r1, [sp, #4]
	movs	r0, #1
	lsls	r0, r0, #16
	.loc	5 345 48 is_stmt 0              @ ../../../../Library/StdDriver/src/bpwm.c:345:48
	lsls	r0, r1
	.loc	5 345 6                         @ ../../../../Library/StdDriver/src/bpwm.c:345:6
	ldr	r1, [sp, #8]
	movw	r2, #288
	.loc	5 345 20                        @ ../../../../Library/StdDriver/src/bpwm.c:345:20
	str	r0, [r1, r2]
	.loc	5 346 1 is_stmt 1               @ ../../../../Library/StdDriver/src/bpwm.c:346:1
	add	sp, #12
	bx	lr
.Ltmp110:
.Lfunc_end7:
	.size	BPWM_ClearADCTriggerFlag, .Lfunc_end7-BPWM_ClearADCTriggerFlag
	.cfi_endproc
	.cantunwind
	.fnend
                                        @ -- End function
	.section	.text.BPWM_GetADCTriggerFlag,"ax",%progbits
	.hidden	BPWM_GetADCTriggerFlag          @ -- Begin function BPWM_GetADCTriggerFlag
	.globl	BPWM_GetADCTriggerFlag
	.p2align	1
	.type	BPWM_GetADCTriggerFlag,%function
	.code	16                              @ @BPWM_GetADCTriggerFlag
	.thumb_func
BPWM_GetADCTriggerFlag:
.Lfunc_begin8:
	.loc	5 359 0                         @ ../../../../Library/StdDriver/src/bpwm.c:359:0
	.fnstart
	.cfi_startproc
@ %bb.0:
	.pad	#8
	sub	sp, #8
	.cfi_def_cfa_offset 8
	str	r0, [sp, #4]
	str	r1, [sp]
.Ltmp111:
	.loc	5 360 15 prologue_end           @ ../../../../Library/StdDriver/src/bpwm.c:360:15
	ldr	r0, [sp, #4]
	movw	r1, #288
	.loc	5 360 22 is_stmt 0              @ ../../../../Library/StdDriver/src/bpwm.c:360:22
	ldr	r0, [r0, r1]
	.loc	5 360 60                        @ ../../../../Library/StdDriver/src/bpwm.c:360:60
	ldr	r1, [sp]
	.loc	5 360 13                        @ ../../../../Library/StdDriver/src/bpwm.c:360:13
	lsrs	r0, r1
	movs	r1, #1
	lsls	r1, r1, #16
	ands	r0, r1
	lsrs	r0, r0, #16
	.loc	5 360 5                         @ ../../../../Library/StdDriver/src/bpwm.c:360:5
	add	sp, #8
	bx	lr
.Ltmp112:
.Lfunc_end8:
	.size	BPWM_GetADCTriggerFlag, .Lfunc_end8-BPWM_GetADCTriggerFlag
	.cfi_endproc
	.cantunwind
	.fnend
                                        @ -- End function
	.section	.text.BPWM_EnableCapture,"ax",%progbits
	.hidden	BPWM_EnableCapture              @ -- Begin function BPWM_EnableCapture
	.globl	BPWM_EnableCapture
	.p2align	1
	.type	BPWM_EnableCapture,%function
	.code	16                              @ @BPWM_EnableCapture
	.thumb_func
BPWM_EnableCapture:
.Lfunc_begin9:
	.loc	5 373 0 is_stmt 1               @ ../../../../Library/StdDriver/src/bpwm.c:373:0
	.fnstart
	.cfi_startproc
@ %bb.0:
	.pad	#8
	sub	sp, #8
	.cfi_def_cfa_offset 8
	str	r0, [sp, #4]
	str	r1, [sp]
.Ltmp113:
	.loc	5 374 24 prologue_end           @ ../../../../Library/StdDriver/src/bpwm.c:374:24
	ldr	r3, [sp]
	.loc	5 374 6 is_stmt 0               @ ../../../../Library/StdDriver/src/bpwm.c:374:6
	ldr	r1, [sp, #4]
	movw	r2, #512
	.loc	5 374 21                        @ ../../../../Library/StdDriver/src/bpwm.c:374:21
	ldr	r0, [r1, r2]
	orrs	r0, r3
	str	r0, [r1, r2]
	.loc	5 375 23 is_stmt 1              @ ../../../../Library/StdDriver/src/bpwm.c:375:23
	ldr	r3, [sp]
	.loc	5 375 6 is_stmt 0               @ ../../../../Library/StdDriver/src/bpwm.c:375:6
	ldr	r1, [sp, #4]
	movw	r2, #516
	.loc	5 375 20                        @ ../../../../Library/StdDriver/src/bpwm.c:375:20
	ldr	r0, [r1, r2]
	orrs	r0, r3
	str	r0, [r1, r2]
	.loc	5 376 1 is_stmt 1               @ ../../../../Library/StdDriver/src/bpwm.c:376:1
	add	sp, #8
	bx	lr
.Ltmp114:
.Lfunc_end9:
	.size	BPWM_EnableCapture, .Lfunc_end9-BPWM_EnableCapture
	.cfi_endproc
	.cantunwind
	.fnend
                                        @ -- End function
	.section	.text.BPWM_DisableCapture,"ax",%progbits
	.hidden	BPWM_DisableCapture             @ -- Begin function BPWM_DisableCapture
	.globl	BPWM_DisableCapture
	.p2align	1
	.type	BPWM_DisableCapture,%function
	.code	16                              @ @BPWM_DisableCapture
	.thumb_func
BPWM_DisableCapture:
.Lfunc_begin10:
	.loc	5 388 0                         @ ../../../../Library/StdDriver/src/bpwm.c:388:0
	.fnstart
	.cfi_startproc
@ %bb.0:
	.pad	#8
	sub	sp, #8
	.cfi_def_cfa_offset 8
	str	r0, [sp, #4]
	str	r1, [sp]
.Ltmp115:
	.loc	5 389 25 prologue_end           @ ../../../../Library/StdDriver/src/bpwm.c:389:25
	ldr	r3, [sp]
	.loc	5 389 6 is_stmt 0               @ ../../../../Library/StdDriver/src/bpwm.c:389:6
	ldr	r1, [sp, #4]
	movw	r2, #512
	.loc	5 389 21                        @ ../../../../Library/StdDriver/src/bpwm.c:389:21
	ldr	r0, [r1, r2]
	bics	r0, r3
	str	r0, [r1, r2]
	.loc	5 390 24 is_stmt 1              @ ../../../../Library/StdDriver/src/bpwm.c:390:24
	ldr	r3, [sp]
	.loc	5 390 6 is_stmt 0               @ ../../../../Library/StdDriver/src/bpwm.c:390:6
	ldr	r1, [sp, #4]
	movw	r2, #516
	.loc	5 390 20                        @ ../../../../Library/StdDriver/src/bpwm.c:390:20
	ldr	r0, [r1, r2]
	bics	r0, r3
	str	r0, [r1, r2]
	.loc	5 391 1 is_stmt 1               @ ../../../../Library/StdDriver/src/bpwm.c:391:1
	add	sp, #8
	bx	lr
.Ltmp116:
.Lfunc_end10:
	.size	BPWM_DisableCapture, .Lfunc_end10-BPWM_DisableCapture
	.cfi_endproc
	.cantunwind
	.fnend
                                        @ -- End function
	.section	.text.BPWM_EnableOutput,"ax",%progbits
	.hidden	BPWM_EnableOutput               @ -- Begin function BPWM_EnableOutput
	.globl	BPWM_EnableOutput
	.p2align	1
	.type	BPWM_EnableOutput,%function
	.code	16                              @ @BPWM_EnableOutput
	.thumb_func
BPWM_EnableOutput:
.Lfunc_begin11:
	.loc	5 403 0                         @ ../../../../Library/StdDriver/src/bpwm.c:403:0
	.fnstart
	.cfi_startproc
@ %bb.0:
	.pad	#8
	sub	sp, #8
	.cfi_def_cfa_offset 8
	str	r0, [sp, #4]
	str	r1, [sp]
.Ltmp117:
	.loc	5 404 21 prologue_end           @ ../../../../Library/StdDriver/src/bpwm.c:404:21
	ldr	r3, [sp]
	.loc	5 404 6 is_stmt 0               @ ../../../../Library/StdDriver/src/bpwm.c:404:6
	ldr	r1, [sp, #4]
	movs	r2, #216
	.loc	5 404 18                        @ ../../../../Library/StdDriver/src/bpwm.c:404:18
	ldr	r0, [r1, r2]
	orrs	r0, r3
	str	r0, [r1, r2]
	.loc	5 405 1 is_stmt 1               @ ../../../../Library/StdDriver/src/bpwm.c:405:1
	add	sp, #8
	bx	lr
.Ltmp118:
.Lfunc_end11:
	.size	BPWM_EnableOutput, .Lfunc_end11-BPWM_EnableOutput
	.cfi_endproc
	.cantunwind
	.fnend
                                        @ -- End function
	.section	.text.BPWM_DisableOutput,"ax",%progbits
	.hidden	BPWM_DisableOutput              @ -- Begin function BPWM_DisableOutput
	.globl	BPWM_DisableOutput
	.p2align	1
	.type	BPWM_DisableOutput,%function
	.code	16                              @ @BPWM_DisableOutput
	.thumb_func
BPWM_DisableOutput:
.Lfunc_begin12:
	.loc	5 417 0                         @ ../../../../Library/StdDriver/src/bpwm.c:417:0
	.fnstart
	.cfi_startproc
@ %bb.0:
	.pad	#8
	sub	sp, #8
	.cfi_def_cfa_offset 8
	str	r0, [sp, #4]
	str	r1, [sp]
.Ltmp119:
	.loc	5 418 22 prologue_end           @ ../../../../Library/StdDriver/src/bpwm.c:418:22
	ldr	r3, [sp]
	.loc	5 418 6 is_stmt 0               @ ../../../../Library/StdDriver/src/bpwm.c:418:6
	ldr	r1, [sp, #4]
	movs	r2, #216
	.loc	5 418 18                        @ ../../../../Library/StdDriver/src/bpwm.c:418:18
	ldr	r0, [r1, r2]
	bics	r0, r3
	str	r0, [r1, r2]
	.loc	5 419 1 is_stmt 1               @ ../../../../Library/StdDriver/src/bpwm.c:419:1
	add	sp, #8
	bx	lr
.Ltmp120:
.Lfunc_end12:
	.size	BPWM_DisableOutput, .Lfunc_end12-BPWM_DisableOutput
	.cfi_endproc
	.cantunwind
	.fnend
                                        @ -- End function
	.section	.text.BPWM_EnableCaptureInt,"ax",%progbits
	.hidden	BPWM_EnableCaptureInt           @ -- Begin function BPWM_EnableCaptureInt
	.globl	BPWM_EnableCaptureInt
	.p2align	1
	.type	BPWM_EnableCaptureInt,%function
	.code	16                              @ @BPWM_EnableCaptureInt
	.thumb_func
BPWM_EnableCaptureInt:
.Lfunc_begin13:
	.loc	5 433 0                         @ ../../../../Library/StdDriver/src/bpwm.c:433:0
	.fnstart
	.cfi_startproc
@ %bb.0:
	.pad	#12
	sub	sp, #12
	.cfi_def_cfa_offset 12
	str	r0, [sp, #8]
	str	r1, [sp, #4]
	str	r2, [sp]
.Ltmp121:
	.loc	5 434 24 prologue_end           @ ../../../../Library/StdDriver/src/bpwm.c:434:24
	ldr	r3, [sp]
	.loc	5 434 35 is_stmt 0              @ ../../../../Library/StdDriver/src/bpwm.c:434:35
	ldr	r0, [sp, #4]
	.loc	5 434 32                        @ ../../../../Library/StdDriver/src/bpwm.c:434:32
	lsls	r3, r0
	.loc	5 434 6                         @ ../../../../Library/StdDriver/src/bpwm.c:434:6
	ldr	r1, [sp, #8]
	movw	r2, #592
	.loc	5 434 20                        @ ../../../../Library/StdDriver/src/bpwm.c:434:20
	ldr	r0, [r1, r2]
	orrs	r0, r3
	str	r0, [r1, r2]
	.loc	5 435 1 is_stmt 1               @ ../../../../Library/StdDriver/src/bpwm.c:435:1
	add	sp, #12
	bx	lr
.Ltmp122:
.Lfunc_end13:
	.size	BPWM_EnableCaptureInt, .Lfunc_end13-BPWM_EnableCaptureInt
	.cfi_endproc
	.cantunwind
	.fnend
                                        @ -- End function
	.section	.text.BPWM_DisableCaptureInt,"ax",%progbits
	.hidden	BPWM_DisableCaptureInt          @ -- Begin function BPWM_DisableCaptureInt
	.globl	BPWM_DisableCaptureInt
	.p2align	1
	.type	BPWM_DisableCaptureInt,%function
	.code	16                              @ @BPWM_DisableCaptureInt
	.thumb_func
BPWM_DisableCaptureInt:
.Lfunc_begin14:
	.loc	5 449 0                         @ ../../../../Library/StdDriver/src/bpwm.c:449:0
	.fnstart
	.cfi_startproc
@ %bb.0:
	.pad	#12
	sub	sp, #12
	.cfi_def_cfa_offset 12
	str	r0, [sp, #8]
	str	r1, [sp, #4]
	str	r2, [sp]
.Ltmp123:
	.loc	5 450 25 prologue_end           @ ../../../../Library/StdDriver/src/bpwm.c:450:25
	ldr	r3, [sp]
	.loc	5 450 36 is_stmt 0              @ ../../../../Library/StdDriver/src/bpwm.c:450:36
	ldr	r0, [sp, #4]
	.loc	5 450 33                        @ ../../../../Library/StdDriver/src/bpwm.c:450:33
	lsls	r3, r0
	.loc	5 450 6                         @ ../../../../Library/StdDriver/src/bpwm.c:450:6
	ldr	r1, [sp, #8]
	movw	r2, #592
	.loc	5 450 20                        @ ../../../../Library/StdDriver/src/bpwm.c:450:20
	ldr	r0, [r1, r2]
	bics	r0, r3
	str	r0, [r1, r2]
	.loc	5 451 1 is_stmt 1               @ ../../../../Library/StdDriver/src/bpwm.c:451:1
	add	sp, #12
	bx	lr
.Ltmp124:
.Lfunc_end14:
	.size	BPWM_DisableCaptureInt, .Lfunc_end14-BPWM_DisableCaptureInt
	.cfi_endproc
	.cantunwind
	.fnend
                                        @ -- End function
	.section	.text.BPWM_ClearCaptureIntFlag,"ax",%progbits
	.hidden	BPWM_ClearCaptureIntFlag        @ -- Begin function BPWM_ClearCaptureIntFlag
	.globl	BPWM_ClearCaptureIntFlag
	.p2align	1
	.type	BPWM_ClearCaptureIntFlag,%function
	.code	16                              @ @BPWM_ClearCaptureIntFlag
	.thumb_func
BPWM_ClearCaptureIntFlag:
.Lfunc_begin15:
	.loc	5 465 0                         @ ../../../../Library/StdDriver/src/bpwm.c:465:0
	.fnstart
	.cfi_startproc
@ %bb.0:
	.pad	#12
	sub	sp, #12
	.cfi_def_cfa_offset 12
	str	r0, [sp, #8]
	str	r1, [sp, #4]
	str	r2, [sp]
.Ltmp125:
	.loc	5 466 22 prologue_end           @ ../../../../Library/StdDriver/src/bpwm.c:466:22
	ldr	r0, [sp]
	.loc	5 466 33 is_stmt 0              @ ../../../../Library/StdDriver/src/bpwm.c:466:33
	ldr	r1, [sp, #4]
	.loc	5 466 30                        @ ../../../../Library/StdDriver/src/bpwm.c:466:30
	lsls	r0, r1
	.loc	5 466 6                         @ ../../../../Library/StdDriver/src/bpwm.c:466:6
	ldr	r1, [sp, #8]
	movw	r2, #596
	.loc	5 466 19                        @ ../../../../Library/StdDriver/src/bpwm.c:466:19
	str	r0, [r1, r2]
	.loc	5 467 1 is_stmt 1               @ ../../../../Library/StdDriver/src/bpwm.c:467:1
	add	sp, #12
	bx	lr
.Ltmp126:
.Lfunc_end15:
	.size	BPWM_ClearCaptureIntFlag, .Lfunc_end15-BPWM_ClearCaptureIntFlag
	.cfi_endproc
	.cantunwind
	.fnend
                                        @ -- End function
	.section	.text.BPWM_GetCaptureIntFlag,"ax",%progbits
	.hidden	BPWM_GetCaptureIntFlag          @ -- Begin function BPWM_GetCaptureIntFlag
	.globl	BPWM_GetCaptureIntFlag
	.p2align	1
	.type	BPWM_GetCaptureIntFlag,%function
	.code	16                              @ @BPWM_GetCaptureIntFlag
	.thumb_func
BPWM_GetCaptureIntFlag:
.Lfunc_begin16:
	.loc	5 482 0                         @ ../../../../Library/StdDriver/src/bpwm.c:482:0
	.fnstart
	.cfi_startproc
@ %bb.0:
	.pad	#16
	sub	sp, #16
	.cfi_def_cfa_offset 16
	str	r0, [sp, #12]
	str	r1, [sp, #8]
.Ltmp127:
	.loc	5 484 22 prologue_end           @ ../../../../Library/StdDriver/src/bpwm.c:484:22
	ldr	r0, [sp, #12]
	movw	r1, #596
	.loc	5 484 29 is_stmt 0              @ ../../../../Library/StdDriver/src/bpwm.c:484:29
	ldr	r0, [r0, r1]
	.loc	5 484 64                        @ ../../../../Library/StdDriver/src/bpwm.c:484:64
	ldr	r2, [sp, #8]
	.loc	5 484 20                        @ ../../../../Library/StdDriver/src/bpwm.c:484:20
	lsrs	r0, r2
	movw	r2, #256
	ands	r0, r2
	lsrs	r0, r0, #8
	.loc	5 484 17                        @ ../../../../Library/StdDriver/src/bpwm.c:484:17
	str	r0, [sp, #4]
	.loc	5 485 22 is_stmt 1              @ ../../../../Library/StdDriver/src/bpwm.c:485:22
	ldr	r0, [sp, #12]
	.loc	5 485 29 is_stmt 0              @ ../../../../Library/StdDriver/src/bpwm.c:485:29
	ldr	r0, [r0, r1]
	.loc	5 485 64                        @ ../../../../Library/StdDriver/src/bpwm.c:485:64
	ldr	r1, [sp, #8]
	.loc	5 485 20                        @ ../../../../Library/StdDriver/src/bpwm.c:485:20
	lsrs	r0, r1
	movs	r1, #1
	ands	r0, r1
	.loc	5 485 17                        @ ../../../../Library/StdDriver/src/bpwm.c:485:17
	str	r0, [sp]
	.loc	5 486 14 is_stmt 1              @ ../../../../Library/StdDriver/src/bpwm.c:486:14
	ldr	r0, [sp, #4]
	.loc	5 486 26 is_stmt 0              @ ../../../../Library/StdDriver/src/bpwm.c:486:26
	lsls	r0, r0, #1
	.loc	5 486 36                        @ ../../../../Library/StdDriver/src/bpwm.c:486:36
	ldr	r1, [sp]
	.loc	5 486 34                        @ ../../../../Library/StdDriver/src/bpwm.c:486:34
	orrs	r0, r1
	.loc	5 486 5                         @ ../../../../Library/StdDriver/src/bpwm.c:486:5
	add	sp, #16
	bx	lr
.Ltmp128:
.Lfunc_end16:
	.size	BPWM_GetCaptureIntFlag, .Lfunc_end16-BPWM_GetCaptureIntFlag
	.cfi_endproc
	.cantunwind
	.fnend
                                        @ -- End function
	.section	.text.BPWM_EnableDutyInt,"ax",%progbits
	.hidden	BPWM_EnableDutyInt              @ -- Begin function BPWM_EnableDutyInt
	.globl	BPWM_EnableDutyInt
	.p2align	1
	.type	BPWM_EnableDutyInt,%function
	.code	16                              @ @BPWM_EnableDutyInt
	.thumb_func
BPWM_EnableDutyInt:
.Lfunc_begin17:
	.loc	5 501 0 is_stmt 1               @ ../../../../Library/StdDriver/src/bpwm.c:501:0
	.fnstart
	.cfi_startproc
@ %bb.0:
	.pad	#12
	sub	sp, #12
	.cfi_def_cfa_offset 12
	str	r0, [sp, #8]
	str	r1, [sp, #4]
	str	r2, [sp]
.Ltmp129:
	.loc	5 502 23 prologue_end           @ ../../../../Library/StdDriver/src/bpwm.c:502:23
	ldr	r3, [sp]
	.loc	5 502 41 is_stmt 0              @ ../../../../Library/StdDriver/src/bpwm.c:502:41
	ldr	r0, [sp, #4]
	.loc	5 502 38                        @ ../../../../Library/StdDriver/src/bpwm.c:502:38
	lsls	r3, r0
	.loc	5 502 6                         @ ../../../../Library/StdDriver/src/bpwm.c:502:6
	ldr	r1, [sp, #8]
	movs	r2, #224
	.loc	5 502 19                        @ ../../../../Library/StdDriver/src/bpwm.c:502:19
	ldr	r0, [r1, r2]
	orrs	r0, r3
	str	r0, [r1, r2]
	.loc	5 503 1 is_stmt 1               @ ../../../../Library/StdDriver/src/bpwm.c:503:1
	add	sp, #12
	bx	lr
.Ltmp130:
.Lfunc_end17:
	.size	BPWM_EnableDutyInt, .Lfunc_end17-BPWM_EnableDutyInt
	.cfi_endproc
	.cantunwind
	.fnend
                                        @ -- End function
	.section	.text.BPWM_DisableDutyInt,"ax",%progbits
	.hidden	BPWM_DisableDutyInt             @ -- Begin function BPWM_DisableDutyInt
	.globl	BPWM_DisableDutyInt
	.p2align	2
	.type	BPWM_DisableDutyInt,%function
	.code	16                              @ @BPWM_DisableDutyInt
	.thumb_func
BPWM_DisableDutyInt:
.Lfunc_begin18:
	.loc	5 514 0                         @ ../../../../Library/StdDriver/src/bpwm.c:514:0
	.fnstart
	.cfi_startproc
@ %bb.0:
	.pad	#8
	sub	sp, #8
	.cfi_def_cfa_offset 8
	str	r0, [sp, #4]
	str	r1, [sp]
.Ltmp131:
	.loc	5 515 109 prologue_end          @ ../../../../Library/StdDriver/src/bpwm.c:515:109
	ldr	r0, [sp]
	ldr	r3, __arm_cp.18_0
	.loc	5 515 106 is_stmt 0             @ ../../../../Library/StdDriver/src/bpwm.c:515:106
	lsls	r3, r0
	.loc	5 515 6                         @ ../../../../Library/StdDriver/src/bpwm.c:515:6
	ldr	r1, [sp, #4]
	movs	r2, #224
	.loc	5 515 19                        @ ../../../../Library/StdDriver/src/bpwm.c:515:19
	ldr	r0, [r1, r2]
	bics	r0, r3
	str	r0, [r1, r2]
	.loc	5 516 1 is_stmt 1               @ ../../../../Library/StdDriver/src/bpwm.c:516:1
	add	sp, #8
	bx	lr
.Ltmp132:
	.p2align	2
@ %bb.1:
	.loc	5 0 1 is_stmt 0                 @ ../../../../Library/StdDriver/src/bpwm.c:0:1
__arm_cp.18_0:
	.long	16842752                        @ 0x1010000
.Lcpi_end9:
	.size	__arm_cp.18_0, .Lcpi_end9-__arm_cp.18_0
.Lfunc_end18:
	.size	BPWM_DisableDutyInt, .Lfunc_end18-BPWM_DisableDutyInt
	.cfi_endproc
	.cantunwind
	.fnend
                                        @ -- End function
	.section	.text.BPWM_ClearDutyIntFlag,"ax",%progbits
	.hidden	BPWM_ClearDutyIntFlag           @ -- Begin function BPWM_ClearDutyIntFlag
	.globl	BPWM_ClearDutyIntFlag
	.p2align	2
	.type	BPWM_ClearDutyIntFlag,%function
	.code	16                              @ @BPWM_ClearDutyIntFlag
	.thumb_func
BPWM_ClearDutyIntFlag:
.Lfunc_begin19:
	.loc	5 527 0 is_stmt 1               @ ../../../../Library/StdDriver/src/bpwm.c:527:0
	.fnstart
	.cfi_startproc
@ %bb.0:
	.pad	#8
	sub	sp, #8
	.cfi_def_cfa_offset 8
	str	r0, [sp, #4]
	str	r1, [sp]
.Ltmp133:
	.loc	5 528 77 prologue_end           @ ../../../../Library/StdDriver/src/bpwm.c:528:77
	ldr	r1, [sp]
	ldr	r0, __arm_cp.19_0
	.loc	5 528 74 is_stmt 0              @ ../../../../Library/StdDriver/src/bpwm.c:528:74
	lsls	r0, r1
	.loc	5 528 6                         @ ../../../../Library/StdDriver/src/bpwm.c:528:6
	ldr	r1, [sp, #4]
	movs	r2, #232
	.loc	5 528 20                        @ ../../../../Library/StdDriver/src/bpwm.c:528:20
	str	r0, [r1, r2]
	.loc	5 529 1 is_stmt 1               @ ../../../../Library/StdDriver/src/bpwm.c:529:1
	add	sp, #8
	bx	lr
.Ltmp134:
	.p2align	2
@ %bb.1:
	.loc	5 0 1 is_stmt 0                 @ ../../../../Library/StdDriver/src/bpwm.c:0:1
__arm_cp.19_0:
	.long	16842752                        @ 0x1010000
.Lcpi_end10:
	.size	__arm_cp.19_0, .Lcpi_end10-__arm_cp.19_0
.Lfunc_end19:
	.size	BPWM_ClearDutyIntFlag, .Lfunc_end19-BPWM_ClearDutyIntFlag
	.cfi_endproc
	.cantunwind
	.fnend
                                        @ -- End function
	.section	.text.BPWM_GetDutyIntFlag,"ax",%progbits
	.hidden	BPWM_GetDutyIntFlag             @ -- Begin function BPWM_GetDutyIntFlag
	.globl	BPWM_GetDutyIntFlag
	.p2align	2
	.type	BPWM_GetDutyIntFlag,%function
	.code	16                              @ @BPWM_GetDutyIntFlag
	.thumb_func
BPWM_GetDutyIntFlag:
.Lfunc_begin20:
	.loc	5 543 0 is_stmt 1               @ ../../../../Library/StdDriver/src/bpwm.c:543:0
	.fnstart
	.cfi_startproc
@ %bb.0:
	.pad	#8
	sub	sp, #8
	.cfi_def_cfa_offset 8
	str	r0, [sp, #4]
	str	r1, [sp]
.Ltmp135:
	.loc	5 544 16 prologue_end           @ ../../../../Library/StdDriver/src/bpwm.c:544:16
	ldr	r0, [sp, #4]
	movs	r1, #232
	.loc	5 544 23 is_stmt 0              @ ../../../../Library/StdDriver/src/bpwm.c:544:23
	ldr	r0, [r0, r1]
	.loc	5 544 88                        @ ../../../../Library/StdDriver/src/bpwm.c:544:88
	ldr	r1, [sp]
	.loc	5 544 13                        @ ../../../../Library/StdDriver/src/bpwm.c:544:13
	lsrs	r0, r1
	ldr	r1, __arm_cp.20_0
	ands	r0, r1
	subs	r1, r0, #1
	sbcs	r0, r1
	.loc	5 544 5                         @ ../../../../Library/StdDriver/src/bpwm.c:544:5
	add	sp, #8
	bx	lr
.Ltmp136:
	.p2align	2
@ %bb.1:
	.loc	5 0 5                           @ ../../../../Library/StdDriver/src/bpwm.c:0:5
__arm_cp.20_0:
	.long	16842752                        @ 0x1010000
.Lcpi_end11:
	.size	__arm_cp.20_0, .Lcpi_end11-__arm_cp.20_0
.Lfunc_end20:
	.size	BPWM_GetDutyIntFlag, .Lfunc_end20-BPWM_GetDutyIntFlag
	.cfi_endproc
	.cantunwind
	.fnend
                                        @ -- End function
	.section	.text.BPWM_EnablePeriodInt,"ax",%progbits
	.hidden	BPWM_EnablePeriodInt            @ -- Begin function BPWM_EnablePeriodInt
	.globl	BPWM_EnablePeriodInt
	.p2align	1
	.type	BPWM_EnablePeriodInt,%function
	.code	16                              @ @BPWM_EnablePeriodInt
	.thumb_func
BPWM_EnablePeriodInt:
.Lfunc_begin21:
	.loc	5 558 0 is_stmt 1               @ ../../../../Library/StdDriver/src/bpwm.c:558:0
	.fnstart
	.cfi_startproc
@ %bb.0:
	.pad	#12
	sub	sp, #12
	.cfi_def_cfa_offset 12
	str	r0, [sp, #8]
	str	r1, [sp, #4]
	str	r2, [sp]
.Ltmp137:
	.loc	5 559 6 prologue_end            @ ../../../../Library/StdDriver/src/bpwm.c:559:6
	ldr	r1, [sp, #8]
	movs	r2, #224
	.loc	5 559 19 is_stmt 0              @ ../../../../Library/StdDriver/src/bpwm.c:559:19
	ldr	r0, [r1, r2]
	movw	r3, #256
	orrs	r0, r3
	str	r0, [r1, r2]
	.loc	5 560 1 is_stmt 1               @ ../../../../Library/StdDriver/src/bpwm.c:560:1
	add	sp, #12
	bx	lr
.Ltmp138:
.Lfunc_end21:
	.size	BPWM_EnablePeriodInt, .Lfunc_end21-BPWM_EnablePeriodInt
	.cfi_endproc
	.cantunwind
	.fnend
                                        @ -- End function
	.section	.text.BPWM_DisablePeriodInt,"ax",%progbits
	.hidden	BPWM_DisablePeriodInt           @ -- Begin function BPWM_DisablePeriodInt
	.globl	BPWM_DisablePeriodInt
	.p2align	1
	.type	BPWM_DisablePeriodInt,%function
	.code	16                              @ @BPWM_DisablePeriodInt
	.thumb_func
BPWM_DisablePeriodInt:
.Lfunc_begin22:
	.loc	5 572 0                         @ ../../../../Library/StdDriver/src/bpwm.c:572:0
	.fnstart
	.cfi_startproc
@ %bb.0:
	.pad	#8
	sub	sp, #8
	.cfi_def_cfa_offset 8
	str	r0, [sp, #4]
	str	r1, [sp]
.Ltmp139:
	.loc	5 573 6 prologue_end            @ ../../../../Library/StdDriver/src/bpwm.c:573:6
	ldr	r1, [sp, #4]
	movs	r2, #224
	.loc	5 573 19 is_stmt 0              @ ../../../../Library/StdDriver/src/bpwm.c:573:19
	ldr	r0, [r1, r2]
	movw	r3, #256
	bics	r0, r3
	str	r0, [r1, r2]
	.loc	5 574 1 is_stmt 1               @ ../../../../Library/StdDriver/src/bpwm.c:574:1
	add	sp, #8
	bx	lr
.Ltmp140:
.Lfunc_end22:
	.size	BPWM_DisablePeriodInt, .Lfunc_end22-BPWM_DisablePeriodInt
	.cfi_endproc
	.cantunwind
	.fnend
                                        @ -- End function
	.section	.text.BPWM_ClearPeriodIntFlag,"ax",%progbits
	.hidden	BPWM_ClearPeriodIntFlag         @ -- Begin function BPWM_ClearPeriodIntFlag
	.globl	BPWM_ClearPeriodIntFlag
	.p2align	1
	.type	BPWM_ClearPeriodIntFlag,%function
	.code	16                              @ @BPWM_ClearPeriodIntFlag
	.thumb_func
BPWM_ClearPeriodIntFlag:
.Lfunc_begin23:
	.loc	5 586 0                         @ ../../../../Library/StdDriver/src/bpwm.c:586:0
	.fnstart
	.cfi_startproc
@ %bb.0:
	.pad	#8
	sub	sp, #8
	.cfi_def_cfa_offset 8
	str	r0, [sp, #4]
	str	r1, [sp]
.Ltmp141:
	.loc	5 587 6 prologue_end            @ ../../../../Library/StdDriver/src/bpwm.c:587:6
	ldr	r1, [sp, #4]
	movs	r2, #232
	movw	r0, #256
	.loc	5 587 20 is_stmt 0              @ ../../../../Library/StdDriver/src/bpwm.c:587:20
	str	r0, [r1, r2]
	.loc	5 588 1 is_stmt 1               @ ../../../../Library/StdDriver/src/bpwm.c:588:1
	add	sp, #8
	bx	lr
.Ltmp142:
.Lfunc_end23:
	.size	BPWM_ClearPeriodIntFlag, .Lfunc_end23-BPWM_ClearPeriodIntFlag
	.cfi_endproc
	.cantunwind
	.fnend
                                        @ -- End function
	.section	.text.BPWM_GetPeriodIntFlag,"ax",%progbits
	.hidden	BPWM_GetPeriodIntFlag           @ -- Begin function BPWM_GetPeriodIntFlag
	.globl	BPWM_GetPeriodIntFlag
	.p2align	1
	.type	BPWM_GetPeriodIntFlag,%function
	.code	16                              @ @BPWM_GetPeriodIntFlag
	.thumb_func
BPWM_GetPeriodIntFlag:
.Lfunc_begin24:
	.loc	5 603 0                         @ ../../../../Library/StdDriver/src/bpwm.c:603:0
	.fnstart
	.cfi_startproc
@ %bb.0:
	.pad	#8
	sub	sp, #8
	.cfi_def_cfa_offset 8
	str	r0, [sp, #4]
	str	r1, [sp]
.Ltmp143:
	.loc	5 604 15 prologue_end           @ ../../../../Library/StdDriver/src/bpwm.c:604:15
	ldr	r0, [sp, #4]
	movs	r1, #232
	.loc	5 604 22 is_stmt 0              @ ../../../../Library/StdDriver/src/bpwm.c:604:22
	ldr	r0, [r0, r1]
	movw	r1, #256
	.loc	5 604 29                        @ ../../../../Library/StdDriver/src/bpwm.c:604:29
	ands	r0, r1
	.loc	5 604 13                        @ ../../../../Library/StdDriver/src/bpwm.c:604:13
	lsrs	r0, r0, #8
	.loc	5 604 5                         @ ../../../../Library/StdDriver/src/bpwm.c:604:5
	add	sp, #8
	bx	lr
.Ltmp144:
.Lfunc_end24:
	.size	BPWM_GetPeriodIntFlag, .Lfunc_end24-BPWM_GetPeriodIntFlag
	.cfi_endproc
	.cantunwind
	.fnend
                                        @ -- End function
	.section	.text.BPWM_EnableZeroInt,"ax",%progbits
	.hidden	BPWM_EnableZeroInt              @ -- Begin function BPWM_EnableZeroInt
	.globl	BPWM_EnableZeroInt
	.p2align	1
	.type	BPWM_EnableZeroInt,%function
	.code	16                              @ @BPWM_EnableZeroInt
	.thumb_func
BPWM_EnableZeroInt:
.Lfunc_begin25:
	.loc	5 617 0 is_stmt 1               @ ../../../../Library/StdDriver/src/bpwm.c:617:0
	.fnstart
	.cfi_startproc
@ %bb.0:
	.pad	#8
	sub	sp, #8
	.cfi_def_cfa_offset 8
	str	r0, [sp, #4]
	str	r1, [sp]
.Ltmp145:
	.loc	5 618 6 prologue_end            @ ../../../../Library/StdDriver/src/bpwm.c:618:6
	ldr	r1, [sp, #4]
	movs	r2, #224
	.loc	5 618 19 is_stmt 0              @ ../../../../Library/StdDriver/src/bpwm.c:618:19
	ldr	r0, [r1, r2]
	movs	r3, #1
	orrs	r0, r3
	str	r0, [r1, r2]
	.loc	5 619 1 is_stmt 1               @ ../../../../Library/StdDriver/src/bpwm.c:619:1
	add	sp, #8
	bx	lr
.Ltmp146:
.Lfunc_end25:
	.size	BPWM_EnableZeroInt, .Lfunc_end25-BPWM_EnableZeroInt
	.cfi_endproc
	.cantunwind
	.fnend
                                        @ -- End function
	.section	.text.BPWM_DisableZeroInt,"ax",%progbits
	.hidden	BPWM_DisableZeroInt             @ -- Begin function BPWM_DisableZeroInt
	.globl	BPWM_DisableZeroInt
	.p2align	1
	.type	BPWM_DisableZeroInt,%function
	.code	16                              @ @BPWM_DisableZeroInt
	.thumb_func
BPWM_DisableZeroInt:
.Lfunc_begin26:
	.loc	5 631 0                         @ ../../../../Library/StdDriver/src/bpwm.c:631:0
	.fnstart
	.cfi_startproc
@ %bb.0:
	.pad	#8
	sub	sp, #8
	.cfi_def_cfa_offset 8
	str	r0, [sp, #4]
	str	r1, [sp]
.Ltmp147:
	.loc	5 632 6 prologue_end            @ ../../../../Library/StdDriver/src/bpwm.c:632:6
	ldr	r1, [sp, #4]
	movs	r2, #224
	.loc	5 632 19 is_stmt 0              @ ../../../../Library/StdDriver/src/bpwm.c:632:19
	ldr	r0, [r1, r2]
	movs	r3, #1
	bics	r0, r3
	str	r0, [r1, r2]
	.loc	5 633 1 is_stmt 1               @ ../../../../Library/StdDriver/src/bpwm.c:633:1
	add	sp, #8
	bx	lr
.Ltmp148:
.Lfunc_end26:
	.size	BPWM_DisableZeroInt, .Lfunc_end26-BPWM_DisableZeroInt
	.cfi_endproc
	.cantunwind
	.fnend
                                        @ -- End function
	.section	.text.BPWM_ClearZeroIntFlag,"ax",%progbits
	.hidden	BPWM_ClearZeroIntFlag           @ -- Begin function BPWM_ClearZeroIntFlag
	.globl	BPWM_ClearZeroIntFlag
	.p2align	1
	.type	BPWM_ClearZeroIntFlag,%function
	.code	16                              @ @BPWM_ClearZeroIntFlag
	.thumb_func
BPWM_ClearZeroIntFlag:
.Lfunc_begin27:
	.loc	5 645 0                         @ ../../../../Library/StdDriver/src/bpwm.c:645:0
	.fnstart
	.cfi_startproc
@ %bb.0:
	.pad	#8
	sub	sp, #8
	.cfi_def_cfa_offset 8
	str	r0, [sp, #4]
	str	r1, [sp]
.Ltmp149:
	.loc	5 646 6 prologue_end            @ ../../../../Library/StdDriver/src/bpwm.c:646:6
	ldr	r1, [sp, #4]
	movs	r2, #232
	movs	r0, #1
	.loc	5 646 20 is_stmt 0              @ ../../../../Library/StdDriver/src/bpwm.c:646:20
	str	r0, [r1, r2]
	.loc	5 647 1 is_stmt 1               @ ../../../../Library/StdDriver/src/bpwm.c:647:1
	add	sp, #8
	bx	lr
.Ltmp150:
.Lfunc_end27:
	.size	BPWM_ClearZeroIntFlag, .Lfunc_end27-BPWM_ClearZeroIntFlag
	.cfi_endproc
	.cantunwind
	.fnend
                                        @ -- End function
	.section	.text.BPWM_GetZeroIntFlag,"ax",%progbits
	.hidden	BPWM_GetZeroIntFlag             @ -- Begin function BPWM_GetZeroIntFlag
	.globl	BPWM_GetZeroIntFlag
	.p2align	1
	.type	BPWM_GetZeroIntFlag,%function
	.code	16                              @ @BPWM_GetZeroIntFlag
	.thumb_func
BPWM_GetZeroIntFlag:
.Lfunc_begin28:
	.loc	5 662 0                         @ ../../../../Library/StdDriver/src/bpwm.c:662:0
	.fnstart
	.cfi_startproc
@ %bb.0:
	.pad	#8
	sub	sp, #8
	.cfi_def_cfa_offset 8
	str	r0, [sp, #4]
	str	r1, [sp]
.Ltmp151:
	.loc	5 663 15 prologue_end           @ ../../../../Library/StdDriver/src/bpwm.c:663:15
	ldr	r0, [sp, #4]
	movs	r1, #232
	.loc	5 663 22 is_stmt 0              @ ../../../../Library/StdDriver/src/bpwm.c:663:22
	ldr	r0, [r0, r1]
	movs	r1, #1
	.loc	5 663 29                        @ ../../../../Library/StdDriver/src/bpwm.c:663:29
	ands	r0, r1
	.loc	5 663 5                         @ ../../../../Library/StdDriver/src/bpwm.c:663:5
	add	sp, #8
	bx	lr
.Ltmp152:
.Lfunc_end28:
	.size	BPWM_GetZeroIntFlag, .Lfunc_end28-BPWM_GetZeroIntFlag
	.cfi_endproc
	.cantunwind
	.fnend
                                        @ -- End function
	.section	.text.BPWM_EnableLoadMode,"ax",%progbits
	.hidden	BPWM_EnableLoadMode             @ -- Begin function BPWM_EnableLoadMode
	.globl	BPWM_EnableLoadMode
	.p2align	1
	.type	BPWM_EnableLoadMode,%function
	.code	16                              @ @BPWM_EnableLoadMode
	.thumb_func
BPWM_EnableLoadMode:
.Lfunc_begin29:
	.loc	5 678 0 is_stmt 1               @ ../../../../Library/StdDriver/src/bpwm.c:678:0
	.fnstart
	.cfi_startproc
@ %bb.0:
	.pad	#12
	sub	sp, #12
	.cfi_def_cfa_offset 12
	str	r0, [sp, #8]
	str	r1, [sp, #4]
	str	r2, [sp]
.Ltmp153:
	.loc	5 679 22 prologue_end           @ ../../../../Library/StdDriver/src/bpwm.c:679:22
	ldr	r2, [sp]
	.loc	5 679 37 is_stmt 0              @ ../../../../Library/StdDriver/src/bpwm.c:679:37
	ldr	r0, [sp, #4]
	.loc	5 679 34                        @ ../../../../Library/StdDriver/src/bpwm.c:679:34
	lsls	r2, r0
	.loc	5 679 6                         @ ../../../../Library/StdDriver/src/bpwm.c:679:6
	ldr	r1, [sp, #8]
	.loc	5 679 18                        @ ../../../../Library/StdDriver/src/bpwm.c:679:18
	ldr	r0, [r1]
	orrs	r0, r2
	str	r0, [r1]
	.loc	5 680 1 is_stmt 1               @ ../../../../Library/StdDriver/src/bpwm.c:680:1
	add	sp, #12
	bx	lr
.Ltmp154:
.Lfunc_end29:
	.size	BPWM_EnableLoadMode, .Lfunc_end29-BPWM_EnableLoadMode
	.cfi_endproc
	.cantunwind
	.fnend
                                        @ -- End function
	.section	.text.BPWM_DisableLoadMode,"ax",%progbits
	.hidden	BPWM_DisableLoadMode            @ -- Begin function BPWM_DisableLoadMode
	.globl	BPWM_DisableLoadMode
	.p2align	1
	.type	BPWM_DisableLoadMode,%function
	.code	16                              @ @BPWM_DisableLoadMode
	.thumb_func
BPWM_DisableLoadMode:
.Lfunc_begin30:
	.loc	5 694 0                         @ ../../../../Library/StdDriver/src/bpwm.c:694:0
	.fnstart
	.cfi_startproc
@ %bb.0:
	.pad	#12
	sub	sp, #12
	.cfi_def_cfa_offset 12
	str	r0, [sp, #8]
	str	r1, [sp, #4]
	str	r2, [sp]
.Ltmp155:
	.loc	5 695 23 prologue_end           @ ../../../../Library/StdDriver/src/bpwm.c:695:23
	ldr	r2, [sp]
	.loc	5 695 38 is_stmt 0              @ ../../../../Library/StdDriver/src/bpwm.c:695:38
	ldr	r0, [sp, #4]
	.loc	5 695 35                        @ ../../../../Library/StdDriver/src/bpwm.c:695:35
	lsls	r2, r0
	.loc	5 695 6                         @ ../../../../Library/StdDriver/src/bpwm.c:695:6
	ldr	r1, [sp, #8]
	.loc	5 695 18                        @ ../../../../Library/StdDriver/src/bpwm.c:695:18
	ldr	r0, [r1]
	bics	r0, r2
	str	r0, [r1]
	.loc	5 696 1 is_stmt 1               @ ../../../../Library/StdDriver/src/bpwm.c:696:1
	add	sp, #12
	bx	lr
.Ltmp156:
.Lfunc_end30:
	.size	BPWM_DisableLoadMode, .Lfunc_end30-BPWM_DisableLoadMode
	.cfi_endproc
	.cantunwind
	.fnend
                                        @ -- End function
	.section	.text.BPWM_SetClockSource,"ax",%progbits
	.hidden	BPWM_SetClockSource             @ -- Begin function BPWM_SetClockSource
	.globl	BPWM_SetClockSource
	.p2align	1
	.type	BPWM_SetClockSource,%function
	.code	16                              @ @BPWM_SetClockSource
	.thumb_func
BPWM_SetClockSource:
.Lfunc_begin31:
	.loc	5 714 0                         @ ../../../../Library/StdDriver/src/bpwm.c:714:0
	.fnstart
	.cfi_startproc
@ %bb.0:
	.pad	#12
	sub	sp, #12
	.cfi_def_cfa_offset 12
	str	r0, [sp, #8]
	str	r1, [sp, #4]
	str	r2, [sp]
.Ltmp157:
	.loc	5 715 23 prologue_end           @ ../../../../Library/StdDriver/src/bpwm.c:715:23
	ldr	r0, [sp]
	.loc	5 715 6 is_stmt 0               @ ../../../../Library/StdDriver/src/bpwm.c:715:6
	ldr	r1, [sp, #8]
	.loc	5 715 20                        @ ../../../../Library/StdDriver/src/bpwm.c:715:20
	str	r0, [r1, #16]
	.loc	5 716 1 is_stmt 1               @ ../../../../Library/StdDriver/src/bpwm.c:716:1
	add	sp, #12
	bx	lr
.Ltmp158:
.Lfunc_end31:
	.size	BPWM_SetClockSource, .Lfunc_end31-BPWM_SetClockSource
	.cfi_endproc
	.cantunwind
	.fnend
                                        @ -- End function
	.section	.text.BPWM_GetWrapAroundFlag,"ax",%progbits
	.hidden	BPWM_GetWrapAroundFlag          @ -- Begin function BPWM_GetWrapAroundFlag
	.globl	BPWM_GetWrapAroundFlag
	.p2align	1
	.type	BPWM_GetWrapAroundFlag,%function
	.code	16                              @ @BPWM_GetWrapAroundFlag
	.thumb_func
BPWM_GetWrapAroundFlag:
.Lfunc_begin32:
	.loc	5 731 0                         @ ../../../../Library/StdDriver/src/bpwm.c:731:0
	.fnstart
	.cfi_startproc
@ %bb.0:
	.pad	#8
	sub	sp, #8
	.cfi_def_cfa_offset 8
	str	r0, [sp, #4]
	str	r1, [sp]
.Ltmp159:
	.loc	5 732 15 prologue_end           @ ../../../../Library/StdDriver/src/bpwm.c:732:15
	ldr	r0, [sp, #4]
	movw	r1, #288
	.loc	5 732 22 is_stmt 0              @ ../../../../Library/StdDriver/src/bpwm.c:732:22
	ldr	r0, [r0, r1]
	movs	r1, #1
	.loc	5 732 29                        @ ../../../../Library/StdDriver/src/bpwm.c:732:29
	ands	r0, r1
	.loc	5 732 5                         @ ../../../../Library/StdDriver/src/bpwm.c:732:5
	add	sp, #8
	bx	lr
.Ltmp160:
.Lfunc_end32:
	.size	BPWM_GetWrapAroundFlag, .Lfunc_end32-BPWM_GetWrapAroundFlag
	.cfi_endproc
	.cantunwind
	.fnend
                                        @ -- End function
	.section	.text.BPWM_ClearWrapAroundFlag,"ax",%progbits
	.hidden	BPWM_ClearWrapAroundFlag        @ -- Begin function BPWM_ClearWrapAroundFlag
	.globl	BPWM_ClearWrapAroundFlag
	.p2align	1
	.type	BPWM_ClearWrapAroundFlag,%function
	.code	16                              @ @BPWM_ClearWrapAroundFlag
	.thumb_func
BPWM_ClearWrapAroundFlag:
.Lfunc_begin33:
	.loc	5 745 0 is_stmt 1               @ ../../../../Library/StdDriver/src/bpwm.c:745:0
	.fnstart
	.cfi_startproc
@ %bb.0:
	.pad	#8
	sub	sp, #8
	.cfi_def_cfa_offset 8
	str	r0, [sp, #4]
	str	r1, [sp]
.Ltmp161:
	.loc	5 746 6 prologue_end            @ ../../../../Library/StdDriver/src/bpwm.c:746:6
	ldr	r1, [sp, #4]
	movw	r2, #288
	movs	r0, #1
	.loc	5 746 20 is_stmt 0              @ ../../../../Library/StdDriver/src/bpwm.c:746:20
	str	r0, [r1, r2]
	.loc	5 747 1 is_stmt 1               @ ../../../../Library/StdDriver/src/bpwm.c:747:1
	add	sp, #8
	bx	lr
.Ltmp162:
.Lfunc_end33:
	.size	BPWM_ClearWrapAroundFlag, .Lfunc_end33-BPWM_ClearWrapAroundFlag
	.cfi_endproc
	.cantunwind
	.fnend
                                        @ -- End function
	.section	".note.GNU-stack","",%progbits
	.eabi_attribute	30, 6	@ Tag_ABI_optimization_goals
	.ARM_attribute	16, 1	@ Tag_AV_eba