	.text
	.syntax unified
	.eabi_attribute	67, "2.09"	@ Tag_conformance
	.cpu	cortex-m23
	.eabi_attribute	6, 16	@ Tag_CPU_arch
	.eabi_attribute	7, 77	@ Tag_CPU_arch_profile
	.eabi_attribute	8, 0	@ Tag_ARM_ISA_use
	.eabi_attribute	9, 3	@ Tag_THUMB_ISA_use
	.eabi_attribute	34, 0	@ Tag_CPU_unaligned_access
	.eabi_attribute	17, 1	@ Tag_ABI_PCS_GOT_use
	.eabi_attribute	20, 2	@ Tag_ABI_FP_denormal
	.eabi_attribute	21, 0	@ Tag_ABI_FP_exceptions
	.eabi_attribute	23, 1	@ Tag_ABI_FP_number_model
	.eabi_attribute	24, 1	@ Tag_ABI_align_needed
	.eabi_attribute	25, 1	@ Tag_ABI_align_preserved
	.eabi_attribute	38, 1	@ Tag_ABI_FP_16bit_format
	.eabi_attribute	18, 2	@ Tag_ABI_PCS_wchar_t
	.eabi_attribute	26, 1	@ Tag_ABI_enum_size
	.eabi_attribute	14, 0	@ Tag_ABI_PCS_R9_use
	.file	"clk.c"
	.file	1 "C:\\Keil_v5\\ARM\\ARMCLANG\\Bin\\..\\include" "stdint.h"
	.file	2 "E:\\ROBOCON2024\\01. Coding\\Nuvoton\\demo_robot_3wheel\\SampleCode\\NuCodeGen\\DemoCodeGen\\KEIL" "../../../../Library/StdDriver/src/clk.c"
	.file	3 "E:\\ROBOCON2024\\01. Coding\\Nuvoton\\demo_robot_3wheel\\SampleCode\\NuCodeGen\\DemoCodeGen\\KEIL" "../../../../Library/Device/Nuvoton/M251/Include/clk_reg.h"
	.file	4 "E:\\ROBOCON2024\\01. Coding\\Nuvoton\\demo_robot_3wheel\\SampleCode\\NuCodeGen\\DemoCodeGen\\KEIL" "../../../../Library/CMSIS/Include\\core_cm23.h"
	.file	5 "E:\\ROBOCON2024\\01. Coding\\Nuvoton\\demo_robot_3wheel\\SampleCode\\NuCodeGen\\DemoCodeGen\\KEIL" "../../../../Library/Device/Nuvoton/M251/Include/sys_reg.h"
	.file	6 "E:\\ROBOCON2024\\01. Coding\\Nuvoton\\demo_robot_3wheel\\SampleCode\\NuCodeGen\\DemoCodeGen\\KEIL" "../../../../Library/Device/Nuvoton/M251/Include/M251.h"
	.section	.text.CLK_DisableCKO,"ax",%progbits
	.hidden	CLK_DisableCKO                  @ -- Begin function CLK_DisableCKO
	.globl	CLK_DisableCKO
	.p2align	2
	.type	CLK_DisableCKO,%function
	.code	16                              @ @CLK_DisableCKO
	.thumb_func
CLK_DisableCKO:
.Lfunc_begin0:
	.loc	2 31 0                          @ ../../../../Library/StdDriver/src/clk.c:31:0
	.fnstart
	.cfi_sections .debug_frame
	.cfi_startproc
@ %bb.0:
	ldr	r1, __arm_cp.0_0
.Ltmp0:
	.loc	2 33 18 prologue_end            @ ../../../../Library/StdDriver/src/clk.c:33:18
	ldr	r0, [r1]
	movs	r2, #64
	bics	r0, r2
	str	r0, [r1]
	.loc	2 34 1                          @ ../../../../Library/StdDriver/src/clk.c:34:1
	bx	lr
.Ltmp1:
	.p2align	2
@ %bb.1:
	.loc	2 0 1 is_stmt 0                 @ ../../../../Library/StdDriver/src/clk.c:0:1
__arm_cp.0_0:
	.long	1073742344                      @ 0x40000208
.Lcpi_end0:
	.size	__arm_cp.0_0, .Lcpi_end0-__arm_cp.0_0
.Lfunc_end0:
	.size	CLK_DisableCKO, .Lfunc_end0-CLK_DisableCKO
	.cfi_endproc
	.cantunwind
	.fnend
                                        @ -- End function
	.section	.text.CLK_EnableCKO,"ax",%progbits
	.hidden	CLK_EnableCKO                   @ -- Begin function CLK_EnableCKO
	.globl	CLK_EnableCKO
	.p2align	2
	.type	CLK_EnableCKO,%function
	.code	16                              @ @CLK_EnableCKO
	.thumb_func
CLK_EnableCKO:
.Lfunc_begin1:
	.loc	2 58 0 is_stmt 1                @ ../../../../Library/StdDriver/src/clk.c:58:0
	.fnstart
	.cfi_startproc
@ %bb.0:
	.pad	#12
	sub	sp, #12
	.cfi_def_cfa_offset 12
	str	r0, [sp, #8]
	str	r1, [sp, #4]
	str	r2, [sp]
.Ltmp2:
	.loc	2 60 45 prologue_end            @ ../../../../Library/StdDriver/src/clk.c:60:45
	ldr	r0, [sp, #4]
	.loc	2 60 58 is_stmt 0               @ ../../../../Library/StdDriver/src/clk.c:60:58
	ldr	r1, [sp]
	.loc	2 60 73                         @ ../../../../Library/StdDriver/src/clk.c:60:73
	lsls	r1, r1, #5
	.loc	2 60 43                         @ ../../../../Library/StdDriver/src/clk.c:60:43
	orrs	r0, r1
	movs	r1, #16
	.loc	2 60 55                         @ ../../../../Library/StdDriver/src/clk.c:60:55
	orrs	r0, r1
	ldr	r1, __arm_cp.1_0
	.loc	2 60 18                         @ ../../../../Library/StdDriver/src/clk.c:60:18
	str	r0, [r1]
	ldr	r1, __arm_cp.1_1
	.loc	2 63 18 is_stmt 1               @ ../../../../Library/StdDriver/src/clk.c:63:18
	ldr	r0, [r1]
	movs	r2, #64
	orrs	r0, r2
	str	r0, [r1]
	ldr	r1, __arm_cp.1_2
	.loc	2 66 26                         @ ../../../../Library/StdDriver/src/clk.c:66:26
	ldr	r0, [r1]
	movs	r2, #112
	.loc	2 66 34 is_stmt 0               @ ../../../../Library/StdDriver/src/clk.c:66:34
	bics	r0, r2
	.loc	2 66 67                         @ ../../../../Library/StdDriver/src/clk.c:66:67
	ldr	r2, [sp, #8]
	.loc	2 66 64                         @ ../../../../Library/StdDriver/src/clk.c:66:64
	orrs	r0, r2
	.loc	2 66 18                         @ ../../../../Library/StdDriver/src/clk.c:66:18
	str	r0, [r1]
	.loc	2 67 1 is_stmt 1                @ ../../../../Library/StdDriver/src/clk.c:67:1
	add	sp, #12
	bx	lr
.Ltmp3:
	.p2align	2
@ %bb.1:
	.loc	2 0 1 is_stmt 0                 @ ../../../../Library/StdDriver/src/clk.c:0:1
__arm_cp.1_0:
	.long	1073742432                      @ 0x40000260
.Lcpi_end1:
	.size	__arm_cp.1_0, .Lcpi_end1-__arm_cp.1_0
__arm_cp.1_1:
	.long	1073742344                      @ 0x40000208
.Lcpi_end2:
	.size	__arm_cp.1_1, .Lcpi_end2-__arm_cp.1_1
__arm_cp.1_2:
	.long	1073742356                      @ 0x40000214
.Lcpi_end3:
	.size	__arm_cp.1_2, .Lcpi_end3-__arm_cp.1_2
.Lfunc_end1:
	.size	CLK_EnableCKO, .Lfunc_end1-CLK_EnableCKO
	.cfi_endproc
	.cantunwind
	.fnend
                                        @ -- End function
	.section	.text.CLK_PowerDown,"ax",%progbits
	.hidden	CLK_PowerDown                   @ -- Begin function CLK_PowerDown
	.globl	CLK_PowerDown
	.p2align	2
	.type	CLK_PowerDown,%function
	.code	16                              @ @CLK_PowerDown
	.thumb_func
CLK_PowerDown:
.Lfunc_begin2:
	.loc	2 77 0 is_stmt 1                @ ../../../../Library/StdDriver/src/clk.c:77:0
	.fnstart
	.cfi_startproc
@ %bb.0:
	.pad	#12
	sub	sp, #12
	.cfi_def_cfa_offset 12
	ldr	r0, __arm_cp.2_0
.Ltmp4:
	.loc	2 81 17 prologue_end            @ ../../../../Library/StdDriver/src/clk.c:81:17
	ldr	r0, [r0]
	.loc	2 81 50 is_stmt 0               @ ../../../../Library/StdDriver/src/clk.c:81:50
	lsls	r0, r0, #28
	cmp	r0, #0
	bmi	.LBB2_3
	b	.LBB2_1
.LBB2_1:
	.loc	2 0 50                          @ ../../../../Library/StdDriver/src/clk.c:0:50
	ldr	r0, __arm_cp.2_1
	.loc	2 81 60                         @ ../../../../Library/StdDriver/src/clk.c:81:60
	ldr	r0, [r0]
.Ltmp5:
	.loc	2 81 9                          @ ../../../../Library/StdDriver/src/clk.c:81:9
	lsls	r0, r0, #28
	cmp	r0, #0
	bpl	.LBB2_3
	b	.LBB2_2
.LBB2_2:
	.loc	2 0 9                           @ ../../../../Library/StdDriver/src/clk.c:0:9
	movs	r0, #0
.Ltmp6:
	.loc	2 83 9 is_stmt 1                @ ../../../../Library/StdDriver/src/clk.c:83:9
	str	r0, [sp, #8]
	b	.LBB2_4
.Ltmp7:
.LBB2_3:
	.loc	2 0 9 is_stmt 0                 @ ../../../../Library/StdDriver/src/clk.c:0:9
	ldr	r1, __arm_cp.2_2
	.loc	2 87 14 is_stmt 1               @ ../../../../Library/StdDriver/src/clk.c:87:14
	ldr	r0, [r1]
	movs	r2, #4
	orrs	r0, r2
	str	r0, [r1]
	ldr	r1, __arm_cp.2_0
	.loc	2 90 17                         @ ../../../../Library/StdDriver/src/clk.c:90:17
	ldr	r0, [r1]
	movs	r2, #128
	orrs	r0, r2
	str	r0, [r1]
	ldr	r2, __arm_cp.2_3
	.loc	2 93 27                         @ ../../../../Library/StdDriver/src/clk.c:93:27
	ldr	r0, [r2]
	.loc	2 93 20 is_stmt 0               @ ../../../../Library/StdDriver/src/clk.c:93:20
	str	r0, [sp, #4]
	ldr	r1, __arm_cp.2_4
	.loc	2 94 27 is_stmt 1               @ ../../../../Library/StdDriver/src/clk.c:94:27
	ldr	r0, [r1]
	.loc	2 94 20 is_stmt 0               @ ../../../../Library/StdDriver/src/clk.c:94:20
	str	r0, [sp]
	.loc	2 97 22 is_stmt 1               @ ../../../../Library/StdDriver/src/clk.c:97:22
	ldr	r0, [r2]
	movs	r3, #3
	mvns	r3, r3
	ands	r0, r3
	str	r0, [r2]
	.loc	2 98 22                         @ ../../../../Library/StdDriver/src/clk.c:98:22
	ldr	r0, [r1]
	ands	r0, r3
	str	r0, [r1]
	.loc	2 101 5                         @ ../../../../Library/StdDriver/src/clk.c:101:5
	wfi
	.loc	2 104 24                        @ ../../../../Library/StdDriver/src/clk.c:104:24
	ldr	r0, [sp, #4]
	.loc	2 104 22 is_stmt 0              @ ../../../../Library/StdDriver/src/clk.c:104:22
	str	r0, [r2]
	.loc	2 105 24 is_stmt 1              @ ../../../../Library/StdDriver/src/clk.c:105:24
	ldr	r0, [sp]
	.loc	2 105 22 is_stmt 0              @ ../../../../Library/StdDriver/src/clk.c:105:22
	str	r0, [r1]
	movs	r0, #1
	.loc	2 107 5 is_stmt 1               @ ../../../../Library/StdDriver/src/clk.c:107:5
	str	r0, [sp, #8]
	b	.LBB2_4
.LBB2_4:
	.loc	2 108 1                         @ ../../../../Library/StdDriver/src/clk.c:108:1
	ldr	r0, [sp, #8]
	add	sp, #12
	bx	lr
.Ltmp8:
	.p2align	2
@ %bb.5:
	.loc	2 0 1 is_stmt 0                 @ ../../../../Library/StdDriver/src/clk.c:0:1
__arm_cp.2_0:
	.long	1073742336                      @ 0x40000200
.Lcpi_end4:
	.size	__arm_cp.2_0, .Lcpi_end4-__arm_cp.2_0
__arm_cp.2_1:
	.long	1073742416                      @ 0x40000250
.Lcpi_end5:
	.size	__arm_cp.2_1, .Lcpi_end5-__arm_cp.2_1
__arm_cp.2_2:
	.long	3758157072                      @ 0xe000ed10
.Lcpi_end6:
	.size	__arm_cp.2_2, .Lcpi_end6-__arm_cp.2_2
__arm_cp.2_3:
	.long	1073742064                      @ 0x400000f0
.Lcpi_end7:
	.size	__arm_cp.2_3, .Lcpi_end7-__arm_cp.2_3
__arm_cp.2_4:
	.long	1073742084                      @ 0x40000104
.Lcpi_end8:
	.size	__arm_cp.2_4, .Lcpi_end8-__arm_cp.2_4
.Lfunc_end2:
	.size	CLK_PowerDown, .Lfunc_end2-CLK_PowerDown
	.cfi_endproc
	.cantunwind
	.fnend
                                        @ -- End function
	.section	.text.CLK_Idle,"ax",%progbits
	.hidden	CLK_Idle                        @ -- Begin function CLK_Idle
	.globl	CLK_Idle
	.p2align	2
	.type	CLK_Idle,%function
	.code	16                              @ @CLK_Idle
	.thumb_func
CLK_Idle:
.Lfunc_begin3:
	.loc	2 116 0 is_stmt 1               @ ../../../../Library/StdDriver/src/clk.c:116:0
	.fnstart
	.cfi_startproc
@ %bb.0:
	ldr	r1, __arm_cp.3_0
.Ltmp9:
	.loc	2 118 14 prologue_end           @ ../../../../Library/StdDriver/src/clk.c:118:14
	ldr	r0, [r1]
	movs	r2, #4
	bics	r0, r2
	str	r0, [r1]
	ldr	r1, __arm_cp.3_1
	.loc	2 121 17                        @ ../../../../Library/StdDriver/src/clk.c:121:17
	ldr	r0, [r1]
	movs	r2, #128
	bics	r0, r2
	str	r0, [r1]
	.loc	2 124 5                         @ ../../../../Library/StdDriver/src/clk.c:124:5
	wfi
	.loc	2 125 1                         @ ../../../../Library/StdDriver/src/clk.c:125:1
	bx	lr
.Ltmp10:
	.p2align	2
@ %bb.1:
	.loc	2 0 1 is_stmt 0                 @ ../../../../Library/StdDriver/src/clk.c:0:1
__arm_cp.3_0:
	.long	3758157072                      @ 0xe000ed10
.Lcpi_end9:
	.size	__arm_cp.3_0, .Lcpi_end9-__arm_cp.3_0
__arm_cp.3_1:
	.long	1073742336                      @ 0x40000200
.Lcpi_end10:
	.size	__arm_cp.3_1, .Lcpi_end10-__arm_cp.3_1
.Lfunc_end3:
	.size	CLK_Idle, .Lfunc_end3-CLK_Idle
	.cfi_endproc
	.cantunwind
	.fnend
                                        @ -- End function
	.section	.text.CLK_GetHXTFreq,"ax",%progbits
	.hidden	CLK_GetHXTFreq                  @ -- Begin function CLK_GetHXTFreq
	.globl	CLK_GetHXTFreq
	.p2align	2
	.type	CLK_GetHXTFreq,%function
	.code	16                              @ @CLK_GetHXTFreq
	.thumb_func
CLK_GetHXTFreq:
.Lfunc_begin4:
	.loc	2 133 0 is_stmt 1               @ ../../../../Library/StdDriver/src/clk.c:133:0
	.fnstart
	.cfi_startproc
@ %bb.0:
	.pad	#4
	sub	sp, #4
	.cfi_def_cfa_offset 4
	ldr	r0, __arm_cp.4_0
.Ltmp11:
	.loc	2 134 14 prologue_end           @ ../../../../Library/StdDriver/src/clk.c:134:14
	ldr	r0, [r0]
.Ltmp12:
	.loc	2 134 9 is_stmt 0               @ ../../../../Library/StdDriver/src/clk.c:134:9
	lsls	r0, r0, #31
	cbz	r0, .LBB4_2
	b	.LBB4_1
.LBB4_1:
	.loc	2 0 9                           @ ../../../../Library/StdDriver/src/clk.c:0:9
	ldr	r0, __arm_cp.4_1
.Ltmp13:
	.loc	2 135 9 is_stmt 1               @ ../../../../Library/StdDriver/src/clk.c:135:9
	str	r0, [sp]
	b	.LBB4_3
.LBB4_2:
	.loc	2 0 9 is_stmt 0                 @ ../../../../Library/StdDriver/src/clk.c:0:9
	movs	r0, #0
	.loc	2 137 9 is_stmt 1               @ ../../../../Library/StdDriver/src/clk.c:137:9
	str	r0, [sp]
	b	.LBB4_3
.Ltmp14:
.LBB4_3:
	.loc	2 138 1                         @ ../../../../Library/StdDriver/src/clk.c:138:1
	ldr	r0, [sp]
	add	sp, #4
	bx	lr
.Ltmp15:
	.p2align	2
@ %bb.4:
	.loc	2 0 1 is_stmt 0                 @ ../../../../Library/StdDriver/src/clk.c:0:1
__arm_cp.4_0:
	.long	1073742336                      @ 0x40000200
.Lcpi_end11:
	.size	__arm_cp.4_0, .Lcpi_end11-__arm_cp.4_0
__arm_cp.4_1:
	.long	12000000                        @ 0xb71b00
.Lcpi_end12:
	.size	__arm_cp.4_1, .Lcpi_end12-__arm_cp.4_1
.Lfunc_end4:
	.size	CLK_GetHXTFreq, .Lfunc_end4-CLK_GetHXTFreq
	.cfi_endproc
	.cantunwind
	.fnend
                                        @ -- End function
	.section	.text.CLK_GetLXTFreq,"ax",%progbits
	.hidden	CLK_GetLXTFreq                  @ -- Begin function CLK_GetLXTFreq
	.globl	CLK_GetLXTFreq
	.p2align	2
	.type	CLK_GetLXTFreq,%function
	.code	16                              @ @CLK_GetLXTFreq
	.thumb_func
CLK_GetLXTFreq:
.Lfunc_begin5:
	.loc	2 146 0 is_stmt 1               @ ../../../../Library/StdDriver/src/clk.c:146:0
	.fnstart
	.cfi_startproc
@ %bb.0:
	.pad	#4
	sub	sp, #4
	.cfi_def_cfa_offset 4
	ldr	r0, __arm_cp.5_0
.Ltmp16:
	.loc	2 147 14 prologue_end           @ ../../../../Library/StdDriver/src/clk.c:147:14
	ldr	r0, [r0]
.Ltmp17:
	.loc	2 147 9 is_stmt 0               @ ../../../../Library/StdDriver/src/clk.c:147:9
	lsls	r0, r0, #30
	cmp	r0, #0
	bpl	.LBB5_2
	b	.LBB5_1
.LBB5_1:
	.loc	2 0 9                           @ ../../../../Library/StdDriver/src/clk.c:0:9
	movw	r0, #32768
.Ltmp18:
	.loc	2 148 9 is_stmt 1               @ ../../../../Library/StdDriver/src/clk.c:148:9
	str	r0, [sp]
	b	.LBB5_3
.LBB5_2:
	.loc	2 0 9 is_stmt 0                 @ ../../../../Library/StdDriver/src/clk.c:0:9
	movs	r0, #0
	.loc	2 150 9 is_stmt 1               @ ../../../../Library/StdDriver/src/clk.c:150:9
	str	r0, [sp]
	b	.LBB5_3
.Ltmp19:
.LBB5_3:
	.loc	2 151 1                         @ ../../../../Library/StdDriver/src/clk.c:151:1
	ldr	r0, [sp]
	add	sp, #4
	bx	lr
.Ltmp20:
	.p2align	2
@ %bb.4:
	.loc	2 0 1 is_stmt 0                 @ ../../../../Library/StdDriver/src/clk.c:0:1
__arm_cp.5_0:
	.long	1073742336                      @ 0x40000200
.Lcpi_end13:
	.size	__arm_cp.5_0, .Lcpi_end13-__arm_cp.5_0
.Lfunc_end5:
	.size	CLK_GetLXTFreq, .Lfunc_end5-CLK_GetLXTFreq
	.cfi_endproc
	.cantunwind
	.fnend
                                        @ -- End function
	.section	.text.CLK_GetPCLK0Freq,"ax",%progbits
	.hidden	CLK_GetPCLK0Freq                @ -- Begin function CLK_GetPCLK0Freq
	.globl	CLK_GetPCLK0Freq
	.p2align	2
	.type	CLK_GetPCLK0Freq,%function
	.code	16                              @ @CLK_GetPCLK0Freq
	.thumb_func
CLK_GetPCLK0Freq:
.Lfunc_begin6:
	.loc	2 159 0 is_stmt 1               @ ../../../../Library/StdDriver/src/clk.c:159:0
	.fnstart
	.cfi_startproc
@ %bb.0:
	.save	{r7, lr}
	push	{r7, lr}
	.cfi_def_cfa_offset 8
	.cfi_offset lr, -4
	.cfi_offset r7, -8
	.pad	#8
	sub	sp, #8
	.cfi_def_cfa_offset 16
.Ltmp21:
	.loc	2 160 5 prologue_end            @ ../../../../Library/StdDriver/src/clk.c:160:5
	bl	SystemCoreClockUpdate
	ldr	r0, __arm_cp.6_0
	.loc	2 162 18                        @ ../../../../Library/StdDriver/src/clk.c:162:18
	ldr	r0, [r0]
	movs	r1, #7
	.loc	2 162 26 is_stmt 0              @ ../../../../Library/StdDriver/src/clk.c:162:26
	ands	r0, r1
	.loc	2 162 5                         @ ../../../../Library/StdDriver/src/clk.c:162:5
	str	r0, [sp]                        @ 4-byte Spill
	cmp	r0, #5
	bhi	.LBB6_9
@ %bb.1:
	.loc	2 0 5                           @ ../../../../Library/StdDriver/src/clk.c:0:5
	ldr	r1, [sp]                        @ 4-byte Reload
	lsls	r2, r1, #2
	adr	r0, .LJTI6_0
	adds	r0, r0, r2
	mov	pc, r0
@ %bb.2:
	.p2align	2
.LJTI6_0:
	b.w	.LBB6_3
	b.w	.LBB6_4
	b.w	.LBB6_5
	b.w	.LBB6_6
	b.w	.LBB6_7
	b.w	.LBB6_8
.LBB6_3:
.Ltmp22:
	.loc	2 165 20 is_stmt 1              @ ../../../../Library/StdDriver/src/clk.c:165:20
	ldr	r0, __arm_cp.6_1
	ldr	r0, [r0]
	.loc	2 165 13 is_stmt 0              @ ../../../../Library/StdDriver/src/clk.c:165:13
	str	r0, [sp, #4]
	b	.LBB6_10
.LBB6_4:
	.loc	2 168 20 is_stmt 1              @ ../../../../Library/StdDriver/src/clk.c:168:20
	ldr	r0, __arm_cp.6_1
	ldr	r0, [r0]
	.loc	2 168 36 is_stmt 0              @ ../../../../Library/StdDriver/src/clk.c:168:36
	lsrs	r0, r0, #1
	.loc	2 168 13                        @ ../../../../Library/StdDriver/src/clk.c:168:13
	str	r0, [sp, #4]
	b	.LBB6_10
.LBB6_5:
	.loc	2 171 20 is_stmt 1              @ ../../../../Library/StdDriver/src/clk.c:171:20
	ldr	r0, __arm_cp.6_1
	ldr	r0, [r0]
	.loc	2 171 36 is_stmt 0              @ ../../../../Library/StdDriver/src/clk.c:171:36
	lsrs	r0, r0, #2
	.loc	2 171 13                        @ ../../../../Library/StdDriver/src/clk.c:171:13
	str	r0, [sp, #4]
	b	.LBB6_10
.LBB6_6:
	.loc	2 174 20 is_stmt 1              @ ../../../../Library/StdDriver/src/clk.c:174:20
	ldr	r0, __arm_cp.6_1
	ldr	r0, [r0]
	.loc	2 174 36 is_stmt 0              @ ../../../../Library/StdDriver/src/clk.c:174:36
	lsrs	r0, r0, #3
	.loc	2 174 13                        @ ../../../../Library/StdDriver/src/clk.c:174:13
	str	r0, [sp, #4]
	b	.LBB6_10
.LBB6_7:
	.loc	2 177 20 is_stmt 1              @ ../../../../Library/StdDriver/src/clk.c:177:20
	ldr	r0, __arm_cp.6_1
	ldr	r0, [r0]
	.loc	2 177 36 is_stmt 0              @ ../../../../Library/StdDriver/src/clk.c:177:36
	lsrs	r0, r0, #4
	.loc	2 177 13                        @ ../../../../Library/StdDriver/src/clk.c:177:13
	str	r0, [sp, #4]
	b	.LBB6_10
.LBB6_8:
	.loc	2 180 20 is_stmt 1              @ ../../../../Library/StdDriver/src/clk.c:180:20
	ldr	r0, __arm_cp.6_1
	ldr	r0, [r0]
	.loc	2 180 36 is_stmt 0              @ ../../../../Library/StdDriver/src/clk.c:180:36
	lsrs	r0, r0, #5
	.loc	2 180 13                        @ ../../../../Library/StdDriver/src/clk.c:180:13
	str	r0, [sp, #4]
	b	.LBB6_10
.LBB6_9:
	.loc	2 0 13                          @ ../../../../Library/StdDriver/src/clk.c:0:13
	movs	r0, #0
	.loc	2 183 13 is_stmt 1              @ ../../../../Library/StdDriver/src/clk.c:183:13
	str	r0, [sp, #4]
	b	.LBB6_10
.Ltmp23:
.LBB6_10:
	.loc	2 185 1                         @ ../../../../Library/StdDriver/src/clk.c:185:1
	ldr	r0, [sp, #4]
	add	sp, #8
	pop	{r7, pc}
.Ltmp24:
	.p2align	2
@ %bb.11:
	.loc	2 0 1 is_stmt 0                 @ ../../../../Library/StdDriver/src/clk.c:0:1
__arm_cp.6_0:
	.long	1073742388                      @ 0x40000234
.Lcpi_end14:
	.size	__arm_cp.6_0, .Lcpi_end14-__arm_cp.6_0
__arm_cp.6_1:
	.long	SystemCoreClock
.Lcpi_end15:
	.size	__arm_cp.6_1, .Lcpi_end15-__arm_cp.6_1
.Lfunc_end6:
	.size	CLK_GetPCLK0Freq, .Lfunc_end6-CLK_GetPCLK0Freq
	.cfi_endproc
	.cantunwind
	.fnend
                                        @ -- End function
	.section	.text.CLK_GetPCLK1Freq,"ax",%progbits
	.hidden	CLK_GetPCLK1Freq                @ -- Begin function CLK_GetPCLK1Freq
	.globl	CLK_GetPCLK1Freq
	.p2align	2
	.type	CLK_GetPCLK1Freq,%function
	.code	16                              @ @CLK_GetPCLK1Freq
	.thumb_func
CLK_GetPCLK1Freq:
.Lfunc_begin7:
	.loc	2 193 0 is_stmt 1               @ ../../../../Library/StdDriver/src/clk.c:193:0
	.fnstart
	.cfi_startproc
@ %bb.0:
	.save	{r7, lr}
	push	{r7, lr}
	.cfi_def_cfa_offset 8
	.cfi_offset lr, -4
	.cfi_offset r7, -8
	.pad	#8
	sub	sp, #8
	.cfi_def_cfa_offset 16
.Ltmp25:
	.loc	2 194 5 prologue_end            @ ../../../../Library/StdDriver/src/clk.c:194:5
	bl	SystemCoreClockUpdate
	ldr	r0, __arm_cp.7_0
	.loc	2 196 18                        @ ../../../../Library/StdDriver/src/clk.c:196:18
	ldr	r0, [r0]
	movs	r1, #112
	.loc	2 196 26 is_stmt 0              @ ../../../../Library/StdDriver/src/clk.c:196:26
	ands	r0, r1
	.loc	2 196 5                         @ ../../../../Library/StdDriver/src/clk.c:196:5
	str	r0, [sp]                        @ 4-byte Spill
	cbz	r0, .LBB7_6
	b	.LBB7_1
.LBB7_1:
	ldr	r0, [sp]                        @ 4-byte Reload
	cmp	r0, #16
	beq	.LBB7_7
	b	.LBB7_2
.LBB7_2:
	ldr	r0, [sp]                        @ 4-byte Reload
	cmp	r0, #32
	beq	.LBB7_8
	b	.LBB7_3
.LBB7_3:
	ldr	r0, [sp]                        @ 4-byte Reload
	cmp	r0, #48
	beq	.LBB7_9
	b	.LBB7_4
.LBB7_4:
	ldr	r0, [sp]                        @ 4-byte Reload
	cmp	r0, #64
	beq	.LBB7_10
	b	.LBB7_5
.LBB7_5:
	ldr	r0, [sp]                        @ 4-byte Reload
	cmp	r0, #80
	beq	.LBB7_11
	b	.LBB7_12
.LBB7_6:
.Ltmp26:
	.loc	2 199 20 is_stmt 1              @ ../../../../Library/StdDriver/src/clk.c:199:20
	ldr	r0, __arm_cp.7_1
	ldr	r0, [r0]
	.loc	2 199 13 is_stmt 0              @ ../../../../Library/StdDriver/src/clk.c:199:13
	str	r0, [sp, #4]
	b	.LBB7_13
.LBB7_7:
	.loc	2 202 20 is_stmt 1              @ ../../../../Library/StdDriver/src/clk.c:202:20
	ldr	r0, __arm_cp.7_1
	ldr	r0, [r0]
	.loc	2 202 36 is_stmt 0              @ ../../../../Library/StdDriver/src/clk.c:202:36
	lsrs	r0, r0, #1
	.loc	2 202 13                        @ ../../../../Library/StdDriver/src/clk.c:202:13
	str	r0, [sp, #4]
	b	.LBB7_13
.LBB7_8:
	.loc	2 205 20 is_stmt 1              @ ../../../../Library/StdDriver/src/clk.c:205:20
	ldr	r0, __arm_cp.7_1
	ldr	r0, [r0]
	.loc	2 205 36 is_stmt 0              @ ../../../../Library/StdDriver/src/clk.c:205:36
	lsrs	r0, r0, #2
	.loc	2 205 13                        @ ../../../../Library/StdDriver/src/clk.c:205:13
	str	r0, [sp, #4]
	b	.LBB7_13
.LBB7_9:
	.loc	2 208 20 is_stmt 1              @ ../../../../Library/StdDriver/src/clk.c:208:20
	ldr	r0, __arm_cp.7_1
	ldr	r0, [r0]
	.loc	2 208 36 is_stmt 0              @ ../../../../Library/StdDriver/src/clk.c:208:36
	lsrs	r0, r0, #3
	.loc	2 208 13                        @ ../../../../Library/StdDriver/src/clk.c:208:13
	str	r0, [sp, #4]
	b	.LBB7_13
.LBB7_10:
	.loc	2 211 20 is_stmt 1              @ ../../../../Library/StdDriver/src/clk.c:211:20
	ldr	r0, __arm_cp.7_1
	ldr	r0, [r0]
	.loc	2 211 36 is_stmt 0              @ ../../../../Library/StdDriver/src/clk.c:211:36
	lsrs	r0, r0, #4
	.loc	2 211 13                        @ ../../../../Library/StdDriver/src/clk.c:211:13
	str	r0, [sp, #4]
	b	.LBB7_13
.LBB7_11:
	.loc	2 214 20 is_stmt 1              @ ../../../../Library/StdDriver/src/clk.c:214:20
	ldr	r0, __arm_cp.7_1
	ldr	r0, [r0]
	.loc	2 214 36 is_stmt 0              @ ../../../../Library/StdDriver/src/clk.c:214:36
	lsrs	r0, r0, #5
	.loc	2 214 13                        @ ../../../../Library/StdDriver/src/clk.c:214:13
	str	r0, [sp, #4]
	b	.LBB7_13
.LBB7_12:
	.loc	2 0 13                          @ ../../../../Library/StdDriver/src/clk.c:0:13
	movs	r0, #0
	.loc	2 217 13 is_stmt 1              @ ../../../../Library/StdDriver/src/clk.c:217:13
	str	r0, [sp, #4]
	b	.LBB7_13
.Ltmp27:
.LBB7_13:
	.loc	2 219 1                         @ ../../../../Library/StdDriver/src/clk.c:219:1
	ldr	r0, [sp, #4]
	add	sp, #8
	pop	{r7, pc}
.Ltmp28:
	.p2align	2
@ %bb.14:
	.loc	2 0 1 is_stmt 0                 @ ../../../../Library/StdDriver/src/clk.c:0:1
__arm_cp.7_0:
	.long	1073742388                      @ 0x40000234
.Lcpi_end16:
	.size	__arm_cp.7_0, .Lcpi_end16-__arm_cp.7_0
__arm_cp.7_1:
	.long	SystemCoreClock
.Lcpi_end17:
	.size	__arm_cp.7_1, .Lcpi_end17-__arm_cp.7_1
.Lfunc_end7:
	.size	CLK_GetPCLK1Freq, .Lfunc_end7-CLK_GetPCLK1Freq
	.cfi_endproc
	.cantunwind
	.fnend
                                        @ -- End function
	.section	.text.CLK_GetHCLKFreq,"ax",%progbits
	.hidden	CLK_GetHCLKFreq                 @ -- Begin function CLK_GetHCLKFreq
	.globl	CLK_GetHCLKFreq
	.p2align	2
	.type	CLK_GetHCLKFreq,%function
	.code	16                              @ @CLK_GetHCLKFreq
	.thumb_func
CLK_GetHCLKFreq:
.Lfunc_begin8:
	.loc	2 227 0 is_stmt 1               @ ../../../../Library/StdDriver/src/clk.c:227:0
	.fnstart
	.cfi_startproc
@ %bb.0:
	.save	{r7, lr}
	push	{r7, lr}
	.cfi_def_cfa_offset 8
	.cfi_offset lr, -4
	.cfi_offset r7, -8
.Ltmp29:
	.loc	2 228 5 prologue_end            @ ../../../../Library/StdDriver/src/clk.c:228:5
	bl	SystemCoreClockUpdate
	.loc	2 229 12                        @ ../../../../Library/StdDriver/src/clk.c:229:12
	ldr	r0, __arm_cp.8_0
	ldr	r0, [r0]
	.loc	2 229 5 is_stmt 0               @ ../../../../Library/StdDriver/src/clk.c:229:5
	pop	{r7, pc}
.Ltmp30:
	.p2align	2
@ %bb.1:
	.loc	2 0 5                           @ ../../../../Library/StdDriver/src/clk.c:0:5
__arm_cp.8_0:
	.long	SystemCoreClock
.Lcpi_end18:
	.size	__arm_cp.8_0, .Lcpi_end18-__arm_cp.8_0
.Lfunc_end8:
	.size	CLK_GetHCLKFreq, .Lfunc_end8-CLK_GetHCLKFreq
	.cfi_endproc
	.cantunwind
	.fnend
                                        @ -- End function
	.section	.text.CLK_GetCPUFreq,"ax",%progbits
	.hidden	CLK_GetCPUFreq                  @ -- Begin function CLK_GetCPUFreq
	.globl	CLK_GetCPUFreq
	.p2align	2
	.type	CLK_GetCPUFreq,%function
	.code	16                              @ @CLK_GetCPUFreq
	.thumb_func
CLK_GetCPUFreq:
.Lfunc_begin9:
	.loc	2 238 0 is_stmt 1               @ ../../../../Library/StdDriver/src/clk.c:238:0
	.fnstart
	.cfi_startproc
@ %bb.0:
	.save	{r7, lr}
	push	{r7, lr}
	.cfi_def_cfa_offset 8
	.cfi_offset lr, -4
	.cfi_offset r7, -8
.Ltmp31:
	.loc	2 239 5 prologue_end            @ ../../../../Library/StdDriver/src/clk.c:239:5
	bl	SystemCoreClockUpdate
	.loc	2 240 12                        @ ../../../../Library/StdDriver/src/clk.c:240:12
	ldr	r0, __arm_cp.9_0
	ldr	r0, [r0]
	.loc	2 240 5 is_stmt 0               @ ../../../../Library/StdDriver/src/clk.c:240:5
	pop	{r7, pc}
.Ltmp32:
	.p2align	2
@ %bb.1:
	.loc	2 0 5                           @ ../../../../Library/StdDriver/src/clk.c:0:5
__arm_cp.9_0:
	.long	SystemCoreClock
.Lcpi_end19:
	.size	__arm_cp.9_0, .Lcpi_end19-__arm_cp.9_0
.Lfunc_end9:
	.size	CLK_GetCPUFreq, .Lfunc_end9-CLK_GetCPUFreq
	.cfi_endproc
	.cantunwind
	.fnend
                                        @ -- End function
	.section	.text.CLK_GetPLLClockFreq,"ax",%progbits
	.hidden	CLK_GetPLLClockFreq             @ -- Begin function CLK_GetPLLClockFreq
	.globl	CLK_GetPLLClockFreq
	.p2align	2
	.type	CLK_GetPLLClockFreq,%function
	.code	16                              @ @CLK_GetPLLClockFreq
	.thumb_func
CLK_GetPLLClockFreq:
.Lfunc_begin10:
	.loc	2 252 0 is_stmt 1               @ ../../../../Library/StdDriver/src/clk.c:252:0
	.fnstart
	.cfi_startproc
@ %bb.0:
	.pad	#28
	sub	sp, #28
	.cfi_def_cfa_offset 28
	movs	r0, #0
.Ltmp33:
	.loc	2 256 16 prologue_end           @ ../../../../Library/StdDriver/src/clk.c:256:16
	str	r0, [sp, #24]
	ldr	r0, __arm_cp.10_0
	.loc	2 257 19                        @ ../../../../Library/StdDriver/src/clk.c:257:19
	ldr	r0, [r0]
	.loc	2 257 12 is_stmt 0              @ ../../../../Library/StdDriver/src/clk.c:257:12
	str	r0, [sp, #20]
	add	r0, sp, #20
	.loc	2 259 9 is_stmt 1               @ ../../../../Library/StdDriver/src/clk.c:259:9
	ldrb	r0, [r0, #2]
	movs	r1, #5
	tst	r0, r1
	bne	.LBB10_11
	b	.LBB10_1
.LBB10_1:
	.loc	2 0 9 is_stmt 0                 @ ../../../../Library/StdDriver/src/clk.c:0:9
	add	r0, sp, #20
.Ltmp34:
	.loc	2 264 13 is_stmt 1              @ ../../../../Library/StdDriver/src/clk.c:264:13
	ldrb	r0, [r0, #2]
	lsls	r0, r0, #27
	lsrs	r0, r0, #30
	cbz	r0, .LBB10_6
	b	.LBB10_2
.LBB10_2:
.Ltmp35:
	.loc	2 266 18                        @ ../../../../Library/StdDriver/src/clk.c:266:18
	ldr	r0, [sp, #20]
	movs	r1, #3
	lsls	r1, r1, #19
	.loc	2 266 25 is_stmt 0              @ ../../../../Library/StdDriver/src/clk.c:266:25
	ands	r0, r1
.Ltmp36:
	.loc	2 266 17                        @ ../../../../Library/StdDriver/src/clk.c:266:17
	cmp	r0, r1
	bne	.LBB10_4
	b	.LBB10_3
.LBB10_3:
	.loc	2 0 17                          @ ../../../../Library/StdDriver/src/clk.c:0:17
	ldr	r0, __arm_cp.10_2
.Ltmp37:
	.loc	2 267 24 is_stmt 1              @ ../../../../Library/StdDriver/src/clk.c:267:24
	str	r0, [sp, #16]
	.loc	2 267 17 is_stmt 0              @ ../../../../Library/StdDriver/src/clk.c:267:17
	b	.LBB10_5
.LBB10_4:
	.loc	2 0 17                          @ ../../../../Library/StdDriver/src/clk.c:0:17
	ldr	r0, __arm_cp.10_1
	.loc	2 269 24 is_stmt 1              @ ../../../../Library/StdDriver/src/clk.c:269:24
	str	r0, [sp, #16]
	b	.LBB10_5
.Ltmp38:
.LBB10_5:
	.loc	2 270 9                         @ ../../../../Library/StdDriver/src/clk.c:270:9
	b	.LBB10_7
.Ltmp39:
.LBB10_6:
	.loc	2 0 9 is_stmt 0                 @ ../../../../Library/StdDriver/src/clk.c:0:9
	ldr	r0, __arm_cp.10_1
	.loc	2 272 20 is_stmt 1              @ ../../../../Library/StdDriver/src/clk.c:272:20
	str	r0, [sp, #16]
	b	.LBB10_7
.Ltmp40:
.LBB10_7:
	.loc	2 0 20 is_stmt 0                @ ../../../../Library/StdDriver/src/clk.c:0:20
	add	r0, sp, #20
	.loc	2 274 13 is_stmt 1              @ ../../../../Library/StdDriver/src/clk.c:274:13
	ldrb	r0, [r0, #2]
	lsls	r0, r0, #30
	cmp	r0, #0
	bpl	.LBB10_9
	b	.LBB10_8
.LBB10_8:
.Ltmp41:
	.loc	2 277 26                        @ ../../../../Library/StdDriver/src/clk.c:277:26
	ldr	r0, [sp, #16]
	.loc	2 277 24 is_stmt 0              @ ../../../../Library/StdDriver/src/clk.c:277:24
	str	r0, [sp, #24]
	.loc	2 278 9 is_stmt 1               @ ../../../../Library/StdDriver/src/clk.c:278:9
	b	.LBB10_10
.Ltmp42:
.LBB10_9:
	.loc	2 0 9 is_stmt 0                 @ ../../../../Library/StdDriver/src/clk.c:0:9
	ldr	r0, __arm_cp.10_3
.Ltmp43:
	.loc	2 282 27 is_stmt 1              @ ../../../../Library/StdDriver/src/clk.c:282:27
	str	r0, [sp]
	add	r0, sp, #20
	.loc	2 285 32                        @ ../../../../Library/StdDriver/src/clk.c:285:32
	ldrh	r0, [r0]
	.loc	2 285 64 is_stmt 0              @ ../../../../Library/StdDriver/src/clk.c:285:64
	lsrs	r1, r0, #14
	mov	r0, sp
	.loc	2 285 21                        @ ../../../../Library/StdDriver/src/clk.c:285:21
	adds	r0, r0, r1
	ldrb	r0, [r0]
	.loc	2 285 19                        @ ../../../../Library/StdDriver/src/clk.c:285:19
	str	r0, [sp, #4]
	.loc	2 286 24 is_stmt 1              @ ../../../../Library/StdDriver/src/clk.c:286:24
	ldr	r0, [sp, #20]
	movs	r1, #63
	.loc	2 286 31 is_stmt 0              @ ../../../../Library/StdDriver/src/clk.c:286:31
	ands	r0, r1
	.loc	2 286 20                        @ ../../../../Library/StdDriver/src/clk.c:286:20
	str	r0, [sp, #12]
	.loc	2 287 24 is_stmt 1              @ ../../../../Library/StdDriver/src/clk.c:287:24
	ldr	r0, [sp, #20]
	movw	r1, #7680
	.loc	2 287 31 is_stmt 0              @ ../../../../Library/StdDriver/src/clk.c:287:31
	ands	r0, r1
	.loc	2 287 55                        @ ../../../../Library/StdDriver/src/clk.c:287:55
	lsrs	r0, r0, #9
	.loc	2 287 20                        @ ../../../../Library/StdDriver/src/clk.c:287:20
	str	r0, [sp, #8]
	.loc	2 289 29 is_stmt 1              @ ../../../../Library/StdDriver/src/clk.c:289:29
	ldr	r0, [sp, #16]
	.loc	2 289 36 is_stmt 0              @ ../../../../Library/StdDriver/src/clk.c:289:36
	lsrs	r1, r0, #2
	.loc	2 289 44                        @ ../../../../Library/StdDriver/src/clk.c:289:44
	ldr	r0, [sp, #12]
	.loc	2 289 42                        @ ../../../../Library/StdDriver/src/clk.c:289:42
	muls	r0, r1, r0
	.loc	2 289 54                        @ ../../../../Library/StdDriver/src/clk.c:289:54
	ldr	r2, [sp, #8]
	.loc	2 289 62                        @ ../../../../Library/StdDriver/src/clk.c:289:62
	ldr	r1, [sp, #4]
	.loc	2 289 60                        @ ../../../../Library/StdDriver/src/clk.c:289:60
	muls	r1, r2, r1
	.loc	2 289 51                        @ ../../../../Library/StdDriver/src/clk.c:289:51
	udiv	r0, r0, r1
	.loc	2 289 69                        @ ../../../../Library/StdDriver/src/clk.c:289:69
	lsls	r0, r0, #2
	.loc	2 289 24                        @ ../../../../Library/StdDriver/src/clk.c:289:24
	str	r0, [sp, #24]
	b	.LBB10_10
.Ltmp44:
.LBB10_10:
	.loc	2 291 5 is_stmt 1               @ ../../../../Library/StdDriver/src/clk.c:291:5
	b	.LBB10_11
.Ltmp45:
.LBB10_11:
	.loc	2 293 12                        @ ../../../../Library/StdDriver/src/clk.c:293:12
	ldr	r0, [sp, #24]
	.loc	2 293 5 is_stmt 0               @ ../../../../Library/StdDriver/src/clk.c:293:5
	add	sp, #28
	bx	lr
.Ltmp46:
	.p2align	2
@ %bb.12:
	.loc	2 0 5                           @ ../../../../Library/StdDriver/src/clk.c:0:5
__arm_cp.10_0:
	.long	1073742400                      @ 0x40000240
.Lcpi_end20:
	.size	__arm_cp.10_0, .Lcpi_end20-__arm_cp.10_0
__arm_cp.10_1:
	.long	12000000                        @ 0xb71b00
.Lcpi_end21:
	.size	__arm_cp.10_1, .Lcpi_end21-__arm_cp.10_1
__arm_cp.10_2:
	.long	4032000                         @ 0x3d8600
.Lcpi_end22:
	.size	__arm_cp.10_2, .Lcpi_end22-__arm_cp.10_2
__arm_cp.10_3:
	.long	67371521                        @ 0x4040201
.Lcpi_end23:
	.size	__arm_cp.10_3, .Lcpi_end23-__arm_cp.10_3
.Lfunc_end10:
	.size	CLK_GetPLLClockFreq, .Lfunc_end10-CLK_GetPLLClockFreq
	.cfi_endproc
	.cantunwind
	.fnend
                                        @ -- End function
	.section	.text.CLK_DisablePLL,"ax",%progbits
	.hidden	CLK_DisablePLL                  @ -- Begin function CLK_DisablePLL
	.globl	CLK_DisablePLL
	.p2align	2
	.type	CLK_DisablePLL,%function
	.code	16                              @ @CLK_DisablePLL
	.thumb_func
CLK_DisablePLL:
.Lfunc_begin11:
	.loc	2 302 0 is_stmt 1               @ ../../../../Library/StdDriver/src/clk.c:302:0
	.fnstart
	.cfi_startproc
@ %bb.0:
	ldr	r1, __arm_cp.11_0
.Ltmp47:
	.loc	2 303 17 prologue_end           @ ../../../../Library/StdDriver/src/clk.c:303:17
	ldr	r0, [r1]
	movs	r2, #1
	lsls	r2, r2, #16
	orrs	r0, r2
	str	r0, [r1]
	.loc	2 304 1                         @ ../../../../Library/StdDriver/src/clk.c:304:1
	bx	lr
.Ltmp48:
	.p2align	2
@ %bb.1:
	.loc	2 0 1 is_stmt 0                 @ ../../../../Library/StdDriver/src/clk.c:0:1
__arm_cp.11_0:
	.long	1073742400                      @ 0x40000240
.Lcpi_end24:
	.size	__arm_cp.11_0, .Lcpi_end24-__arm_cp.11_0
.Lfunc_end11:
	.size	CLK_DisablePLL, .Lfunc_end11-CLK_DisablePLL
	.cfi_endproc
	.cantunwind
	.fnend
                                        @ -- End function
	.section	.text.CLK_EnablePLL,"ax",%progbits
	.hidden	CLK_EnablePLL                   @ -- Begin function CLK_EnablePLL
	.globl	CLK_EnablePLL
	.p2align	2
	.type	CLK_EnablePLL,%function
	.code	16                              @ @CLK_EnablePLL
	.thumb_func
CLK_EnablePLL:
.Lfunc_begin12:
	.loc	2 319 0 is_stmt 1               @ ../../../../Library/StdDriver/src/clk.c:319:0
	.fnstart
	.cfi_startproc
@ %bb.0:
	.save	{r7, lr}
	push	{r7, lr}
	.cfi_def_cfa_offset 8
	.cfi_offset lr, -4
	.cfi_offset r7, -8
	.pad	#72
	sub	sp, #72
	.cfi_def_cfa_offset 80
	str	r0, [sp, #64]
	str	r1, [sp, #60]
.Ltmp49:
	.loc	2 324 5 prologue_end            @ ../../../../Library/StdDriver/src/clk.c:324:5
	bl	CLK_DisablePLL
.Ltmp50:
	.loc	2 327 9                         @ ../../../../Library/StdDriver/src/clk.c:327:9
	ldr	r0, [sp, #64]
.Ltmp51:
	.loc	2 327 9 is_stmt 0               @ ../../../../Library/StdDriver/src/clk.c:327:9
	cbnz	r0, .LBB12_2
	b	.LBB12_1
.LBB12_1:
	.loc	2 0 9                           @ ../../../../Library/StdDriver/src/clk.c:0:9
	ldr	r2, __arm_cp.12_0
.Ltmp52:
	.loc	2 330 29 is_stmt 1              @ ../../../../Library/StdDriver/src/clk.c:330:29
	ldr	r1, [r2]
	movs	r0, #1
	.loc	2 330 61 is_stmt 0              @ ../../../../Library/StdDriver/src/clk.c:330:61
	orrs	r1, r0
	.loc	2 330 21                        @ ../../../../Library/StdDriver/src/clk.c:330:21
	str	r1, [r2]
	.loc	2 333 9 is_stmt 1               @ ../../../../Library/StdDriver/src/clk.c:333:9
	bl	CLK_WaitClockReady
	movs	r0, #0
	.loc	2 336 19                        @ ../../../../Library/StdDriver/src/clk.c:336:19
	str	r0, [sp, #40]
	ldr	r0, __arm_cp.12_2
	.loc	2 337 22                        @ ../../../../Library/StdDriver/src/clk.c:337:22
	str	r0, [sp, #56]
	.loc	2 338 5                         @ ../../../../Library/StdDriver/src/clk.c:338:5
	b	.LBB12_6
.Ltmp53:
.LBB12_2:
	.loc	2 340 14                        @ ../../../../Library/StdDriver/src/clk.c:340:14
	ldr	r0, [sp, #64]
	movs	r1, #1
	lsls	r1, r1, #19
.Ltmp54:
	.loc	2 340 14 is_stmt 0              @ ../../../../Library/StdDriver/src/clk.c:340:14
	cmp	r0, r1
	bne	.LBB12_4
	b	.LBB12_3
.LBB12_3:
	.loc	2 0 14                          @ ../../../../Library/StdDriver/src/clk.c:0:14
	ldr	r1, __arm_cp.12_0
.Ltmp55:
	.loc	2 343 21 is_stmt 1              @ ../../../../Library/StdDriver/src/clk.c:343:21
	ldr	r0, [r1]
	movs	r2, #4
	orrs	r0, r2
	str	r0, [r1]
	.loc	2 345 21                        @ ../../../../Library/StdDriver/src/clk.c:345:21
	ldr	r0, [r1]
	movs	r2, #1
	lsls	r2, r2, #19
	str	r2, [sp, #4]                    @ 4-byte Spill
	orrs	r0, r2
	str	r0, [r1]
	movs	r0, #16
	.loc	2 348 9                         @ ../../../../Library/StdDriver/src/clk.c:348:9
	bl	CLK_WaitClockReady
	movs	r0, #64
	.loc	2 350 9                         @ ../../../../Library/StdDriver/src/clk.c:350:9
	bl	CLK_WaitClockReady
                                        @ kill: def $r1 killed $r0
	.loc	2 353 19                        @ ../../../../Library/StdDriver/src/clk.c:353:19
	ldr	r0, [sp, #4]                    @ 4-byte Reload
	str	r0, [sp, #40]
	ldr	r0, __arm_cp.12_2
	.loc	2 354 22                        @ ../../../../Library/StdDriver/src/clk.c:354:22
	str	r0, [sp, #56]
	.loc	2 355 5                         @ ../../../../Library/StdDriver/src/clk.c:355:5
	b	.LBB12_5
.Ltmp56:
.LBB12_4:
	.loc	2 0 5 is_stmt 0                 @ ../../../../Library/StdDriver/src/clk.c:0:5
	ldr	r1, __arm_cp.12_0
.Ltmp57:
	.loc	2 359 21 is_stmt 1              @ ../../../../Library/StdDriver/src/clk.c:359:21
	ldr	r0, [r1]
	movs	r2, #1
	lsls	r2, r2, #19
	orrs	r0, r2
	str	r0, [r1]
	.loc	2 361 21                        @ ../../../../Library/StdDriver/src/clk.c:361:21
	ldr	r0, [r1]
	movs	r2, #4
	orrs	r0, r2
	str	r0, [r1]
	movs	r0, #64
	.loc	2 364 9                         @ ../../../../Library/StdDriver/src/clk.c:364:9
	bl	CLK_WaitClockReady
	movs	r0, #16
	.loc	2 366 9                         @ ../../../../Library/StdDriver/src/clk.c:366:9
	bl	CLK_WaitClockReady
	movs	r0, #3
	lsls	r0, r0, #19
	.loc	2 369 19                        @ ../../../../Library/StdDriver/src/clk.c:369:19
	str	r0, [sp, #40]
	ldr	r0, __arm_cp.12_1
	.loc	2 370 22                        @ ../../../../Library/StdDriver/src/clk.c:370:22
	str	r0, [sp, #56]
	b	.LBB12_5
.Ltmp58:
.LBB12_5:
	.loc	2 0 22 is_stmt 0                @ ../../../../Library/StdDriver/src/clk.c:0:22
	b	.LBB12_6
.LBB12_6:
.Ltmp59:
	.loc	2 373 10 is_stmt 1              @ ../../../../Library/StdDriver/src/clk.c:373:10
	ldr	r0, [sp, #60]
	ldr	r1, __arm_cp.12_3
	.loc	2 373 37 is_stmt 0              @ ../../../../Library/StdDriver/src/clk.c:373:37
	cmp	r0, r1
	bls	.LBB12_7
	b	.LBB12_50
.LBB12_7:
	.loc	2 373 41                        @ ../../../../Library/StdDriver/src/clk.c:373:41
	ldr	r0, [sp, #60]
	ldr	r1, __arm_cp.12_4
.Ltmp60:
	.loc	2 373 9                         @ ../../../../Library/StdDriver/src/clk.c:373:9
	cmp	r0, r1
	bhs	.LBB12_8
	b	.LBB12_50
.LBB12_8:
	.loc	2 0 9                           @ ../../../../Library/StdDriver/src/clk.c:0:9
	movs	r0, #0
	mvns	r1, r0
.Ltmp61:
	.loc	2 376 16 is_stmt 1              @ ../../../../Library/StdDriver/src/clk.c:376:16
	str	r1, [sp, #24]
	.loc	2 377 18                        @ ../../../../Library/StdDriver/src/clk.c:377:18
	str	r0, [sp, #16]
	.loc	2 378 18                        @ ../../../../Library/StdDriver/src/clk.c:378:18
	str	r0, [sp, #20]
	.loc	2 379 18                        @ ../../../../Library/StdDriver/src/clk.c:379:18
	str	r0, [sp, #12]
	.loc	2 380 26                        @ ../../../../Library/StdDriver/src/clk.c:380:26
	ldr	r1, [sp, #60]
	.loc	2 380 24 is_stmt 0              @ ../../../../Library/StdDriver/src/clk.c:380:24
	str	r1, [sp, #8]
.Ltmp62:
	.loc	2 382 20 is_stmt 1              @ ../../../../Library/StdDriver/src/clk.c:382:20
	str	r0, [sp, #44]
	.loc	2 382 14 is_stmt 0              @ ../../../../Library/StdDriver/src/clk.c:382:14
	b	.LBB12_9
.LBB12_9:                               @ =>This Loop Header: Depth=1
                                        @     Child Loop BB12_20 Depth 2
                                        @       Child Loop BB12_24 Depth 3
.Ltmp63:
	.loc	2 382 27                        @ ../../../../Library/StdDriver/src/clk.c:382:27
	ldr	r0, [sp, #44]
.Ltmp64:
	.loc	2 382 9                         @ ../../../../Library/StdDriver/src/clk.c:382:9
	cmp	r0, #3
	bls	.LBB12_10
	b	.LBB12_49
.LBB12_10:                              @   in Loop: Header=BB12_9 Depth=1
.Ltmp65:
	.loc	2 385 17 is_stmt 1              @ ../../../../Library/StdDriver/src/clk.c:385:17
	ldr	r0, [sp, #24]
.Ltmp66:
	.loc	2 385 17 is_stmt 0              @ ../../../../Library/StdDriver/src/clk.c:385:17
	cbnz	r0, .LBB12_12
	b	.LBB12_11
.LBB12_11:
.Ltmp67:
	.loc	2 386 17 is_stmt 1              @ ../../../../Library/StdDriver/src/clk.c:386:17
	b	.LBB12_49
.Ltmp68:
.LBB12_12:                              @   in Loop: Header=BB12_9 Depth=1
	.loc	2 388 17                        @ ../../../../Library/StdDriver/src/clk.c:388:17
	ldr	r0, [sp, #44]
.Ltmp69:
	.loc	2 388 17 is_stmt 0              @ ../../../../Library/StdDriver/src/clk.c:388:17
	cmp	r0, #2
	bne	.LBB12_13
	b	.LBB12_47
.LBB12_13:                              @   in Loop: Header=BB12_9 Depth=1
.Ltmp70:
	.loc	2 390 21 is_stmt 1              @ ../../../../Library/StdDriver/src/clk.c:390:21
	ldr	r0, [sp, #44]
.Ltmp71:
	.loc	2 390 21 is_stmt 0              @ ../../../../Library/StdDriver/src/clk.c:390:21
	cmp	r0, #3
	bne	.LBB12_15
	b	.LBB12_14
.LBB12_14:                              @   in Loop: Header=BB12_9 Depth=1
.Ltmp72:
	.loc	2 392 34 is_stmt 1              @ ../../../../Library/StdDriver/src/clk.c:392:34
	ldr	r0, [sp, #8]
	.loc	2 392 49 is_stmt 0              @ ../../../../Library/StdDriver/src/clk.c:392:49
	lsls	r0, r0, #2
	.loc	2 392 32                        @ ../../../../Library/StdDriver/src/clk.c:392:32
	str	r0, [sp, #60]
	.loc	2 393 17 is_stmt 1              @ ../../../../Library/StdDriver/src/clk.c:393:17
	b	.LBB12_19
.Ltmp73:
.LBB12_15:                              @   in Loop: Header=BB12_9 Depth=1
	.loc	2 394 26                        @ ../../../../Library/StdDriver/src/clk.c:394:26
	ldr	r0, [sp, #44]
.Ltmp74:
	.loc	2 394 26 is_stmt 0              @ ../../../../Library/StdDriver/src/clk.c:394:26
	cmp	r0, #1
	bne	.LBB12_17
	b	.LBB12_16
.LBB12_16:                              @   in Loop: Header=BB12_9 Depth=1
.Ltmp75:
	.loc	2 396 34 is_stmt 1              @ ../../../../Library/StdDriver/src/clk.c:396:34
	ldr	r0, [sp, #8]
	.loc	2 396 49 is_stmt 0              @ ../../../../Library/StdDriver/src/clk.c:396:49
	lsls	r0, r0, #1
	.loc	2 396 32                        @ ../../../../Library/StdDriver/src/clk.c:396:32
	str	r0, [sp, #60]
	.loc	2 397 17 is_stmt 1              @ ../../../../Library/StdDriver/src/clk.c:397:17
	b	.LBB12_18
.Ltmp76:
.LBB12_17:                              @   in Loop: Header=BB12_9 Depth=1
	.loc	2 0 17 is_stmt 0                @ ../../../../Library/StdDriver/src/clk.c:0:17
	b	.LBB12_18
.LBB12_18:                              @   in Loop: Header=BB12_9 Depth=1
	b	.LBB12_19
.LBB12_19:                              @   in Loop: Header=BB12_9 Depth=1
	movs	r0, #1
.Ltmp77:
	.loc	2 402 28 is_stmt 1              @ ../../../../Library/StdDriver/src/clk.c:402:28
	str	r0, [sp, #52]
	.loc	2 402 22 is_stmt 0              @ ../../../../Library/StdDriver/src/clk.c:402:22
	b	.LBB12_20
.LBB12_20:                              @   Parent Loop BB12_9 Depth=1
                                        @ =>  This Loop Header: Depth=2
                                        @       Child Loop BB12_24 Depth 3
.Ltmp78:
	.loc	2 402 35                        @ ../../../../Library/StdDriver/src/clk.c:402:35
	ldr	r0, [sp, #52]
.Ltmp79:
	.loc	2 402 17                        @ ../../../../Library/StdDriver/src/clk.c:402:17
	cmp	r0, #6
	bhi	.LBB12_46
	b	.LBB12_21
.LBB12_21:                              @   in Loop: Header=BB12_20 Depth=2
.Ltmp80:
	.loc	2 404 30 is_stmt 1              @ ../../../../Library/StdDriver/src/clk.c:404:30
	ldr	r0, [sp, #56]
	.loc	2 404 45 is_stmt 0              @ ../../../../Library/StdDriver/src/clk.c:404:45
	ldr	r1, [sp, #52]
	.loc	2 404 43                        @ ../../../../Library/StdDriver/src/clk.c:404:43
	udiv	r0, r0, r1
	.loc	2 404 28                        @ ../../../../Library/StdDriver/src/clk.c:404:28
	str	r0, [sp, #36]
.Ltmp81:
	.loc	2 406 25 is_stmt 1              @ ../../../../Library/StdDriver/src/clk.c:406:25
	ldr	r0, [sp, #36]
	ldr	r1, __arm_cp.12_13
	.loc	2 406 45 is_stmt 0              @ ../../../../Library/StdDriver/src/clk.c:406:45
	cmp	r0, r1
	blo	.LBB12_44
	b	.LBB12_22
.LBB12_22:                              @   in Loop: Header=BB12_20 Depth=2
	.loc	2 406 48                        @ ../../../../Library/StdDriver/src/clk.c:406:48
	ldr	r0, [sp, #36]
	ldr	r1, __arm_cp.12_14
.Ltmp82:
	.loc	2 406 25                        @ ../../../../Library/StdDriver/src/clk.c:406:25
	cmp	r0, r1
	bhi	.LBB12_44
	b	.LBB12_23
.LBB12_23:                              @   in Loop: Header=BB12_20 Depth=2
	.loc	2 0 25                          @ ../../../../Library/StdDriver/src/clk.c:0:25
	movs	r0, #8
.Ltmp83:
	.loc	2 408 36 is_stmt 1              @ ../../../../Library/StdDriver/src/clk.c:408:36
	str	r0, [sp, #48]
	.loc	2 408 30 is_stmt 0              @ ../../../../Library/StdDriver/src/clk.c:408:30
	b	.LBB12_24
.LBB12_24:                              @   Parent Loop BB12_9 Depth=1
                                        @     Parent Loop BB12_20 Depth=2
                                        @ =>    This Inner Loop Header: Depth=3
.Ltmp84:
	.loc	2 408 43                        @ ../../../../Library/StdDriver/src/clk.c:408:43
	ldr	r0, [sp, #48]
.Ltmp85:
	.loc	2 408 25                        @ ../../../../Library/StdDriver/src/clk.c:408:25
	cmp	r0, #25
	bhi	.LBB12_43
	b	.LBB12_25
.LBB12_25:                              @   in Loop: Header=BB12_24 Depth=3
.Ltmp86:
	.loc	2 410 39 is_stmt 1              @ ../../../../Library/StdDriver/src/clk.c:410:39
	ldr	r1, [sp, #36]
	.loc	2 410 48 is_stmt 0              @ ../../../../Library/StdDriver/src/clk.c:410:48
	ldr	r0, [sp, #48]
	.loc	2 410 46                        @ ../../../../Library/StdDriver/src/clk.c:410:46
	muls	r0, r1, r0
	.loc	2 410 37                        @ ../../../../Library/StdDriver/src/clk.c:410:37
	str	r0, [sp, #32]
.Ltmp87:
	.loc	2 412 34 is_stmt 1              @ ../../../../Library/StdDriver/src/clk.c:412:34
	ldr	r0, [sp, #32]
	ldr	r1, __arm_cp.12_15
	.loc	2 412 57 is_stmt 0              @ ../../../../Library/StdDriver/src/clk.c:412:57
	cmp	r0, r1
	blo	.LBB12_41
	b	.LBB12_26
.LBB12_26:                              @   in Loop: Header=BB12_24 Depth=3
	.loc	2 412 61                        @ ../../../../Library/StdDriver/src/clk.c:412:61
	ldr	r0, [sp, #32]
	ldr	r1, __arm_cp.12_3
.Ltmp88:
	.loc	2 412 33                        @ ../../../../Library/StdDriver/src/clk.c:412:33
	cmp	r0, r1
	bhi	.LBB12_41
	b	.LBB12_27
.LBB12_27:                              @   in Loop: Header=BB12_24 Depth=3
.Ltmp89:
	.loc	2 414 44 is_stmt 1              @ ../../../../Library/StdDriver/src/clk.c:414:44
	ldr	r0, [sp, #32]
	.loc	2 414 54 is_stmt 0              @ ../../../../Library/StdDriver/src/clk.c:414:54
	ldr	r1, [sp, #60]
	.loc	2 414 43                        @ ../../../../Library/StdDriver/src/clk.c:414:43
	cmp	r0, r1
	bls	.LBB12_29
	b	.LBB12_28
.LBB12_28:                              @   in Loop: Header=BB12_24 Depth=3
	.loc	2 414 69                        @ ../../../../Library/StdDriver/src/clk.c:414:69
	ldr	r0, [sp, #32]
	.loc	2 414 79                        @ ../../../../Library/StdDriver/src/clk.c:414:79
	ldr	r1, [sp, #60]
	.loc	2 414 77                        @ ../../../../Library/StdDriver/src/clk.c:414:77
	subs	r0, r0, r1
	.loc	2 414 43                        @ ../../../../Library/StdDriver/src/clk.c:414:43
	str	r0, [sp]                        @ 4-byte Spill
	b	.LBB12_30
.LBB12_29:                              @   in Loop: Header=BB12_24 Depth=3
	.loc	2 414 94                        @ ../../../../Library/StdDriver/src/clk.c:414:94
	ldr	r0, [sp, #60]
	.loc	2 414 107                       @ ../../../../Library/StdDriver/src/clk.c:414:107
	ldr	r1, [sp, #32]
	.loc	2 414 105                       @ ../../../../Library/StdDriver/src/clk.c:414:105
	subs	r0, r0, r1
	.loc	2 414 43                        @ ../../../../Library/StdDriver/src/clk.c:414:43
	str	r0, [sp]                        @ 4-byte Spill
	b	.LBB12_30
.LBB12_30:                              @   in Loop: Header=BB12_24 Depth=3
	ldr	r0, [sp]                        @ 4-byte Reload
	.loc	2 414 41                        @ ../../../../Library/StdDriver/src/clk.c:414:41
	str	r0, [sp, #28]
.Ltmp90:
	.loc	2 416 37 is_stmt 1              @ ../../../../Library/StdDriver/src/clk.c:416:37
	ldr	r0, [sp, #44]
.Ltmp91:
	.loc	2 416 37 is_stmt 0              @ ../../../../Library/StdDriver/src/clk.c:416:37
	cmp	r0, #3
	bne	.LBB12_32
	b	.LBB12_31
.LBB12_31:                              @   in Loop: Header=BB12_24 Depth=3
.Ltmp92:
	.loc	2 418 47 is_stmt 1              @ ../../../../Library/StdDriver/src/clk.c:418:47
	ldr	r0, [sp, #28]
	.loc	2 418 55 is_stmt 0              @ ../../../../Library/StdDriver/src/clk.c:418:55
	lsrs	r0, r0, #2
	.loc	2 418 45                        @ ../../../../Library/StdDriver/src/clk.c:418:45
	str	r0, [sp, #28]
	.loc	2 419 33 is_stmt 1              @ ../../../../Library/StdDriver/src/clk.c:419:33
	b	.LBB12_36
.Ltmp93:
.LBB12_32:                              @   in Loop: Header=BB12_24 Depth=3
	.loc	2 420 42                        @ ../../../../Library/StdDriver/src/clk.c:420:42
	ldr	r0, [sp, #44]
.Ltmp94:
	.loc	2 420 42 is_stmt 0              @ ../../../../Library/StdDriver/src/clk.c:420:42
	cmp	r0, #1
	bne	.LBB12_34
	b	.LBB12_33
.LBB12_33:                              @   in Loop: Header=BB12_24 Depth=3
.Ltmp95:
	.loc	2 422 47 is_stmt 1              @ ../../../../Library/StdDriver/src/clk.c:422:47
	ldr	r0, [sp, #28]
	.loc	2 422 55 is_stmt 0              @ ../../../../Library/StdDriver/src/clk.c:422:55
	lsrs	r0, r0, #1
	.loc	2 422 45                        @ ../../../../Library/StdDriver/src/clk.c:422:45
	str	r0, [sp, #28]
	.loc	2 423 33 is_stmt 1              @ ../../../../Library/StdDriver/src/clk.c:423:33
	b	.LBB12_35
.Ltmp96:
.LBB12_34:                              @   in Loop: Header=BB12_24 Depth=3
	.loc	2 0 33 is_stmt 0                @ ../../../../Library/StdDriver/src/clk.c:0:33
	b	.LBB12_35
.LBB12_35:                              @   in Loop: Header=BB12_24 Depth=3
	b	.LBB12_36
.LBB12_36:                              @   in Loop: Header=BB12_24 Depth=3
.Ltmp97:
	.loc	2 428 37 is_stmt 1              @ ../../../../Library/StdDriver/src/clk.c:428:37
	ldr	r0, [sp, #28]
	.loc	2 428 47 is_stmt 0              @ ../../../../Library/StdDriver/src/clk.c:428:47
	ldr	r1, [sp, #24]
.Ltmp98:
	.loc	2 428 37                        @ ../../../../Library/StdDriver/src/clk.c:428:37
	cmp	r0, r1
	bhs	.LBB12_40
	b	.LBB12_37
.LBB12_37:                              @   in Loop: Header=BB12_24 Depth=3
.Ltmp99:
	.loc	2 430 46 is_stmt 1              @ ../../../../Library/StdDriver/src/clk.c:430:46
	ldr	r0, [sp, #28]
	.loc	2 430 44 is_stmt 0              @ ../../../../Library/StdDriver/src/clk.c:430:44
	str	r0, [sp, #24]
	.loc	2 431 48 is_stmt 1              @ ../../../../Library/StdDriver/src/clk.c:431:48
	ldr	r0, [sp, #52]
	.loc	2 431 46 is_stmt 0              @ ../../../../Library/StdDriver/src/clk.c:431:46
	str	r0, [sp, #16]
	.loc	2 432 48 is_stmt 1              @ ../../../../Library/StdDriver/src/clk.c:432:48
	ldr	r0, [sp, #48]
	.loc	2 432 46 is_stmt 0              @ ../../../../Library/StdDriver/src/clk.c:432:46
	str	r0, [sp, #20]
	.loc	2 433 48 is_stmt 1              @ ../../../../Library/StdDriver/src/clk.c:433:48
	ldr	r0, [sp, #44]
	.loc	2 433 46 is_stmt 0              @ ../../../../Library/StdDriver/src/clk.c:433:46
	str	r0, [sp, #12]
.Ltmp100:
	.loc	2 436 41 is_stmt 1              @ ../../../../Library/StdDriver/src/clk.c:436:41
	ldr	r0, [sp, #24]
.Ltmp101:
	.loc	2 436 41 is_stmt 0              @ ../../../../Library/StdDriver/src/clk.c:436:41
	cbnz	r0, .LBB12_39
	b	.LBB12_38
.LBB12_38:                              @   in Loop: Header=BB12_20 Depth=2
.Ltmp102:
	.loc	2 437 41 is_stmt 1              @ ../../../../Library/StdDriver/src/clk.c:437:41
	b	.LBB12_43
.Ltmp103:
.LBB12_39:                              @   in Loop: Header=BB12_24 Depth=3
	.loc	2 438 33                        @ ../../../../Library/StdDriver/src/clk.c:438:33
	b	.LBB12_40
.Ltmp104:
.LBB12_40:                              @   in Loop: Header=BB12_24 Depth=3
	.loc	2 439 29                        @ ../../../../Library/StdDriver/src/clk.c:439:29
	b	.LBB12_41
.Ltmp105:
.LBB12_41:                              @   in Loop: Header=BB12_24 Depth=3
	.loc	2 440 25                        @ ../../../../Library/StdDriver/src/clk.c:440:25
	b	.LBB12_42
.Ltmp106:
.LBB12_42:                              @   in Loop: Header=BB12_24 Depth=3
	.loc	2 408 63                        @ ../../../../Library/StdDriver/src/clk.c:408:63
	ldr	r0, [sp, #48]
	adds	r0, r0, #1
	str	r0, [sp, #48]
	.loc	2 408 25 is_stmt 0              @ ../../../../Library/StdDriver/src/clk.c:408:25
	b	.LBB12_24
.Ltmp107:
.LBB12_43:                              @   in Loop: Header=BB12_20 Depth=2
	.loc	2 441 21 is_stmt 1              @ ../../../../Library/StdDriver/src/clk.c:441:21
	b	.LBB12_44
.Ltmp108:
.LBB12_44:                              @   in Loop: Header=BB12_20 Depth=2
	.loc	2 442 17                        @ ../../../../Library/StdDriver/src/clk.c:442:17
	b	.LBB12_45
.Ltmp109:
.LBB12_45:                              @   in Loop: Header=BB12_20 Depth=2
	.loc	2 402 54                        @ ../../../../Library/StdDriver/src/clk.c:402:54
	ldr	r0, [sp, #52]
	adds	r0, r0, #1
	str	r0, [sp, #52]
	.loc	2 402 17 is_stmt 0              @ ../../../../Library/StdDriver/src/clk.c:402:17
	b	.LBB12_20
.Ltmp110:
.LBB12_46:                              @   in Loop: Header=BB12_9 Depth=1
	.loc	2 443 13 is_stmt 1              @ ../../../../Library/StdDriver/src/clk.c:443:13
	b	.LBB12_47
.Ltmp111:
.LBB12_47:                              @   in Loop: Header=BB12_9 Depth=1
	.loc	2 444 9                         @ ../../../../Library/StdDriver/src/clk.c:444:9
	b	.LBB12_48
.Ltmp112:
.LBB12_48:                              @   in Loop: Header=BB12_9 Depth=1
	.loc	2 382 46                        @ ../../../../Library/StdDriver/src/clk.c:382:46
	ldr	r0, [sp, #44]
	adds	r0, r0, #1
	str	r0, [sp, #44]
	.loc	2 382 9 is_stmt 0               @ ../../../../Library/StdDriver/src/clk.c:382:9
	b	.LBB12_9
.Ltmp113:
.LBB12_49:
	.loc	2 445 5 is_stmt 1               @ ../../../../Library/StdDriver/src/clk.c:445:5
	b	.LBB12_51
.Ltmp114:
.LBB12_50:
	.loc	2 449 9                         @ ../../../../Library/StdDriver/src/clk.c:449:9
	b	.LBB12_52
.Ltmp115:
.LBB12_51:
	.loc	2 453 19                        @ ../../../../Library/StdDriver/src/clk.c:453:19
	ldr	r0, [sp, #40]
	.loc	2 453 32 is_stmt 0              @ ../../../../Library/StdDriver/src/clk.c:453:32
	ldr	r1, [sp, #12]
	.loc	2 453 41                        @ ../../../../Library/StdDriver/src/clk.c:453:41
	lsls	r1, r1, #14
	.loc	2 453 29                        @ ../../../../Library/StdDriver/src/clk.c:453:29
	orrs	r0, r1
	.loc	2 453 52                        @ ../../../../Library/StdDriver/src/clk.c:453:52
	ldr	r1, [sp, #16]
	.loc	2 453 62                        @ ../../../../Library/StdDriver/src/clk.c:453:62
	lsls	r1, r1, #9
	.loc	2 453 48                        @ ../../../../Library/StdDriver/src/clk.c:453:48
	orrs	r0, r1
	.loc	2 453 71                        @ ../../../../Library/StdDriver/src/clk.c:453:71
	ldr	r1, [sp, #20]
	.loc	2 453 68                        @ ../../../../Library/StdDriver/src/clk.c:453:68
	orrs	r0, r1
	ldr	r1, __arm_cp.12_6
	.loc	2 453 17                        @ ../../../../Library/StdDriver/src/clk.c:453:17
	str	r0, [r1]
	movs	r0, #4
	.loc	2 456 5 is_stmt 1               @ ../../../../Library/StdDriver/src/clk.c:456:5
	bl	CLK_WaitClockReady
	.loc	2 459 12                        @ ../../../../Library/StdDriver/src/clk.c:459:12
	ldr	r0, [sp, #56]
	.loc	2 459 29 is_stmt 0              @ ../../../../Library/StdDriver/src/clk.c:459:29
	ldr	r1, [sp, #12]
	.loc	2 459 38                        @ ../../../../Library/StdDriver/src/clk.c:459:38
	adds	r2, r1, #1
	.loc	2 459 47                        @ ../../../../Library/StdDriver/src/clk.c:459:47
	ldr	r1, [sp, #16]
	.loc	2 459 45                        @ ../../../../Library/StdDriver/src/clk.c:459:45
	muls	r1, r2, r1
	.loc	2 459 25                        @ ../../../../Library/StdDriver/src/clk.c:459:25
	udiv	r1, r0, r1
	.loc	2 459 59                        @ ../../../../Library/StdDriver/src/clk.c:459:59
	ldr	r0, [sp, #20]
	.loc	2 459 57                        @ ../../../../Library/StdDriver/src/clk.c:459:57
	muls	r0, r1, r0
	.loc	2 459 5                         @ ../../../../Library/StdDriver/src/clk.c:459:5
	str	r0, [sp, #68]
	b	.LBB12_68
.LBB12_52:
.Ltmp116:
	@DEBUG_LABEL: CLK_EnablePLL:lexit
	.loc	2 464 9 is_stmt 1               @ ../../../../Library/StdDriver/src/clk.c:464:9
	ldr	r0, [sp, #60]
	ldr	r1, __arm_cp.12_5
.Ltmp117:
	.loc	2 464 9 is_stmt 0               @ ../../../../Library/StdDriver/src/clk.c:464:9
	cmp	r0, r1
	bhi	.LBB12_60
	b	.LBB12_53
.LBB12_53:
.Ltmp118:
	.loc	2 466 13 is_stmt 1              @ ../../../../Library/StdDriver/src/clk.c:466:13
	ldr	r0, [sp, #64]
.Ltmp119:
	.loc	2 466 13 is_stmt 0              @ ../../../../Library/StdDriver/src/clk.c:466:13
	cbnz	r0, .LBB12_55
	b	.LBB12_54
.LBB12_54:
	.loc	2 0 13                          @ ../../../../Library/StdDriver/src/clk.c:0:13
	ldr	r1, __arm_cp.12_6
	ldr	r0, __arm_cp.12_12
.Ltmp120:
	.loc	2 467 25 is_stmt 1              @ ../../../../Library/StdDriver/src/clk.c:467:25
	str	r0, [r1]
	.loc	2 467 13 is_stmt 0              @ ../../../../Library/StdDriver/src/clk.c:467:13
	b	.LBB12_59
.LBB12_55:
.Ltmp121:
	.loc	2 468 18 is_stmt 1              @ ../../../../Library/StdDriver/src/clk.c:468:18
	ldr	r0, [sp, #64]
	movs	r1, #1
	lsls	r1, r1, #19
.Ltmp122:
	.loc	2 468 18 is_stmt 0              @ ../../../../Library/StdDriver/src/clk.c:468:18
	cmp	r0, r1
	bne	.LBB12_57
	b	.LBB12_56
.LBB12_56:
	.loc	2 0 18                          @ ../../../../Library/StdDriver/src/clk.c:0:18
	ldr	r1, __arm_cp.12_6
	ldr	r0, __arm_cp.12_11
.Ltmp123:
	.loc	2 469 25 is_stmt 1              @ ../../../../Library/StdDriver/src/clk.c:469:25
	str	r0, [r1]
	.loc	2 469 13 is_stmt 0              @ ../../../../Library/StdDriver/src/clk.c:469:13
	b	.LBB12_58
.LBB12_57:
	.loc	2 0 13                          @ ../../../../Library/StdDriver/src/clk.c:0:13
	ldr	r1, __arm_cp.12_6
	ldr	r0, __arm_cp.12_10
	.loc	2 471 25 is_stmt 1              @ ../../../../Library/StdDriver/src/clk.c:471:25
	str	r0, [r1]
	b	.LBB12_58
.Ltmp124:
.LBB12_58:
	.loc	2 0 25 is_stmt 0                @ ../../../../Library/StdDriver/src/clk.c:0:25
	b	.LBB12_59
.LBB12_59:
	.loc	2 472 5 is_stmt 1               @ ../../../../Library/StdDriver/src/clk.c:472:5
	b	.LBB12_67
.Ltmp125:
.LBB12_60:
	.loc	2 475 13                        @ ../../../../Library/StdDriver/src/clk.c:475:13
	ldr	r0, [sp, #64]
.Ltmp126:
	.loc	2 475 13 is_stmt 0              @ ../../../../Library/StdDriver/src/clk.c:475:13
	cbnz	r0, .LBB12_62
	b	.LBB12_61
.LBB12_61:
	.loc	2 0 13                          @ ../../../../Library/StdDriver/src/clk.c:0:13
	ldr	r1, __arm_cp.12_6
	ldr	r0, __arm_cp.12_9
.Ltmp127:
	.loc	2 476 25 is_stmt 1              @ ../../../../Library/StdDriver/src/clk.c:476:25
	str	r0, [r1]
	.loc	2 476 13 is_stmt 0              @ ../../../../Library/StdDriver/src/clk.c:476:13
	b	.LBB12_66
.LBB12_62:
.Ltmp128:
	.loc	2 477 18 is_stmt 1              @ ../../../../Library/StdDriver/src/clk.c:477:18
	ldr	r0, [sp, #64]
	movs	r1, #1
	lsls	r1, r1, #19
.Ltmp129:
	.loc	2 477 18 is_stmt 0              @ ../../../../Library/StdDriver/src/clk.c:477:18
	cmp	r0, r1
	bne	.LBB12_64
	b	.LBB12_63
.LBB12_63:
	.loc	2 0 18                          @ ../../../../Library/StdDriver/src/clk.c:0:18
	ldr	r1, __arm_cp.12_6
	ldr	r0, __arm_cp.12_8
.Ltmp130:
	.loc	2 478 25 is_stmt 1              @ ../../../../Library/StdDriver/src/clk.c:478:25
	str	r0, [r1]
	.loc	2 478 13 is_stmt 0              @ ../../../../Library/StdDriver/src/clk.c:478:13
	b	.LBB12_65
.LBB12_64:
	.loc	2 0 13                          @ ../../../../Library/StdDriver/src/clk.c:0:13
	ldr	r1, __arm_cp.12_6
	ldr	r0, __arm_cp.12_7
	.loc	2 480 25 is_stmt 1              @ ../../../../Library/StdDriver/src/clk.c:480:25
	str	r0, [r1]
	b	.LBB12_65
.Ltmp131:
.LBB12_65:
	.loc	2 0 25 is_stmt 0                @ ../../../../Library/StdDriver/src/clk.c:0:25
	b	.LBB12_66
.LBB12_66:
	b	.LBB12_67
.LBB12_67:
	movs	r0, #4
	.loc	2 484 5 is_stmt 1               @ ../../../../Library/StdDriver/src/clk.c:484:5
	bl	CLK_WaitClockReady
	.loc	2 486 12                        @ ../../../../Library/StdDriver/src/clk.c:486:12
	bl	CLK_GetPLLClockFreq
	.loc	2 486 5 is_stmt 0               @ ../../../../Library/StdDriver/src/clk.c:486:5
	str	r0, [sp, #68]
	b	.LBB12_68
.LBB12_68:
	.loc	2 488 1 is_stmt 1               @ ../../../../Library/StdDriver/src/clk.c:488:1
	ldr	r0, [sp, #68]
	add	sp, #72
	pop	{r7, pc}
.Ltmp132:
	.p2align	2
@ %bb.69:
	.loc	2 0 1 is_stmt 0                 @ ../../../../Library/StdDriver/src/clk.c:0:1
__arm_cp.12_0:
	.long	1073742336                      @ 0x40000200
.Lcpi_end25:
	.size	__arm_cp.12_0, .Lcpi_end25-__arm_cp.12_0
__arm_cp.12_1:
	.long	4032000                         @ 0x3d8600
.Lcpi_end26:
	.size	__arm_cp.12_1, .Lcpi_end26-__arm_cp.12_1
__arm_cp.12_2:
	.long	12000000                        @ 0xb71b00
.Lcpi_end27:
	.size	__arm_cp.12_2, .Lcpi_end27-__arm_cp.12_2
__arm_cp.12_3:
	.long	100000000                       @ 0x5f5e100
.Lcpi_end28:
	.size	__arm_cp.12_3, .Lcpi_end28-__arm_cp.12_3
__arm_cp.12_4:
	.long	16000000                        @ 0xf42400
.Lcpi_end29:
	.size	__arm_cp.12_4, .Lcpi_end29-__arm_cp.12_4
__arm_cp.12_5:
	.long	15999999                        @ 0xf423ff
.Lcpi_end30:
	.size	__arm_cp.12_5, .Lcpi_end30-__arm_cp.12_5
__arm_cp.12_6:
	.long	1073742400                      @ 0x40000240
.Lcpi_end31:
	.size	__arm_cp.12_6, .Lcpi_end31-__arm_cp.12_6
__arm_cp.12_7:
	.long	1573401                         @ 0x180219
.Lcpi_end32:
	.size	__arm_cp.12_7, .Lcpi_end32-__arm_cp.12_7
__arm_cp.12_8:
	.long	525849                          @ 0x80619
.Lcpi_end33:
	.size	__arm_cp.12_8, .Lcpi_end33-__arm_cp.12_8
__arm_cp.12_9:
	.long	1561                            @ 0x619
.Lcpi_end34:
	.size	__arm_cp.12_9, .Lcpi_end34-__arm_cp.12_9
__arm_cp.12_10:
	.long	1622544                         @ 0x18c210
.Lcpi_end35:
	.size	__arm_cp.12_10, .Lcpi_end35-__arm_cp.12_10
__arm_cp.12_11:
	.long	574992                          @ 0x8c610
.Lcpi_end36:
	.size	__arm_cp.12_11, .Lcpi_end36-__arm_cp.12_11
__arm_cp.12_12:
	.long	50704                           @ 0xc610
.Lcpi_end37:
	.size	__arm_cp.12_12, .Lcpi_end37-__arm_cp.12_12
__arm_cp.12_13:
	.long	4000000                         @ 0x3d0900
.Lcpi_end38:
	.size	__arm_cp.12_13, .Lcpi_end38-__arm_cp.12_13
__arm_cp.12_14:
	.long	8000000                         @ 0x7a1200
.Lcpi_end39:
	.size	__arm_cp.12_14, .Lcpi_end39-__arm_cp.12_14
__arm_cp.12_15:
	.long	64000000                        @ 0x3d09000
.Lcpi_end40:
	.size	__arm_cp.12_15, .Lcpi_end40-__arm_cp.12_15
.Lfunc_end12:
	.size	CLK_EnablePLL, .Lfunc_end12-CLK_EnablePLL
	.cfi_endproc
	.cantunwind
	.fnend
                                        @ -- End function
	.section	.text.CLK_WaitClockReady,"ax",%progbits
	.hidden	CLK_WaitClockReady              @ -- Begin function CLK_WaitClockReady
	.globl	CLK_WaitClockReady
	.p2align	2
	.type	CLK_WaitClockReady,%function
	.code	16                              @ @CLK_WaitClockReady
	.thumb_func
CLK_WaitClockReady:
.Lfunc_begin13:
	.loc	2 898 0 is_stmt 1               @ ../../../../Library/StdDriver/src/clk.c:898:0
	.fnstart
	.cfi_startproc
@ %bb.0:
	.pad	#12
	sub	sp, #12
	.cfi_def_cfa_offset 12
	str	r0, [sp, #4]
.Ltmp133:
	.loc	2 899 30 prologue_end           @ ../../../../Library/StdDriver/src/clk.c:899:30
	ldr	r0, __arm_cp.13_0
	ldr	r0, [r0]
	.loc	2 899 14 is_stmt 0              @ ../../../../Library/StdDriver/src/clk.c:899:14
	str	r0, [sp]
	.loc	2 901 22 is_stmt 1              @ ../../../../Library/StdDriver/src/clk.c:901:22
	ldr	r1, __arm_cp.13_1
	movs	r0, #0
	str	r0, [r1]
	.loc	2 903 5                         @ ../../../../Library/StdDriver/src/clk.c:903:5
	b	.LBB13_1
.LBB13_1:                               @ =>This Inner Loop Header: Depth=1
	.loc	2 0 5 is_stmt 0                 @ ../../../../Library/StdDriver/src/clk.c:0:5
	ldr	r0, __arm_cp.13_2
	.loc	2 903 19                        @ ../../../../Library/StdDriver/src/clk.c:903:19
	ldr	r0, [r0]
	.loc	2 903 28                        @ ../../../../Library/StdDriver/src/clk.c:903:28
	ldr	r1, [sp, #4]
	.loc	2 903 5                         @ ../../../../Library/StdDriver/src/clk.c:903:5
	tst	r0, r1
	bne	.LBB13_5
	b	.LBB13_2
.LBB13_2:                               @   in Loop: Header=BB13_1 Depth=1
.Ltmp134:
	.loc	2 905 13 is_stmt 1              @ ../../../../Library/StdDriver/src/clk.c:905:13
	ldr	r0, [sp]
	subs	r0, r0, #1
	str	r0, [sp]
.Ltmp135:
	.loc	2 905 13 is_stmt 0              @ ../../../../Library/StdDriver/src/clk.c:905:13
	cbnz	r0, .LBB13_4
	b	.LBB13_3
.LBB13_3:
.Ltmp136:
	.loc	2 907 30 is_stmt 1              @ ../../../../Library/StdDriver/src/clk.c:907:30
	ldr	r2, __arm_cp.13_1
	movs	r0, #0
	mvns	r1, r0
	str	r1, [r2]
	.loc	2 908 13                        @ ../../../../Library/StdDriver/src/clk.c:908:13
	str	r0, [sp, #8]
	b	.LBB13_6
.Ltmp137:
.LBB13_4:                               @   in Loop: Header=BB13_1 Depth=1
	.loc	2 903 5                         @ ../../../../Library/StdDriver/src/clk.c:903:5
	b	.LBB13_1
.LBB13_5:
	.loc	2 0 5 is_stmt 0                 @ ../../../../Library/StdDriver/src/clk.c:0:5
	movs	r0, #1
	.loc	2 912 5 is_stmt 1               @ ../../../../Library/StdDriver/src/clk.c:912:5
	str	r0, [sp, #8]
	b	.LBB13_6
.LBB13_6:
	.loc	2 913 1                         @ ../../../../Library/StdDriver/src/clk.c:913:1
	ldr	r0, [sp, #8]
	add	sp, #12
	bx	lr
.Ltmp138:
	.p2align	2
@ %bb.7:
	.loc	2 0 1 is_stmt 0                 @ ../../../../Library/StdDriver/src/clk.c:0:1
__arm_cp.13_0:
	.long	SystemCoreClock
.Lcpi_end41:
	.size	__arm_cp.13_0, .Lcpi_end41-__arm_cp.13_0
__arm_cp.13_1:
	.long	g_CLK_i32ErrCode
.Lcpi_end42:
	.size	__arm_cp.13_1, .Lcpi_end42-__arm_cp.13_1
__arm_cp.13_2:
	.long	1073742416                      @ 0x40000250
.Lcpi_end43:
	.size	__arm_cp.13_2, .Lcpi_end43-__arm_cp.13_2
.Lfunc_end13:
	.size	CLK_WaitClockReady, .Lfunc_end13-CLK_WaitClockReady
	.cfi_endproc
	.cantunwind
	.fnend
                                        @ -- End function
	.section	.text.CLK_SetHCLK,"ax",%progbits
	.hidden	CLK_SetHCLK                     @ -- Begin function CLK_SetHCLK
	.globl	CLK_SetHCLK
	.p2align	2
	.type	CLK_SetHCLK,%function
	.code	16                              @ @CLK_SetHCLK
	.thumb_func
CLK_SetHCLK:
.Lfunc_begin14:
	.loc	2 506 0 is_stmt 1               @ ../../../../Library/StdDriver/src/clk.c:506:0
	.fnstart
	.cfi_startproc
@ %bb.0:
	.save	{r4, lr}
	push	{r4, lr}
	.cfi_def_cfa_offset 8
	.cfi_offset lr, -4
	.cfi_offset r4, -8
	.pad	#16
	sub	sp, #16
	.cfi_def_cfa_offset 24
	str	r0, [sp, #12]
	str	r1, [sp, #8]
	ldr	r0, __arm_cp.14_0
.Ltmp139:
	.loc	2 510 26 prologue_end           @ ../../../../Library/StdDriver/src/clk.c:510:26
	ldr	r1, [r0]
	movs	r0, #16
	.loc	2 510 33 is_stmt 0              @ ../../../../Library/StdDriver/src/clk.c:510:33
	ands	r1, r0
	.loc	2 510 19                        @ ../../../../Library/StdDriver/src/clk.c:510:19
	str	r1, [sp, #4]
	ldr	r2, __arm_cp.14_1
	.loc	2 513 17 is_stmt 1              @ ../../../../Library/StdDriver/src/clk.c:513:17
	ldr	r1, [r2]
	movs	r3, #4
	orrs	r1, r3
	str	r1, [r2]
	.loc	2 514 5                         @ ../../../../Library/StdDriver/src/clk.c:514:5
	bl	CLK_WaitClockReady
	ldr	r1, __arm_cp.14_2
	.loc	2 515 26                        @ ../../../../Library/StdDriver/src/clk.c:515:26
	ldr	r0, [r1]
	movs	r2, #7
	.loc	2 515 64 is_stmt 0              @ ../../../../Library/StdDriver/src/clk.c:515:64
	orrs	r0, r2
	.loc	2 515 18                        @ ../../../../Library/StdDriver/src/clk.c:515:18
	str	r0, [r1]
	ldr	r3, __arm_cp.14_3
	.loc	2 518 26 is_stmt 1              @ ../../../../Library/StdDriver/src/clk.c:518:26
	ldr	r0, [r3]
	movs	r4, #15
	.loc	2 518 34 is_stmt 0              @ ../../../../Library/StdDriver/src/clk.c:518:34
	bics	r0, r4
	.loc	2 518 66                        @ ../../../../Library/StdDriver/src/clk.c:518:66
	ldr	r4, [sp, #8]
	.loc	2 518 64                        @ ../../../../Library/StdDriver/src/clk.c:518:64
	orrs	r0, r4
	.loc	2 518 18                        @ ../../../../Library/StdDriver/src/clk.c:518:18
	str	r0, [r3]
	.loc	2 521 26 is_stmt 1              @ ../../../../Library/StdDriver/src/clk.c:521:26
	ldr	r0, [r1]
	.loc	2 521 34 is_stmt 0              @ ../../../../Library/StdDriver/src/clk.c:521:34
	bics	r0, r2
	.loc	2 521 66                        @ ../../../../Library/StdDriver/src/clk.c:521:66
	ldr	r2, [sp, #12]
	.loc	2 521 64                        @ ../../../../Library/StdDriver/src/clk.c:521:64
	orrs	r0, r2
	.loc	2 521 18                        @ ../../../../Library/StdDriver/src/clk.c:521:18
	str	r0, [r1]
	.loc	2 524 5 is_stmt 1               @ ../../../../Library/StdDriver/src/clk.c:524:5
	bl	SystemCoreClockUpdate
.Ltmp140:
	.loc	2 527 9                         @ ../../../../Library/StdDriver/src/clk.c:527:9
	ldr	r0, [sp, #4]
.Ltmp141:
	.loc	2 527 9 is_stmt 0               @ ../../../../Library/StdDriver/src/clk.c:527:9
	cbnz	r0, .LBB14_2
	b	.LBB14_1
.LBB14_1:
	.loc	2 0 9                           @ ../../../../Library/StdDriver/src/clk.c:0:9
	ldr	r1, __arm_cp.14_1
.Ltmp142:
	.loc	2 528 21 is_stmt 1              @ ../../../../Library/StdDriver/src/clk.c:528:21
	ldr	r0, [r1]
	movs	r2, #4
	bics	r0, r2
	str	r0, [r1]
	.loc	2 528 9 is_stmt 0               @ ../../../../Library/StdDriver/src/clk.c:528:9
	b	.LBB14_2
.Ltmp143:
.LBB14_2:
	.loc	2 529 1 is_stmt 1               @ ../../../../Library/StdDriver/src/clk.c:529:1
	add	sp, #16
	pop	{r4, pc}
.Ltmp144:
	.p2align	2
@ %bb.3:
	.loc	2 0 1 is_stmt 0                 @ ../../../../Library/StdDriver/src/clk.c:0:1
__arm_cp.14_0:
	.long	1073742416                      @ 0x40000250
.Lcpi_end44:
	.size	__arm_cp.14_0, .Lcpi_end44-__arm_cp.14_0
__arm_cp.14_1:
	.long	1073742336                      @ 0x40000200
.Lcpi_end45:
	.size	__arm_cp.14_1, .Lcpi_end45-__arm_cp.14_1
__arm_cp.14_2:
	.long	1073742352                      @ 0x40000210
.Lcpi_end46:
	.size	__arm_cp.14_2, .Lcpi_end46-__arm_cp.14_2
__arm_cp.14_3:
	.long	1073742368                      @ 0x40000220
.Lcpi_end47:
	.size	__arm_cp.14_3, .Lcpi_end47-__arm_cp.14_3
.Lfunc_end14:
	.size	CLK_SetHCLK, .Lfunc_end14-CLK_SetHCLK
	.cfi_endproc
	.cantunwind
	.fnend
                                        @ -- End function
	.section	.text.CLK_SetCoreClock,"ax",%progbits
	.hidden	CLK_SetCoreClock                @ -- Begin function CLK_SetCoreClock
	.globl	CLK_SetCoreClock
	.p2align	2
	.type	CLK_SetCoreClock,%function
	.code	16                              @ @CLK_SetCoreClock
	.thumb_func
CLK_SetCoreClock:
.Lfunc_begin15:
	.loc	2 541 0 is_stmt 1               @ ../../../../Library/StdDriver/src/clk.c:541:0
	.fnstart
	.cfi_startproc
@ %bb.0:
	.save	{r7, lr}
	push	{r7, lr}
	.cfi_def_cfa_offset 8
	.cfi_offset lr, -4
	.cfi_offset r7, -8
	.pad	#16
	sub	sp, #16
	.cfi_def_cfa_offset 24
	str	r0, [sp, #8]
.Ltmp145:
	.loc	2 545 9 prologue_end            @ ../../../../Library/StdDriver/src/clk.c:545:9
	ldr	r0, [sp, #8]
	ldr	r1, __arm_cp.15_0
.Ltmp146:
	.loc	2 545 9 is_stmt 0               @ ../../../../Library/StdDriver/src/clk.c:545:9
	cmp	r0, r1
	blo	.LBB15_2
	b	.LBB15_1
.LBB15_1:
	.loc	2 0 9                           @ ../../../../Library/StdDriver/src/clk.c:0:9
	ldr	r0, __arm_cp.15_1
.Ltmp147:
	.loc	2 546 17 is_stmt 1              @ ../../../../Library/StdDriver/src/clk.c:546:17
	str	r0, [sp, #8]
	.loc	2 546 9 is_stmt 0               @ ../../../../Library/StdDriver/src/clk.c:546:9
	b	.LBB15_2
.Ltmp148:
.LBB15_2:
	.loc	2 548 9 is_stmt 1               @ ../../../../Library/StdDriver/src/clk.c:548:9
	ldr	r0, [sp, #8]
	ldr	r1, __arm_cp.15_2
.Ltmp149:
	.loc	2 548 9 is_stmt 0               @ ../../../../Library/StdDriver/src/clk.c:548:9
	cmp	r0, r1
	bhi	.LBB15_4
	b	.LBB15_3
.LBB15_3:
	.loc	2 0 9                           @ ../../../../Library/StdDriver/src/clk.c:0:9
	ldr	r0, __arm_cp.15_3
.Ltmp150:
	.loc	2 549 17 is_stmt 1              @ ../../../../Library/StdDriver/src/clk.c:549:17
	str	r0, [sp, #8]
	.loc	2 549 9 is_stmt 0               @ ../../../../Library/StdDriver/src/clk.c:549:9
	b	.LBB15_4
.Ltmp151:
.LBB15_4:
	.loc	2 0 9                           @ ../../../../Library/StdDriver/src/clk.c:0:9
	ldr	r1, __arm_cp.15_4
	.loc	2 552 17 is_stmt 1              @ ../../../../Library/StdDriver/src/clk.c:552:17
	ldr	r0, [r1]
	movs	r2, #1
	lsls	r2, r2, #19
	orrs	r0, r2
	str	r0, [r1]
	movs	r0, #64
	.loc	2 553 5                         @ ../../../../Library/StdDriver/src/clk.c:553:5
	bl	CLK_WaitClockReady
	movs	r0, #5
	movs	r1, #0
	.loc	2 554 5                         @ ../../../../Library/StdDriver/src/clk.c:554:5
	bl	CLK_SetHCLK
	.loc	2 556 21                        @ ../../../../Library/StdDriver/src/clk.c:556:21
	ldr	r0, [sp, #8]
	.loc	2 556 29 is_stmt 0              @ ../../../../Library/StdDriver/src/clk.c:556:29
	lsls	r0, r0, #1
	.loc	2 556 18                        @ ../../../../Library/StdDriver/src/clk.c:556:18
	str	r0, [sp, #4]
	ldr	r0, __arm_cp.15_5
.Ltmp152:
	.loc	2 559 14 is_stmt 1              @ ../../../../Library/StdDriver/src/clk.c:559:14
	ldr	r0, [r0]
.Ltmp153:
	.loc	2 559 9 is_stmt 0               @ ../../../../Library/StdDriver/src/clk.c:559:9
	lsls	r0, r0, #31
	cbz	r0, .LBB15_6
	b	.LBB15_5
.LBB15_5:
.Ltmp154:
	.loc	2 560 61 is_stmt 1              @ ../../../../Library/StdDriver/src/clk.c:560:61
	ldr	r1, [sp, #4]
	movs	r0, #0
	.loc	2 560 24 is_stmt 0              @ ../../../../Library/StdDriver/src/clk.c:560:24
	bl	CLK_EnablePLL
	.loc	2 560 22                        @ ../../../../Library/StdDriver/src/clk.c:560:22
	str	r0, [sp, #4]
	.loc	2 560 9                         @ ../../../../Library/StdDriver/src/clk.c:560:9
	b	.LBB15_11
.LBB15_6:
	.loc	2 0 9                           @ ../../../../Library/StdDriver/src/clk.c:0:9
	ldr	r0, __arm_cp.15_5
.Ltmp155:
	.loc	2 563 20 is_stmt 1              @ ../../../../Library/StdDriver/src/clk.c:563:20
	ldr	r0, [r0]
	.loc	2 563 53 is_stmt 0              @ ../../../../Library/StdDriver/src/clk.c:563:53
	lsls	r0, r0, #25
	cmp	r0, #0
	bpl	.LBB15_9
	b	.LBB15_7
.LBB15_7:
	.loc	2 0 53                          @ ../../../../Library/StdDriver/src/clk.c:0:53
	ldr	r0, __arm_cp.15_5
	.loc	2 563 62                        @ ../../../../Library/StdDriver/src/clk.c:563:62
	ldr	r0, [r0]
.Ltmp156:
	.loc	2 563 14                        @ ../../../../Library/StdDriver/src/clk.c:563:14
	lsls	r0, r0, #27
	cmp	r0, #0
	bpl	.LBB15_9
	b	.LBB15_8
.LBB15_8:
.Ltmp157:
	.loc	2 565 67 is_stmt 1              @ ../../../../Library/StdDriver/src/clk.c:565:67
	ldr	r1, [sp, #4]
	movs	r0, #1
	lsls	r0, r0, #19
	.loc	2 565 24 is_stmt 0              @ ../../../../Library/StdDriver/src/clk.c:565:24
	bl	CLK_EnablePLL
	.loc	2 565 22                        @ ../../../../Library/StdDriver/src/clk.c:565:22
	str	r0, [sp, #4]
	.loc	2 566 5 is_stmt 1               @ ../../../../Library/StdDriver/src/clk.c:566:5
	b	.LBB15_10
.Ltmp158:
.LBB15_9:
	.loc	2 0 5 is_stmt 0                 @ ../../../../Library/StdDriver/src/clk.c:0:5
	movs	r0, #0
	.loc	2 568 9 is_stmt 1               @ ../../../../Library/StdDriver/src/clk.c:568:9
	str	r0, [sp, #12]
	b	.LBB15_12
.Ltmp159:
.LBB15_10:
	.loc	2 0 9 is_stmt 0                 @ ../../../../Library/StdDriver/src/clk.c:0:9
	b	.LBB15_11
.LBB15_11:
	movs	r0, #2
	movs	r1, #1
	.loc	2 575 5 is_stmt 1               @ ../../../../Library/StdDriver/src/clk.c:575:5
	bl	CLK_SetHCLK
	.loc	2 576 13                        @ ../../../../Library/StdDriver/src/clk.c:576:13
	ldr	r0, [sp, #4]
	.loc	2 576 26 is_stmt 0              @ ../../../../Library/StdDriver/src/clk.c:576:26
	lsrs	r0, r0, #1
	.loc	2 576 5                         @ ../../../../Library/StdDriver/src/clk.c:576:5
	str	r0, [sp, #12]
	b	.LBB15_12
.LBB15_12:
	.loc	2 577 1 is_stmt 1               @ ../../../../Library/StdDriver/src/clk.c:577:1
	ldr	r0, [sp, #12]
	add	sp, #16
	pop	{r7, pc}
.Ltmp160:
	.p2align	2
@ %bb.13:
	.loc	2 0 1 is_stmt 0                 @ ../../../../Library/StdDriver/src/clk.c:0:1
__arm_cp.15_0:
	.long	48000001                        @ 0x2dc6c01
.Lcpi_end48:
	.size	__arm_cp.15_0, .Lcpi_end48-__arm_cp.15_0
__arm_cp.15_1:
	.long	48000000                        @ 0x2dc6c00
.Lcpi_end49:
	.size	__arm_cp.15_1, .Lcpi_end49-__arm_cp.15_1
__arm_cp.15_2:
	.long	24999999                        @ 0x17d783f
.Lcpi_end50:
	.size	__arm_cp.15_2, .Lcpi_end50-__arm_cp.15_2
__arm_cp.15_3:
	.long	25000000                        @ 0x17d7840
.Lcpi_end51:
	.size	__arm_cp.15_3, .Lcpi_end51-__arm_cp.15_3
__arm_cp.15_4:
	.long	1073742336                      @ 0x40000200
.Lcpi_end52:
	.size	__arm_cp.15_4, .Lcpi_end52-__arm_cp.15_4
__arm_cp.15_5:
	.long	1073742416                      @ 0x40000250
.Lcpi_end53:
	.size	__arm_cp.15_5, .Lcpi_end53-__arm_cp.15_5
.Lfunc_end15:
	.size	CLK_SetCoreClock, .Lfunc_end15-CLK_SetCoreClock
	.cfi_endproc
	.cantunwind
	.fnend
                                        @ -- End function
	.section	.text.CLK_SetModuleClock,"ax",%progbits
	.hidden	CLK_SetModuleClock              @ -- Begin function CLK_SetModuleClock
	.globl	CLK_SetModuleClock
	.p2align	2
	.type	CLK_SetModuleClock,%function
	.code	16                              @ @CLK_SetModuleClock
	.thumb_func
CLK_SetModuleClock:
.Lfunc_begin16:
	.loc	2 688 0 is_stmt 1               @ ../../../../Library/StdDriver/src/clk.c:688:0
	.fnstart
	.cfi_startproc
@ %bb.0:
	.pad	#52
	sub	sp, #52
	.cfi_def_cfa_offset 52
	str	r0, [sp, #48]
	str	r1, [sp, #44]
	str	r2, [sp, #40]
.Ltmp161:
	.loc	2 689 9 prologue_end            @ ../../../../Library/StdDriver/src/clk.c:689:9
	ldr	r0, [sp, #48]
	lsrs	r0, r0, #10
.Ltmp162:
	.loc	2 689 9 is_stmt 0               @ ../../../../Library/StdDriver/src/clk.c:689:9
	lsls	r0, r0, #24
	cbz	r0, .LBB16_2
	b	.LBB16_1
.LBB16_1:
	.loc	2 0 9                           @ ../../../../Library/StdDriver/src/clk.c:0:9
	movs	r0, #16
.Ltmp163:
	.loc	2 692 24 is_stmt 1              @ ../../../../Library/StdDriver/src/clk.c:692:24
	str	r0, [sp, #32]
	movs	r0, #12
	str	r0, [sp, #28]
	movs	r1, #4
	str	r1, [sp, #24]
	movs	r1, #0
	str	r1, [sp, #20]
	add	r1, sp, #48
	.loc	2 695 56                        @ ../../../../Library/StdDriver/src/clk.c:695:56
	ldrh	r1, [r1, #2]
	.loc	2 695 45 is_stmt 0              @ ../../../../Library/StdDriver/src/clk.c:695:45
	ands	r1, r0
	add	r0, sp, #20
	ldr	r0, [r0, r1]
	ldr	r1, __arm_cp.16_0
	.loc	2 695 42                        @ ../../../../Library/StdDriver/src/clk.c:695:42
	adds	r0, r0, r1
	.loc	2 695 16                        @ ../../../../Library/StdDriver/src/clk.c:695:16
	str	r0, [sp, #36]
	.loc	2 697 24 is_stmt 1              @ ../../../../Library/StdDriver/src/clk.c:697:24
	ldr	r0, [sp, #36]
	ldr	r0, [r0]
	.loc	2 697 41 is_stmt 0              @ ../../../../Library/StdDriver/src/clk.c:697:41
	ldr	r2, [sp, #48]
	lsrs	r1, r2, #10
	uxtb	r1, r1
	.loc	2 697 76                        @ ../../../../Library/StdDriver/src/clk.c:697:76
	lsls	r2, r2, #22
	lsrs	r2, r2, #27
	.loc	2 697 73                        @ ../../../../Library/StdDriver/src/clk.c:697:73
	lsls	r1, r2
	.loc	2 697 36                        @ ../../../../Library/StdDriver/src/clk.c:697:36
	bics	r0, r1
	.loc	2 697 113                       @ ../../../../Library/StdDriver/src/clk.c:697:113
	ldr	r1, [sp, #40]
	.loc	2 697 111                       @ ../../../../Library/StdDriver/src/clk.c:697:111
	orrs	r0, r1
	.loc	2 697 9                         @ ../../../../Library/StdDriver/src/clk.c:697:9
	ldr	r1, [sp, #36]
	.loc	2 697 21                        @ ../../../../Library/StdDriver/src/clk.c:697:21
	str	r0, [r1]
	.loc	2 698 5 is_stmt 1               @ ../../../../Library/StdDriver/src/clk.c:698:5
	b	.LBB16_2
.Ltmp164:
.LBB16_2:
	.loc	2 700 9                         @ ../../../../Library/StdDriver/src/clk.c:700:9
	ldr	r0, [sp, #48]
	lsls	r0, r0, #4
	lsrs	r0, r0, #29
.Ltmp165:
	.loc	2 700 9 is_stmt 0               @ ../../../../Library/StdDriver/src/clk.c:700:9
	cbz	r0, .LBB16_4
	b	.LBB16_3
.LBB16_3:
	.loc	2 0 9                           @ ../../../../Library/StdDriver/src/clk.c:0:9
	movs	r0, #12
.Ltmp166:
	.loc	2 703 24 is_stmt 1              @ ../../../../Library/StdDriver/src/clk.c:703:24
	str	r0, [sp, #12]
	movs	r1, #8
	str	r1, [sp, #8]
	movs	r1, #4
	str	r1, [sp, #4]
	movs	r1, #0
	str	r1, [sp]
	.loc	2 706 56                        @ ../../../../Library/StdDriver/src/clk.c:706:56
	ldr	r1, [sp, #48]
	.loc	2 706 45 is_stmt 0              @ ../../../../Library/StdDriver/src/clk.c:706:45
	lsrs	r1, r1, #26
	ands	r1, r0
	mov	r0, sp
	ldr	r0, [r0, r1]
	ldr	r1, __arm_cp.16_1
	.loc	2 706 42                        @ ../../../../Library/StdDriver/src/clk.c:706:42
	adds	r0, r0, r1
	.loc	2 706 16                        @ ../../../../Library/StdDriver/src/clk.c:706:16
	str	r0, [sp, #16]
	.loc	2 708 24 is_stmt 1              @ ../../../../Library/StdDriver/src/clk.c:708:24
	ldr	r0, [sp, #16]
	ldr	r0, [r0]
	.loc	2 708 41 is_stmt 0              @ ../../../../Library/StdDriver/src/clk.c:708:41
	ldr	r2, [sp, #48]
	lsls	r1, r2, #4
	lsrs	r1, r1, #29
	.loc	2 708 76                        @ ../../../../Library/StdDriver/src/clk.c:708:76
	lsls	r2, r2, #7
	lsrs	r2, r2, #27
	.loc	2 708 73                        @ ../../../../Library/StdDriver/src/clk.c:708:73
	lsls	r1, r2
	.loc	2 708 36                        @ ../../../../Library/StdDriver/src/clk.c:708:36
	bics	r0, r1
	.loc	2 708 113                       @ ../../../../Library/StdDriver/src/clk.c:708:113
	ldr	r1, [sp, #44]
	.loc	2 708 111                       @ ../../../../Library/StdDriver/src/clk.c:708:111
	orrs	r0, r1
	.loc	2 708 9                         @ ../../../../Library/StdDriver/src/clk.c:708:9
	ldr	r1, [sp, #16]
	.loc	2 708 21                        @ ../../../../Library/StdDriver/src/clk.c:708:21
	str	r0, [r1]
	.loc	2 709 5 is_stmt 1               @ ../../../../Library/StdDriver/src/clk.c:709:5
	b	.LBB16_4
.Ltmp167:
.LBB16_4:
	.loc	2 710 1                         @ ../../../../Library/StdDriver/src/clk.c:710:1
	add	sp, #52
	bx	lr
.Ltmp168:
	.p2align	2
@ %bb.5:
	.loc	2 0 1 is_stmt 0                 @ ../../../../Library/StdDriver/src/clk.c:0:1
__arm_cp.16_0:
	.long	1073742368                      @ 0x40000220
.Lcpi_end54:
	.size	__arm_cp.16_0, .Lcpi_end54-__arm_cp.16_0
__arm_cp.16_1:
	.long	1073742352                      @ 0x40000210
.Lcpi_end55:
	.size	__arm_cp.16_1, .Lcpi_end55-__arm_cp.16_1
.Lfunc_end16:
	.size	CLK_SetModuleClock, .Lfunc_end16-CLK_SetModuleClock
	.cfi_endproc
	.cantunwind
	.fnend
                                        @ -- End function
	.section	.text.CLK_SetSysTickClockSrc,"ax",%progbits
	.hidden	CLK_SetSysTickClockSrc          @ -- Begin function CLK_SetSysTickClockSrc
	.globl	CLK_SetSysTickClockSrc
	.p2align	2
	.type	CLK_SetSysTickClockSrc,%function
	.code	16                              @ @CLK_SetSysTickClockSrc
	.thumb_func
CLK_SetSysTickClockSrc:
.Lfunc_begin17:
	.loc	2 724 0 is_stmt 1               @ ../../../../Library/StdDriver/src/clk.c:724:0
	.fnstart
	.cfi_startproc
@ %bb.0:
	.pad	#4
	sub	sp, #4
	.cfi_def_cfa_offset 4
	str	r0, [sp]
	ldr	r1, __arm_cp.17_0
.Ltmp169:
	.loc	2 725 26 prologue_end           @ ../../../../Library/StdDriver/src/clk.c:725:26
	ldr	r0, [r1]
	movs	r2, #56
	.loc	2 725 34 is_stmt 0              @ ../../../../Library/StdDriver/src/clk.c:725:34
	bics	r0, r2
	.loc	2 725 65                        @ ../../../../Library/StdDriver/src/clk.c:725:65
	ldr	r2, [sp]
	.loc	2 725 63                        @ ../../../../Library/StdDriver/src/clk.c:725:63
	orrs	r0, r2
	.loc	2 725 18                        @ ../../../../Library/StdDriver/src/clk.c:725:18
	str	r0, [r1]
	.loc	2 726 1 is_stmt 1               @ ../../../../Library/StdDriver/src/clk.c:726:1
	add	sp, #4
	bx	lr
.Ltmp170:
	.p2align	2
@ %bb.1:
	.loc	2 0 1 is_stmt 0                 @ ../../../../Library/StdDriver/src/clk.c:0:1
__arm_cp.17_0:
	.long	1073742352                      @ 0x40000210
.Lcpi_end56:
	.size	__arm_cp.17_0, .Lcpi_end56-__arm_cp.17_0
.Lfunc_end17:
	.size	CLK_SetSysTickClockSrc, .Lfunc_end17-CLK_SetSysTickClockSrc
	.cfi_endproc
	.cantunwind
	.fnend
                                        @ -- End function
	.section	.text.CLK_EnableXtalRC,"ax",%progbits
	.hidden	CLK_EnableXtalRC                @ -- Begin function CLK_EnableXtalRC
	.globl	CLK_EnableXtalRC
	.p2align	2
	.type	CLK_EnableXtalRC,%function
	.code	16                              @ @CLK_EnableXtalRC
	.thumb_func
CLK_EnableXtalRC:
.Lfunc_begin18:
	.loc	2 745 0 is_stmt 1               @ ../../../../Library/StdDriver/src/clk.c:745:0
	.fnstart
	.cfi_startproc
@ %bb.0:
	.pad	#4
	sub	sp, #4
	.cfi_def_cfa_offset 4
	str	r0, [sp]
.Ltmp171:
	.loc	2 746 20 prologue_end           @ ../../../../Library/StdDriver/src/clk.c:746:20
	ldr	r2, [sp]
	ldr	r1, __arm_cp.18_0
	.loc	2 746 17 is_stmt 0              @ ../../../../Library/StdDriver/src/clk.c:746:17
	ldr	r0, [r1]
	orrs	r0, r2
	str	r0, [r1]
	.loc	2 747 1 is_stmt 1               @ ../../../../Library/StdDriver/src/clk.c:747:1
	add	sp, #4
	bx	lr
.Ltmp172:
	.p2align	2
@ %bb.1:
	.loc	2 0 1 is_stmt 0                 @ ../../../../Library/StdDriver/src/clk.c:0:1
__arm_cp.18_0:
	.long	1073742336                      @ 0x40000200
.Lcpi_end57:
	.size	__arm_cp.18_0, .Lcpi_end57-__arm_cp.18_0
.Lfunc_end18:
	.size	CLK_EnableXtalRC, .Lfunc_end18-CLK_EnableXtalRC
	.cfi_endproc
	.cantunwind
	.fnend
                                        @ -- End function
	.section	.text.CLK_DisableXtalRC,"ax",%progbits
	.hidden	CLK_DisableXtalRC               @ -- Begin function CLK_DisableXtalRC
	.globl	CLK_DisableXtalRC
	.p2align	2
	.type	CLK_DisableXtalRC,%function
	.code	16                              @ @CLK_DisableXtalRC
	.thumb_func
CLK_DisableXtalRC:
.Lfunc_begin19:
	.loc	2 761 0 is_stmt 1               @ ../../../../Library/StdDriver/src/clk.c:761:0
	.fnstart
	.cfi_startproc
@ %bb.0:
	.pad	#4
	sub	sp, #4
	.cfi_def_cfa_offset 4
	str	r0, [sp]
.Ltmp173:
	.loc	2 762 21 prologue_end           @ ../../../../Library/StdDriver/src/clk.c:762:21
	ldr	r2, [sp]
	ldr	r1, __arm_cp.19_0
	.loc	2 762 17 is_stmt 0              @ ../../../../Library/StdDriver/src/clk.c:762:17
	ldr	r0, [r1]
	bics	r0, r2
	str	r0, [r1]
	.loc	2 763 1 is_stmt 1               @ ../../../../Library/StdDriver/src/clk.c:763:1
	add	sp, #4
	bx	lr
.Ltmp174:
	.p2align	2
@ %bb.1:
	.loc	2 0 1 is_stmt 0                 @ ../../../../Library/StdDriver/src/clk.c:0:1
__arm_cp.19_0:
	.long	1073742336                      @ 0x40000200
.Lcpi_end58:
	.size	__arm_cp.19_0, .Lcpi_end58-__arm_cp.19_0
.Lfunc_end19:
	.size	CLK_DisableXtalRC, .Lfunc_end19-CLK_DisableXtalRC
	.cfi_endproc
	.cantunwind
	.fnend
                                        @ -- End function
	.section	.text.CLK_EnableModuleClock,"ax",%progbits
	.hidden	CLK_EnableModuleClock           @ -- Begin function CLK_EnableModuleClock
	.globl	CLK_EnableModuleClock
	.p2align	2
	.type	CLK_EnableModuleClock,%function
	.code	16                              @ @CLK_EnableModuleClock
	.thumb_func
CLK_EnableModuleClock:
.Lfunc_begin20:
	.loc	2 818 0 is_stmt 1               @ ../../../../Library/StdDriver/src/clk.c:818:0
	.fnstart
	.cfi_startproc
@ %bb.0:
	.pad	#16
	sub	sp, #16
	.cfi_def_cfa_offset 16
	str	r0, [sp, #12]
	movs	r0, #8
.Ltmp175:
	.loc	2 819 20 prologue_end           @ ../../../../Library/StdDriver/src/clk.c:819:20
	str	r0, [sp, #8]
	movs	r0, #4
	str	r0, [sp, #4]
	movs	r0, #0
	str	r0, [sp]
	.loc	2 821 105                       @ ../../../../Library/StdDriver/src/clk.c:821:105
	ldr	r0, [sp, #12]
	movs	r2, #31
	mov	r1, r0
	ands	r1, r2
	movs	r3, #1
	.loc	2 821 102 is_stmt 0             @ ../../../../Library/StdDriver/src/clk.c:821:102
	lsls	r3, r1
	.loc	2 821 54                        @ ../../../../Library/StdDriver/src/clk.c:821:54
	lsrs	r0, r0, #30
	lsls	r1, r0, #2
	mov	r0, sp
	ldr	r1, [r0, r1]
	ldr	r2, __arm_cp.20_0
	.loc	2 821 97                        @ ../../../../Library/StdDriver/src/clk.c:821:97
	ldr	r0, [r1, r2]
	orrs	r0, r3
	str	r0, [r1, r2]
	.loc	2 822 1 is_stmt 1               @ ../../../../Library/StdDriver/src/clk.c:822:1
	add	sp, #16
	bx	lr
.Ltmp176:
	.p2align	2
@ %bb.1:
	.loc	2 0 1 is_stmt 0                 @ ../../../../Library/StdDriver/src/clk.c:0:1
__arm_cp.20_0:
	.long	1073742340                      @ 0x40000204
.Lcpi_end59:
	.size	__arm_cp.20_0, .Lcpi_end59-__arm_cp.20_0
.Lfunc_end20:
	.size	CLK_EnableModuleClock, .Lfunc_end20-CLK_EnableModuleClock
	.cfi_endproc
	.cantunwind
	.fnend
                                        @ -- End function
	.section	.text.CLK_DisableModuleClock,"ax",%progbits
	.hidden	CLK_DisableModuleClock          @ -- Begin function CLK_DisableModuleClock
	.globl	CLK_DisableModuleClock
	.p2align	2
	.type	CLK_DisableModuleClock,%function
	.code	16                              @ @CLK_DisableModuleClock
	.thumb_func
CLK_DisableModuleClock:
.Lfunc_begin21:
	.loc	2 877 0 is_stmt 1               @ ../../../../Library/StdDriver/src/clk.c:877:0
	.fnstart
	.cfi_startproc
@ %bb.0:
	.pad	#16
	sub	sp, #16
	.cfi_def_cfa_offset 16
	str	r0, [sp, #12]
	movs	r0, #8
.Ltmp177:
	.loc	2 878 20 prologue_end           @ ../../../../Library/StdDriver/src/clk.c:878:20
	str	r0, [sp, #8]
	movs	r0, #4
	str	r0, [sp, #4]
	movs	r0, #0
	str	r0, [sp]
	.loc	2 880 107                       @ ../../../../Library/StdDriver/src/clk.c:880:107
	ldr	r0, [sp, #12]
	movs	r2, #31
	mov	r1, r0
	ands	r1, r2
	movs	r3, #1
	.loc	2 880 104 is_stmt 0             @ ../../../../Library/StdDriver/src/clk.c:880:104
	lsls	r3, r1
	.loc	2 880 54                        @ ../../../../Library/StdDriver/src/clk.c:880:54
	lsrs	r0, r0, #30
	lsls	r1, r0, #2
	mov	r0, sp
	ldr	r1, [r0, r1]
	ldr	r2, __arm_cp.21_0
	.loc	2 880 97                        @ ../../../../Library/StdDriver/src/clk.c:880:97
	ldr	r0, [r1, r2]
	bics	r0, r3
	str	r0, [r1, r2]
	.loc	2 881 1 is_stmt 1               @ ../../../../Library/StdDriver/src/clk.c:881:1
	add	sp, #16
	bx	lr
.Ltmp178:
	.p2align	2
@ %bb.1:
	.loc	2 0 1 is_stmt 0                 @ ../../../../Library/StdDriver/src/clk.c:0:1
__arm_cp.21_0:
	.long	1073742340                      @ 0x40000204
.Lcpi_end60:
	.size	__arm_cp.21_0, .Lcpi_end60-__arm_cp.21_0
.Lfunc_end21:
	.size	CLK_DisableModuleClock, .Lfunc_end21-CLK_DisableModuleClock
	.cfi_endproc
	.cantunwind
	.fnend
                                        @ -- End function
	.section	.text.CLK_WaitClockDisable,"ax",%progbits
	.hidden	CLK_WaitClockDisable            @ -- Begin function CLK_WaitClockDisable
	.globl	CLK_WaitClockDisable
	.p2align	2
	.type	CLK_WaitClockDisable,%function
	.code	16                              @ @CLK_WaitClockDisable
	.thumb_func
CLK_WaitClockDisable:
.Lfunc_begin22:
	.loc	2 930 0 is_stmt 1               @ ../../../../Library/StdDriver/src/clk.c:930:0
	.fnstart
	.cfi_startproc
@ %bb.0:
	.pad	#12
	sub	sp, #12
	.cfi_def_cfa_offset 12
	str	r0, [sp, #4]
.Ltmp179:
	.loc	2 931 30 prologue_end           @ ../../../../Library/StdDriver/src/clk.c:931:30
	ldr	r0, __arm_cp.22_0
	ldr	r0, [r0]
	.loc	2 931 14 is_stmt 0              @ ../../../../Library/StdDriver/src/clk.c:931:14
	str	r0, [sp]
	.loc	2 933 22 is_stmt 1              @ ../../../../Library/StdDriver/src/clk.c:933:22
	ldr	r1, __arm_cp.22_1
	movs	r0, #0
	str	r0, [r1]
	.loc	2 935 5                         @ ../../../../Library/StdDriver/src/clk.c:935:5
	b	.LBB22_1
.LBB22_1:                               @ =>This Inner Loop Header: Depth=1
	.loc	2 0 5 is_stmt 0                 @ ../../../../Library/StdDriver/src/clk.c:0:5
	ldr	r0, __arm_cp.22_2
	.loc	2 935 17                        @ ../../../../Library/StdDriver/src/clk.c:935:17
	ldr	r0, [r0]
	.loc	2 935 26                        @ ../../../../Library/StdDriver/src/clk.c:935:26
	ldr	r1, [sp, #4]
	.loc	2 935 5                         @ ../../../../Library/StdDriver/src/clk.c:935:5
	tst	r0, r1
	beq	.LBB22_5
	b	.LBB22_2
.LBB22_2:                               @   in Loop: Header=BB22_1 Depth=1
.Ltmp180:
	.loc	2 937 13 is_stmt 1              @ ../../../../Library/StdDriver/src/clk.c:937:13
	ldr	r0, [sp]
	subs	r0, r0, #1
	str	r0, [sp]
.Ltmp181:
	.loc	2 937 13 is_stmt 0              @ ../../../../Library/StdDriver/src/clk.c:937:13
	cbnz	r0, .LBB22_4
	b	.LBB22_3
.LBB22_3:
.Ltmp182:
	.loc	2 939 30 is_stmt 1              @ ../../../../Library/StdDriver/src/clk.c:939:30
	ldr	r2, __arm_cp.22_1
	movs	r0, #0
	mvns	r1, r0
	str	r1, [r2]
	.loc	2 940 13                        @ ../../../../Library/StdDriver/src/clk.c:940:13
	str	r0, [sp, #8]
	b	.LBB22_6
.Ltmp183:
.LBB22_4:                               @   in Loop: Header=BB22_1 Depth=1
	.loc	2 935 5                         @ ../../../../Library/StdDriver/src/clk.c:935:5
	b	.LBB22_1
.LBB22_5:
	.loc	2 0 5 is_stmt 0                 @ ../../../../Library/StdDriver/src/clk.c:0:5
	movs	r0, #1
	.loc	2 944 5 is_stmt 1               @ ../../../../Library/StdDriver/src/clk.c:944:5
	str	r0, [sp, #8]
	b	.LBB22_6
.LBB22_6:
	.loc	2 945 1                         @ ../../../../Library/StdDriver/src/clk.c:945:1
	ldr	r0, [sp, #8]
	add	sp, #12
	bx	lr
.Ltmp184:
	.p2align	2
@ %bb.7:
	.loc	2 0 1 is_stmt 0                 @ ../../../../Library/StdDriver/src/clk.c:0:1
__arm_cp.22_0:
	.long	SystemCoreClock
.Lcpi_end61:
	.size	__arm_cp.22_0, .Lcpi_end61-__arm_cp.22_0
__arm_cp.22_1:
	.long	g_CLK_i32ErrCode
.Lcpi_end62:
	.size	__arm_cp.22_1, .Lcpi_end62-__arm_cp.22_1
__arm_cp.22_2:
	.long	1073742416                      @ 0x40000250
.Lcpi_end63:
	.size	__arm_cp.22_2, .Lcpi_end63-__arm_cp.22_2
.Lfunc_end22:
	.size	CLK_WaitClockDisable, .Lfunc_end22-CLK_WaitClockDisable
	.cfi_endproc
	.cantunwind
	.fnend
                                        @ -- End function
	.section	.text.CLK_EnableSysTick,"ax",%progbits
	.hidden	CLK_EnableSysTick               @ -- Begin function CLK_EnableSysTick
	.globl	CLK_EnableSysTick
	.p2align	2
	.type	CLK_EnableSysTick,%function
	.code	16                              @ @CLK_EnableSysTick
	.thumb_func
CLK_EnableSysTick:
.Lfunc_begin23:
	.loc	2 961 0 is_stmt 1               @ ../../../../Library/StdDriver/src/clk.c:961:0
	.fnstart
	.cfi_startproc
@ %bb.0:
	.pad	#8
	sub	sp, #8
	.cfi_def_cfa_offset 8
	str	r0, [sp, #4]
	str	r1, [sp]
	ldr	r1, __arm_cp.23_0
	movs	r0, #0
.Ltmp185:
	.loc	2 963 19 prologue_end           @ ../../../../Library/StdDriver/src/clk.c:963:19
	str	r0, [r1]
.Ltmp186:
	.loc	2 966 9                         @ ../../../../Library/StdDriver/src/clk.c:966:9
	ldr	r0, [sp, #4]
.Ltmp187:
	.loc	2 966 9 is_stmt 0               @ ../../../../Library/StdDriver/src/clk.c:966:9
	cmp	r0, #4
	bne	.LBB23_2
	b	.LBB23_1
.LBB23_1:
	.loc	2 0 9                           @ ../../../../Library/StdDriver/src/clk.c:0:9
	ldr	r1, __arm_cp.23_1
.Ltmp188:
	.loc	2 969 21 is_stmt 1              @ ../../../../Library/StdDriver/src/clk.c:969:21
	ldr	r0, [r1]
	movs	r2, #16
	bics	r0, r2
	str	r0, [r1]
	ldr	r1, __arm_cp.23_0
	.loc	2 972 23                        @ ../../../../Library/StdDriver/src/clk.c:972:23
	ldr	r0, [r1]
	movs	r2, #4
	orrs	r0, r2
	str	r0, [r1]
	.loc	2 973 5                         @ ../../../../Library/StdDriver/src/clk.c:973:5
	b	.LBB23_3
.Ltmp189:
.LBB23_2:
	.loc	2 0 5 is_stmt 0                 @ ../../../../Library/StdDriver/src/clk.c:0:5
	ldr	r1, __arm_cp.23_1
.Ltmp190:
	.loc	2 977 21 is_stmt 1              @ ../../../../Library/StdDriver/src/clk.c:977:21
	ldr	r0, [r1]
	movs	r2, #16
	orrs	r0, r2
	str	r0, [r1]
	ldr	r1, __arm_cp.23_2
	.loc	2 980 30                        @ ../../../../Library/StdDriver/src/clk.c:980:30
	ldr	r0, [r1]
	movs	r2, #56
	.loc	2 980 38 is_stmt 0              @ ../../../../Library/StdDriver/src/clk.c:980:38
	bics	r0, r2
	.loc	2 980 69                        @ ../../../../Library/StdDriver/src/clk.c:980:69
	ldr	r2, [sp, #4]
	.loc	2 980 67                        @ ../../../../Library/StdDriver/src/clk.c:980:67
	orrs	r0, r2
	.loc	2 980 22                        @ ../../../../Library/StdDriver/src/clk.c:980:22
	str	r0, [r1]
	ldr	r1, __arm_cp.23_0
	.loc	2 983 23 is_stmt 1              @ ../../../../Library/StdDriver/src/clk.c:983:23
	ldr	r0, [r1]
	movs	r2, #4
	bics	r0, r2
	str	r0, [r1]
	b	.LBB23_3
.Ltmp191:
.LBB23_3:
	.loc	2 987 21                        @ ../../../../Library/StdDriver/src/clk.c:987:21
	ldr	r0, [sp]
	ldr	r1, __arm_cp.23_3
	.loc	2 987 19 is_stmt 0              @ ../../../../Library/StdDriver/src/clk.c:987:19
	str	r0, [r1]
	ldr	r1, __arm_cp.23_4
	movs	r0, #0
	.loc	2 990 18 is_stmt 1              @ ../../../../Library/StdDriver/src/clk.c:990:18
	str	r0, [r1]
	ldr	r1, __arm_cp.23_0
	.loc	2 993 19                        @ ../../../../Library/StdDriver/src/clk.c:993:19
	ldr	r0, [r1]
	movs	r2, #3
	orrs	r0, r2
	str	r0, [r1]
	.loc	2 994 1                         @ ../../../../Library/StdDriver/src/clk.c:994:1
	add	sp, #8
	bx	lr
.Ltmp192:
	.p2align	2
@ %bb.4:
	.loc	2 0 1 is_stmt 0                 @ ../../../../Library/StdDriver/src/clk.c:0:1
__arm_cp.23_0:
	.long	3758153744                      @ 0xe000e010
.Lcpi_end64:
	.size	__arm_cp.23_0, .Lcpi_end64-__arm_cp.23_0
__arm_cp.23_1:
	.long	1073742340                      @ 0x40000204
.Lcpi_end65:
	.size	__arm_cp.23_1, .Lcpi_end65-__arm_cp.23_1
__arm_cp.23_2:
	.long	1073742352                      @ 0x40000210
.Lcpi_end66:
	.size	__arm_cp.23_2, .Lcpi_end66-__arm_cp.23_2
__arm_cp.23_3:
	.long	3758153748                      @ 0xe000e014
.Lcpi_end67:
	.size	__arm_cp.23_3, .Lcpi_end67-__arm_cp.23_3
__arm_cp.23_4:
	.long	3758153752                      @ 0xe000e018
.Lcpi_end68:
	.size	__arm_cp.23_4, .Lcpi_end68-__arm_cp.23_4
.Lfunc_end23:
	.size	CLK_EnableSysTick, .Lfunc_end23-CLK_EnableSysTick
	.cfi_endproc
	.cantunwind
	.fnend
                                        @ -- End function
	.section	.text.CLK_DisableSysTick,"ax",%progbits
	.hidden	CLK_DisableSysTick              @ -- Begin function CLK_DisableSysTick
	.globl	CLK_DisableSysTick
	.p2align	2
	.type	CLK_DisableSysTick,%function
	.code	16                              @ @CLK_DisableSysTick
	.thumb_func
CLK_DisableSysTick:
.Lfunc_begin24:
	.loc	2 1001 0 is_stmt 1              @ ../../../../Library/StdDriver/src/clk.c:1001:0
	.fnstart
	.cfi_startproc
@ %bb.0:
	ldr	r1, __arm_cp.24_0
	movs	r0, #0
.Ltmp193:
	.loc	2 1003 19 prologue_end          @ ../../../../Library/StdDriver/src/clk.c:1003:19
	str	r0, [r1]
	.loc	2 1004 1                        @ ../../../../Library/StdDriver/src/clk.c:1004:1
	bx	lr
.Ltmp194:
	.p2align	2
@ %bb.1:
	.loc	2 0 1 is_stmt 0                 @ ../../../../Library/StdDriver/src/clk.c:0:1
__arm_cp.24_0:
	.long	3758153744                      @ 0xe000e010
.Lcpi_end69:
	.size	__arm_cp.24_0, .Lcpi_end69-__arm_cp.24_0
.Lfunc_end24:
	.size	CLK_DisableSysTick, .Lfunc_end24-CLK_DisableSysTick
	.cfi_endproc
	.cantunwind
	.fnend
                                        @ -- End function
	.section	.text.CLK_SetPowerDownMode,"ax",%progbits
	.hidden	CLK_SetPowerDownMode            @ -- Begin function CLK_SetPowerDownMode
	.globl	CLK_SetPowerDownMode
	.p2align	2
	.type	CLK_SetPowerDownMode,%function
	.code	16                              @ @CLK_SetPowerDownMode
	.thumb_func
CLK_SetPowerDownMode:
.Lfunc_begin25:
	.loc	2 1017 0 is_stmt 1              @ ../../../../Library/StdDriver/src/clk.c:1017:0
	.fnstart
	.cfi_startproc
@ %bb.0:
	.pad	#4
	sub	sp, #4
	.cfi_def_cfa_offset 4
	str	r0, [sp]
	ldr	r1, __arm_cp.25_0
.Ltmp195:
	.loc	2 1018 25 prologue_end          @ ../../../../Library/StdDriver/src/clk.c:1018:25
	ldr	r0, [r1]
	movs	r2, #7
	.loc	2 1018 32 is_stmt 0             @ ../../../../Library/StdDriver/src/clk.c:1018:32
	bics	r0, r2
	.loc	2 1018 62                       @ ../../../../Library/StdDriver/src/clk.c:1018:62
	ldr	r2, [sp]
	.loc	2 1018 60                       @ ../../../../Library/StdDriver/src/clk.c:1018:60
	orrs	r0, r2
	.loc	2 1018 17                       @ ../../../../Library/StdDriver/src/clk.c:1018:17
	str	r0, [r1]
	.loc	2 1019 1 is_stmt 1              @ ../../../../Library/StdDriver/src/clk.c:1019:1
	add	sp, #4
	bx	lr
.Ltmp196:
	.p2align	2
@ %bb.1:
	.loc	2 0 1 is_stmt 0                 @ ../../../../Library/StdDriver/src/clk.c:0:1
__arm_cp.25_0:
	.long	1073742480                      @ 0x40000290
.Lcpi_end70:
	.size	__arm_cp.25_0, .Lcpi_end70-__arm_cp.25_0
.Lfunc_end25:
	.size	CLK_SetPowerDownMode, .Lfunc_end25-CLK_SetPowerDownMode
	.cfi_endproc
	.cantunwind
	.fnend
                                        @ -- End function
	.section	.text.CLK_EnableDPDWKPin,"ax",%progbits
	.hidden	CLK_EnableDPDWKPin              @ -- Begin function CLK_EnableDPDWKPin
	.globl	CLK_EnableDPDWKPin
	.p2align	2
	.type	CLK_EnableDPDWKPin,%function
	.code	16                              @ @CLK_EnableDPDWKPin
	.thumb_func
CLK_EnableDPDWKPin:
.Lfunc_begin26:
	.loc	2 1040 0 is_stmt 1              @ ../../../../Library/StdDriver/src/clk.c:1040:0
	.fnstart
	.cfi_startproc
@ %bb.0:
	.pad	#12
	sub	sp, #12
	.cfi_def_cfa_offset 12
	str	r0, [sp, #8]
	str	r1, [sp, #4]
.Ltmp197:
	.loc	2 1041 13 prologue_end          @ ../../../../Library/StdDriver/src/clk.c:1041:13
	ldr	r0, [sp, #8]
	.loc	2 1041 5 is_stmt 0              @ ../../../../Library/StdDriver/src/clk.c:1041:5
	str	r0, [sp]                        @ 4-byte Spill
	cmp	r0, #4
	bhi	.LBB26_8
@ %bb.1:
	.loc	2 0 5                           @ ../../../../Library/StdDriver/src/clk.c:0:5
	ldr	r1, [sp]                        @ 4-byte Reload
	lsls	r2, r1, #2
	adr	r0, .LJTI26_0
	adds	r0, r0, r2
	mov	pc, r0
@ %bb.2:
	.p2align	2
.LJTI26_0:
	b.w	.LBB26_3
	b.w	.LBB26_4
	b.w	.LBB26_5
	b.w	.LBB26_6
	b.w	.LBB26_7
.LBB26_3:
	ldr	r1, __arm_cp.26_0
.Ltmp198:
	.loc	2 1044 33 is_stmt 1             @ ../../../../Library/StdDriver/src/clk.c:1044:33
	ldr	r0, [r1]
	movs	r2, #3
	lsls	r2, r2, #16
	.loc	2 1044 40 is_stmt 0             @ ../../../../Library/StdDriver/src/clk.c:1044:40
	bics	r0, r2
	.loc	2 1044 73                       @ ../../../../Library/StdDriver/src/clk.c:1044:73
	ldr	r2, [sp, #4]
	.loc	2 1044 88                       @ ../../../../Library/StdDriver/src/clk.c:1044:88
	lsls	r2, r2, #16
	.loc	2 1044 70                       @ ../../../../Library/StdDriver/src/clk.c:1044:70
	orrs	r0, r2
	.loc	2 1044 25                       @ ../../../../Library/StdDriver/src/clk.c:1044:25
	str	r0, [r1]
	.loc	2 1045 13 is_stmt 1             @ ../../../../Library/StdDriver/src/clk.c:1045:13
	b	.LBB26_8
.LBB26_4:
	.loc	2 0 13 is_stmt 0                @ ../../../../Library/StdDriver/src/clk.c:0:13
	ldr	r1, __arm_cp.26_0
	.loc	2 1048 33 is_stmt 1             @ ../../../../Library/StdDriver/src/clk.c:1048:33
	ldr	r0, [r1]
	movs	r2, #3
	lsls	r2, r2, #24
	.loc	2 1048 40 is_stmt 0             @ ../../../../Library/StdDriver/src/clk.c:1048:40
	bics	r0, r2
	.loc	2 1048 73                       @ ../../../../Library/StdDriver/src/clk.c:1048:73
	ldr	r2, [sp, #4]
	.loc	2 1048 88                       @ ../../../../Library/StdDriver/src/clk.c:1048:88
	lsls	r2, r2, #24
	.loc	2 1048 70                       @ ../../../../Library/StdDriver/src/clk.c:1048:70
	orrs	r0, r2
	.loc	2 1048 25                       @ ../../../../Library/StdDriver/src/clk.c:1048:25
	str	r0, [r1]
	.loc	2 1049 13 is_stmt 1             @ ../../../../Library/StdDriver/src/clk.c:1049:13
	b	.LBB26_8
.LBB26_5:
	.loc	2 0 13 is_stmt 0                @ ../../../../Library/StdDriver/src/clk.c:0:13
	ldr	r1, __arm_cp.26_0
	.loc	2 1052 33 is_stmt 1             @ ../../../../Library/StdDriver/src/clk.c:1052:33
	ldr	r0, [r1]
	movs	r2, #3
	lsls	r2, r2, #26
	.loc	2 1052 40 is_stmt 0             @ ../../../../Library/StdDriver/src/clk.c:1052:40
	bics	r0, r2
	.loc	2 1052 73                       @ ../../../../Library/StdDriver/src/clk.c:1052:73
	ldr	r2, [sp, #4]
	.loc	2 1052 88                       @ ../../../../Library/StdDriver/src/clk.c:1052:88
	lsls	r2, r2, #26
	.loc	2 1052 70                       @ ../../../../Library/StdDriver/src/clk.c:1052:70
	orrs	r0, r2
	.loc	2 1052 25                       @ ../../../../Library/StdDriver/src/clk.c:1052:25
	str	r0, [r1]
	.loc	2 1053 13 is_stmt 1             @ ../../../../Library/StdDriver/src/clk.c:1053:13
	b	.LBB26_8
.LBB26_6:
	.loc	2 0 13 is_stmt 0                @ ../../../../Library/StdDriver/src/clk.c:0:13
	ldr	r1, __arm_cp.26_0
	.loc	2 1056 33 is_stmt 1             @ ../../../../Library/StdDriver/src/clk.c:1056:33
	ldr	r0, [r1]
	movs	r2, #3
	lsls	r2, r2, #28
	.loc	2 1056 40 is_stmt 0             @ ../../../../Library/StdDriver/src/clk.c:1056:40
	bics	r0, r2
	.loc	2 1056 73                       @ ../../../../Library/StdDriver/src/clk.c:1056:73
	ldr	r2, [sp, #4]
	.loc	2 1056 88                       @ ../../../../Library/StdDriver/src/clk.c:1056:88
	lsls	r2, r2, #28
	.loc	2 1056 70                       @ ../../../../Library/StdDriver/src/clk.c:1056:70
	orrs	r0, r2
	.loc	2 1056 25                       @ ../../../../Library/StdDriver/src/clk.c:1056:25
	str	r0, [r1]
	.loc	2 1057 13 is_stmt 1             @ ../../../../Library/StdDriver/src/clk.c:1057:13
	b	.LBB26_8
.LBB26_7:
	.loc	2 0 13 is_stmt 0                @ ../../../../Library/StdDriver/src/clk.c:0:13
	ldr	r1, __arm_cp.26_0
	.loc	2 1060 33 is_stmt 1             @ ../../../../Library/StdDriver/src/clk.c:1060:33
	ldr	r0, [r1]
	movs	r2, #3
	lsls	r2, r2, #30
	.loc	2 1060 40 is_stmt 0             @ ../../../../Library/StdDriver/src/clk.c:1060:40
	bics	r0, r2
	.loc	2 1060 73                       @ ../../../../Library/StdDriver/src/clk.c:1060:73
	ldr	r2, [sp, #4]
	.loc	2 1060 88                       @ ../../../../Library/StdDriver/src/clk.c:1060:88
	lsls	r2, r2, #30
	.loc	2 1060 70                       @ ../../../../Library/StdDriver/src/clk.c:1060:70
	adds	r0, r0, r2
	.loc	2 1060 25                       @ ../../../../Library/StdDriver/src/clk.c:1060:25
	str	r0, [r1]
	.loc	2 1061 13 is_stmt 1             @ ../../../../Library/StdDriver/src/clk.c:1061:13
	b	.LBB26_8
.Ltmp199:
.LBB26_8:
	.loc	2 1063 1                        @ ../../../../Library/StdDriver/src/clk.c:1063:1
	add	sp, #12
	bx	lr
.Ltmp200:
	.p2align	2
@ %bb.9:
	.loc	2 0 1 is_stmt 0                 @ ../../../../Library/StdDriver/src/clk.c:0:1
__arm_cp.26_0:
	.long	1073742480                      @ 0x40000290
.Lcpi_end71:
	.size	__arm_cp.26_0, .Lcpi_end71-__arm_cp.26_0
.Lfunc_end26:
	.size	CLK_EnableDPDWKPin, .Lfunc_end26-CLK_EnableDPDWKPin
	.cfi_endproc
	.cantunwind
	.fnend
                                        @ -- End function
	.section	.text.CLK_EnableDPDWKPin0,"ax",%progbits
	.hidden	CLK_EnableDPDWKPin0             @ -- Begin function CLK_EnableDPDWKPin0
	.globl	CLK_EnableDPDWKPin0
	.p2align	2
	.type	CLK_EnableDPDWKPin0,%function
	.code	16                              @ @CLK_EnableDPDWKPin0
	.thumb_func
CLK_EnableDPDWKPin0:
.Lfunc_begin27:
	.loc	2 1077 0 is_stmt 1              @ ../../../../Library/StdDriver/src/clk.c:1077:0
	.fnstart
	.cfi_startproc
@ %bb.0:
	.pad	#4
	sub	sp, #4
	.cfi_def_cfa_offset 4
	str	r0, [sp]
	ldr	r1, __arm_cp.27_0
.Ltmp201:
	.loc	2 1078 25 prologue_end          @ ../../../../Library/StdDriver/src/clk.c:1078:25
	ldr	r0, [r1]
	movs	r2, #3
	lsls	r2, r2, #16
	.loc	2 1078 32 is_stmt 0             @ ../../../../Library/StdDriver/src/clk.c:1078:32
	bics	r0, r2
	.loc	2 1078 64                       @ ../../../../Library/StdDriver/src/clk.c:1078:64
	ldr	r2, [sp]
	.loc	2 1078 62                       @ ../../../../Library/StdDriver/src/clk.c:1078:62
	orrs	r0, r2
	.loc	2 1078 17                       @ ../../../../Library/StdDriver/src/clk.c:1078:17
	str	r0, [r1]
	.loc	2 1079 1 is_stmt 1              @ ../../../../Library/StdDriver/src/clk.c:1079:1
	add	sp, #4
	bx	lr
.Ltmp202:
	.p2align	2
@ %bb.1:
	.loc	2 0 1 is_stmt 0                 @ ../../../../Library/StdDriver/src/clk.c:0:1
__arm_cp.27_0:
	.long	1073742480                      @ 0x40000290
.Lcpi_end72:
	.size	__arm_cp.27_0, .Lcpi_end72-__arm_cp.27_0
.Lfunc_end27:
	.size	CLK_EnableDPDWKPin0, .Lfunc_end27-CLK_EnableDPDWKPin0
	.cfi_endproc
	.cantunwind
	.fnend
                                        @ -- End function
	.section	.text.CLK_EnableDPDWKPin1,"ax",%progbits
	.hidden	CLK_EnableDPDWKPin1             @ -- Begin function CLK_EnableDPDWKPin1
	.globl	CLK_EnableDPDWKPin1
	.p2align	2
	.type	CLK_EnableDPDWKPin1,%function
	.code	16                              @ @CLK_EnableDPDWKPin1
	.thumb_func
CLK_EnableDPDWKPin1:
.Lfunc_begin28:
	.loc	2 1093 0 is_stmt 1              @ ../../../../Library/StdDriver/src/clk.c:1093:0
	.fnstart
	.cfi_startproc
@ %bb.0:
	.pad	#4
	sub	sp, #4
	.cfi_def_cfa_offset 4
	str	r0, [sp]
	ldr	r1, __arm_cp.28_0
.Ltmp203:
	.loc	2 1094 25 prologue_end          @ ../../../../Library/StdDriver/src/clk.c:1094:25
	ldr	r0, [r1]
	movs	r2, #3
	lsls	r2, r2, #24
	.loc	2 1094 32 is_stmt 0             @ ../../../../Library/StdDriver/src/clk.c:1094:32
	bics	r0, r2
	.loc	2 1094 64                       @ ../../../../Library/StdDriver/src/clk.c:1094:64
	ldr	r2, [sp]
	.loc	2 1094 62                       @ ../../../../Library/StdDriver/src/clk.c:1094:62
	orrs	r0, r2
	.loc	2 1094 17                       @ ../../../../Library/StdDriver/src/clk.c:1094:17
	str	r0, [r1]
	.loc	2 1095 1 is_stmt 1              @ ../../../../Library/StdDriver/src/clk.c:1095:1
	add	sp, #4
	bx	lr
.Ltmp204:
	.p2align	2
@ %bb.1:
	.loc	2 0 1 is_stmt 0                 @ ../../../../Library/StdDriver/src/clk.c:0:1
__arm_cp.28_0:
	.long	1073742480                      @ 0x40000290
.Lcpi_end73:
	.size	__arm_cp.28_0, .Lcpi_end73-__arm_cp.28_0
.Lfunc_end28:
	.size	CLK_EnableDPDWKPin1, .Lfunc_end28-CLK_EnableDPDWKPin1
	.cfi_endproc
	.cantunwind
	.fnend
                                        @ -- End function
	.section	.text.CLK_EnableDPDWKPin2,"ax",%progbits
	.hidden	CLK_EnableDPDWKPin2             @ -- Begin function CLK_EnableDPDWKPin2
	.globl	CLK_EnableDPDWKPin2
	.p2align	2
	.type	CLK_EnableDPDWKPin2,%function
	.code	16                              @ @CLK_EnableDPDWKPin2
	.thumb_func
CLK_EnableDPDWKPin2:
.Lfunc_begin29:
	.loc	2 1109 0 is_stmt 1              @ ../../../../Library/StdDriver/src/clk.c:1109:0
	.fnstart
	.cfi_startproc
@ %bb.0:
	.pad	#4
	sub	sp, #4
	.cfi_def_cfa_offset 4
	str	r0, [sp]
	ldr	r1, __arm_cp.29_0
.Ltmp205:
	.loc	2 1110 25 prologue_end          @ ../../../../Library/StdDriver/src/clk.c:1110:25
	ldr	r0, [r1]
	movs	r2, #3
	lsls	r2, r2, #26
	.loc	2 1110 32 is_stmt 0             @ ../../../../Library/StdDriver/src/clk.c:1110:32
	bics	r0, r2
	.loc	2 1110 64                       @ ../../../../Library/StdDriver/src/clk.c:1110:64
	ldr	r2, [sp]
	.loc	2 1110 62                       @ ../../../../Library/StdDriver/src/clk.c:1110:62
	orrs	r0, r2
	.loc	2 1110 17                       @ ../../../../Library/StdDriver/src/clk.c:1110:17
	str	r0, [r1]
	.loc	2 1111 1 is_stmt 1              @ ../../../../Library/StdDriver/src/clk.c:1111:1
	add	sp, #4
	bx	lr
.Ltmp206:
	.p2align	2
@ %bb.1:
	.loc	2 0 1 is_stmt 0                 @ ../../../../Library/StdDriver/src/clk.c:0:1
__arm_cp.29_0:
	.long	1073742480                      @ 0x40000290
.Lcpi_end74:
	.size	__arm_cp.29_0, .Lcpi_end74-__arm_cp.29_0
.Lfunc_end29:
	.size	CLK_EnableDPDWKPin2, .Lfunc_end29-CLK_EnableDPDWKPin2
	.cfi_endproc
	.cantunwind
	.fnend
                                        @ -- End function
	.section	.text.CLK_EnableDPDWKPin3,"ax",%progbits
	.hidden	CLK_EnableDPDWKPin3             @ -- Begin function CLK_EnableDPDWKPin3
	.globl	CLK_EnableDPDWKPin3
	.p2align	2
	.type	CLK_EnableDPDWKPin3,%function
	.code	16                              @ @CLK_EnableDPDWKPin3
	.thumb_func
CLK_EnableDPDWKPin3:
.Lfunc_begin30:
	.loc	2 1125 0 is_stmt 1              @ ../../../../Library/StdDriver/src/clk.c:1125:0
	.fnstart
	.cfi_startproc
@ %bb.0:
	.pad	#4
	sub	sp, #4
	.cfi_def_cfa_offset 4
	str	r0, [sp]
	ldr	r1, __arm_cp.30_0
.Ltmp207:
	.loc	2 1126 25 prologue_end          @ ../../../../Library/StdDriver/src/clk.c:1126:25
	ldr	r0, [r1]
	movs	r2, #3
	lsls	r2, r2, #28
	.loc	2 1126 32 is_stmt 0             @ ../../../../Library/StdDriver/src/clk.c:1126:32
	bics	r0, r2
	.loc	2 1126 64                       @ ../../../../Library/StdDriver/src/clk.c:1126:64
	ldr	r2, [sp]
	.loc	2 1126 62                       @ ../../../../Library/StdDriver/src/clk.c:1126:62
	orrs	r0, r2
	.loc	2 1126 17                       @ ../../../../Library/StdDriver/src/clk.c:1126:17
	str	r0, [r1]
	.loc	2 1127 1 is_stmt 1              @ ../../../../Library/StdDriver/src/clk.c:1127:1
	add	sp, #4
	bx	lr
.Ltmp208:
	.p2align	2
@ %bb.1:
	.loc	2 0 1 is_stmt 0                 @ ../../../../Library/StdDriver/src/clk.c:0:1
__arm_cp.30_0:
	.long	1073742480                      @ 0x40000290
.Lcpi_end75:
	.size	__arm_cp.30_0, .Lcpi_end75-__arm_cp.30_0
.Lfunc_end30:
	.size	CLK_EnableDPDWKPin3, .Lfunc_end30-CLK_EnableDPDWKPin3
	.cfi_endproc
	.cantunwind
	.fnend
                                        @ -- End function
	.section	.text.CLK_EnableDPDWKPin4,"ax",%progbits
	.hidden	CLK_EnableDPDWKPin4             @ -- Begin function CLK_EnableDPDWKPin4
	.globl	CLK_EnableDPDWKPin4
	.p2align	2
	.type	CLK_EnableDPDWKPin4,%function
	.code	16                              @ @CLK_EnableDPDWKPin4
	.thumb_func
CLK_EnableDPDWKPin4:
.Lfunc_begin31:
	.loc	2 1141 0 is_stmt 1              @ ../../../../Library/StdDriver/src/clk.c:1141:0
	.fnstart
	.cfi_startproc
@ %bb.0:
	.pad	#4
	sub	sp, #4
	.cfi_def_cfa_offset 4
	str	r0, [sp]
	ldr	r1, __arm_cp.31_0
.Ltmp209:
	.loc	2 1142 25 prologue_end          @ ../../../../Library/StdDriver/src/clk.c:1142:25
	ldr	r0, [r1]
	movs	r2, #3
	lsls	r2, r2, #30
	.loc	2 1142 32 is_stmt 0             @ ../../../../Library/StdDriver/src/clk.c:1142:32
	bics	r0, r2
	.loc	2 1142 64                       @ ../../../../Library/StdDriver/src/clk.c:1142:64
	ldr	r2, [sp]
	.loc	2 1142 62                       @ ../../../../Library/StdDriver/src/clk.c:1142:62
	orrs	r0, r2
	.loc	2 1142 17                       @ ../../../../Library/StdDriver/src/clk.c:1142:17
	str	r0, [r1]
	.loc	2 1143 1 is_stmt 1              @ ../../../../Library/StdDriver/src/clk.c:1143:1
	add	sp, #4
	bx	lr
.Ltmp210:
	.p2align	2
@ %bb.1:
	.loc	2 0 1 is_stmt 0                 @ ../../../../Library/StdDriver/src/clk.c:0:1
__arm_cp.31_0:
	.long	1073742480                      @ 0x40000290
.Lcpi_end76:
	.size	__arm_cp.31_0, .Lcpi_end76-__arm_cp.31_0
.Lfunc_end31:
	.size	CLK_EnableDPDWKPin4, .Lfunc_end31-CLK_EnableDPDWKPin4
	.cfi_endproc
	.cantunwind
	.fnend
                                        @ -- End function
	.section	.text.CLK_GetPMUWKSrc,"ax",%progbits
	.hidden	CLK_GetPMUWKSrc                 @ -- Begin function CLK_GetPMUWKSrc
	.globl	CLK_GetPMUWKSrc
	.p2align	2
	.type	CLK_GetPMUWKSrc,%function
	.code	16                              @ @CLK_GetPMUWKSrc
	.thumb_func
CLK_GetPMUWKSrc:
.Lfunc_begin32:
	.loc	2 1154 0 is_stmt 1              @ ../../../../Library/StdDriver/src/clk.c:1154:0
	.fnstart
	.cfi_startproc
@ %bb.0:
	ldr	r0, __arm_cp.32_0
.Ltmp211:
	.loc	2 1155 18 prologue_end          @ ../../../../Library/StdDriver/src/clk.c:1155:18
	ldr	r0, [r0]
	.loc	2 1155 5 is_stmt 0              @ ../../../../Library/StdDriver/src/clk.c:1155:5
	bx	lr
.Ltmp212:
	.p2align	2
@ %bb.1:
	.loc	2 0 5                           @ ../../../../Library/StdDriver/src/clk.c:0:5
__arm_cp.32_0:
	.long	1073742484                      @ 0x40000294
.Lcpi_end77:
	.size	__arm_cp.32_0, .Lcpi_end77-__arm_cp.32_0
.Lfunc_end32:
	.size	CLK_GetPMUWKSrc, .Lfunc_end32-CLK_GetPMUWKSrc
	.cfi_endproc
	.cantunwind
	.fnend
                                        @ -- End function
	.section	.text.CLK_GetModuleClockSource,"ax",%progbits
	.hidden	CLK_GetModuleClockSource        @ -- Begin function CLK_GetModuleClockSource
	.globl	CLK_GetModuleClockSource
	.p2align	2
	.type	CLK_GetModuleClockSource,%function
	.code	16                              @ @CLK_GetModuleClockSource
	.thumb_func
CLK_GetModuleClockSource:
.Lfunc_begin33:
	.loc	2 1188 0 is_stmt 1              @ ../../../../Library/StdDriver/src/clk.c:1188:0
	.fnstart
	.cfi_startproc
@ %bb.0:
	.pad	#28
	sub	sp, #28
	.cfi_def_cfa_offset 28
	str	r0, [sp, #24]
	movs	r0, #0
.Ltmp213:
	.loc	2 1189 14 prologue_end          @ ../../../../Library/StdDriver/src/clk.c:1189:14
	str	r0, [sp, #20]
.Ltmp214:
	.loc	2 1192 9                        @ ../../../../Library/StdDriver/src/clk.c:1192:9
	ldr	r0, [sp, #24]
	ldr	r1, __arm_cp.33_0
.Ltmp215:
	.loc	2 1192 9 is_stmt 0              @ ../../../../Library/StdDriver/src/clk.c:1192:9
	cmp	r0, r1
	bne	.LBB33_2
	b	.LBB33_1
.LBB33_1:
	.loc	2 0 9                           @ ../../../../Library/StdDriver/src/clk.c:0:9
	ldr	r0, __arm_cp.33_5
.Ltmp216:
	.loc	2 1194 28 is_stmt 1             @ ../../../../Library/StdDriver/src/clk.c:1194:28
	ldr	r0, [r0]
	movs	r1, #1
	.loc	2 1194 36 is_stmt 0             @ ../../../../Library/StdDriver/src/clk.c:1194:36
	ands	r0, r1
	.loc	2 1194 19                       @ ../../../../Library/StdDriver/src/clk.c:1194:19
	str	r0, [sp, #20]
	.loc	2 1195 5 is_stmt 1              @ ../../../../Library/StdDriver/src/clk.c:1195:5
	b	.LBB33_14
.Ltmp217:
.LBB33_2:
	.loc	2 1196 14                       @ ../../../../Library/StdDriver/src/clk.c:1196:14
	ldr	r0, [sp, #24]
	ldr	r1, __arm_cp.33_1
.Ltmp218:
	.loc	2 1196 14 is_stmt 0             @ ../../../../Library/StdDriver/src/clk.c:1196:14
	cmp	r0, r1
	bne	.LBB33_4
	b	.LBB33_3
.LBB33_3:
	.loc	2 0 14                          @ ../../../../Library/StdDriver/src/clk.c:0:14
	ldr	r0, __arm_cp.33_5
.Ltmp219:
	.loc	2 1198 28 is_stmt 1             @ ../../../../Library/StdDriver/src/clk.c:1198:28
	ldr	r0, [r0]
	movs	r1, #2
	.loc	2 1198 36 is_stmt 0             @ ../../../../Library/StdDriver/src/clk.c:1198:36
	ands	r0, r1
	.loc	2 1198 63                       @ ../../../../Library/StdDriver/src/clk.c:1198:63
	lsrs	r0, r0, #1
	.loc	2 1198 19                       @ ../../../../Library/StdDriver/src/clk.c:1198:19
	str	r0, [sp, #20]
	.loc	2 1199 5 is_stmt 1              @ ../../../../Library/StdDriver/src/clk.c:1199:5
	b	.LBB33_13
.Ltmp220:
.LBB33_4:
	.loc	2 1200 14                       @ ../../../../Library/StdDriver/src/clk.c:1200:14
	ldr	r0, [sp, #24]
	ldr	r1, __arm_cp.33_2
.Ltmp221:
	.loc	2 1200 14 is_stmt 0             @ ../../../../Library/StdDriver/src/clk.c:1200:14
	cmp	r0, r1
	bne	.LBB33_6
	b	.LBB33_5
.LBB33_5:
	.loc	2 0 14                          @ ../../../../Library/StdDriver/src/clk.c:0:14
	ldr	r0, __arm_cp.33_5
.Ltmp222:
	.loc	2 1202 28 is_stmt 1             @ ../../../../Library/StdDriver/src/clk.c:1202:28
	ldr	r0, [r0]
	movw	r1, #256
	.loc	2 1202 36 is_stmt 0             @ ../../../../Library/StdDriver/src/clk.c:1202:36
	ands	r0, r1
	.loc	2 1202 64                       @ ../../../../Library/StdDriver/src/clk.c:1202:64
	lsrs	r0, r0, #8
	.loc	2 1202 19                       @ ../../../../Library/StdDriver/src/clk.c:1202:19
	str	r0, [sp, #20]
	.loc	2 1203 5 is_stmt 1              @ ../../../../Library/StdDriver/src/clk.c:1203:5
	b	.LBB33_12
.Ltmp223:
.LBB33_6:
	.loc	2 1204 14                       @ ../../../../Library/StdDriver/src/clk.c:1204:14
	ldr	r0, [sp, #24]
	ldr	r1, __arm_cp.33_3
.Ltmp224:
	.loc	2 1204 14 is_stmt 0             @ ../../../../Library/StdDriver/src/clk.c:1204:14
	cmp	r0, r1
	bne	.LBB33_8
	b	.LBB33_7
.LBB33_7:
	.loc	2 0 14                          @ ../../../../Library/StdDriver/src/clk.c:0:14
	ldr	r0, __arm_cp.33_5
.Ltmp225:
	.loc	2 1206 28 is_stmt 1             @ ../../../../Library/StdDriver/src/clk.c:1206:28
	ldr	r0, [r0]
	movw	r1, #512
	.loc	2 1206 36 is_stmt 0             @ ../../../../Library/StdDriver/src/clk.c:1206:36
	ands	r0, r1
	.loc	2 1206 64                       @ ../../../../Library/StdDriver/src/clk.c:1206:64
	lsrs	r0, r0, #9
	.loc	2 1206 19                       @ ../../../../Library/StdDriver/src/clk.c:1206:19
	str	r0, [sp, #20]
	.loc	2 1207 5 is_stmt 1              @ ../../../../Library/StdDriver/src/clk.c:1207:5
	b	.LBB33_11
.Ltmp226:
.LBB33_8:
	.loc	2 1208 14                       @ ../../../../Library/StdDriver/src/clk.c:1208:14
	ldr	r0, [sp, #24]
	lsls	r0, r0, #4
	lsrs	r0, r0, #29
.Ltmp227:
	.loc	2 1208 14 is_stmt 0             @ ../../../../Library/StdDriver/src/clk.c:1208:14
	cbz	r0, .LBB33_10
	b	.LBB33_9
.LBB33_9:
	.loc	2 0 14                          @ ../../../../Library/StdDriver/src/clk.c:0:14
	movs	r0, #12
.Ltmp228:
	.loc	2 1211 24 is_stmt 1             @ ../../../../Library/StdDriver/src/clk.c:1211:24
	str	r0, [sp, #12]
	movs	r1, #8
	str	r1, [sp, #8]
	movs	r1, #4
	str	r1, [sp, #4]
	movs	r1, #0
	str	r1, [sp]
	.loc	2 1214 60                       @ ../../../../Library/StdDriver/src/clk.c:1214:60
	ldr	r1, [sp, #24]
	.loc	2 1214 49 is_stmt 0             @ ../../../../Library/StdDriver/src/clk.c:1214:49
	lsrs	r1, r1, #26
	ands	r1, r0
	mov	r0, sp
	ldr	r0, [r0, r1]
	ldr	r1, __arm_cp.33_4
	.loc	2 1214 46                       @ ../../../../Library/StdDriver/src/clk.c:1214:46
	adds	r0, r0, r1
	.loc	2 1214 20                       @ ../../../../Library/StdDriver/src/clk.c:1214:20
	str	r0, [sp, #16]
	.loc	2 1217 23 is_stmt 1             @ ../../../../Library/StdDriver/src/clk.c:1217:23
	ldr	r0, [sp, #16]
	ldr	r0, [r0]
	.loc	2 1217 55 is_stmt 0             @ ../../../../Library/StdDriver/src/clk.c:1217:55
	ldr	r1, [sp, #24]
	lsls	r2, r1, #4
	lsrs	r2, r2, #29
	.loc	2 1217 90                       @ ../../../../Library/StdDriver/src/clk.c:1217:90
	lsls	r1, r1, #7
	lsrs	r1, r1, #27
	.loc	2 1217 87                       @ ../../../../Library/StdDriver/src/clk.c:1217:87
	lsls	r2, r1
	.loc	2 1217 52                       @ ../../../../Library/StdDriver/src/clk.c:1217:52
	ands	r0, r2
	.loc	2 1217 124                      @ ../../../../Library/StdDriver/src/clk.c:1217:124
	lsrs	r0, r1
	.loc	2 1217 19                       @ ../../../../Library/StdDriver/src/clk.c:1217:19
	str	r0, [sp, #20]
	.loc	2 1218 5 is_stmt 1              @ ../../../../Library/StdDriver/src/clk.c:1218:5
	b	.LBB33_10
.Ltmp229:
.LBB33_10:
	.loc	2 0 5 is_stmt 0                 @ ../../../../Library/StdDriver/src/clk.c:0:5
	b	.LBB33_11
.LBB33_11:
	b	.LBB33_12
.LBB33_12:
	b	.LBB33_13
.LBB33_13:
	b	.LBB33_14
.LBB33_14:
	.loc	2 1220 12 is_stmt 1             @ ../../../../Library/StdDriver/src/clk.c:1220:12
	ldr	r0, [sp, #20]
	.loc	2 1220 5 is_stmt 0              @ ../../../../Library/StdDriver/src/clk.c:1220:5
	add	sp, #28
	bx	lr
.Ltmp230:
	.p2align	2
@ %bb.15:
	.loc	2 0 5                           @ ../../../../Library/StdDriver/src/clk.c:0:5
__arm_cp.33_0:
	.long	2717909008                      @ 0xa2000010
.Lcpi_end78:
	.size	__arm_cp.33_0, .Lcpi_end78-__arm_cp.33_0
__arm_cp.33_1:
	.long	2718957585                      @ 0xa2100011
.Lcpi_end79:
	.size	__arm_cp.33_1, .Lcpi_end79-__arm_cp.33_1
__arm_cp.33_2:
	.long	2726297618                      @ 0xa2800012
.Lcpi_end80:
	.size	__arm_cp.33_2, .Lcpi_end80-__arm_cp.33_2
__arm_cp.33_3:
	.long	2727346195                      @ 0xa2900013
.Lcpi_end81:
	.size	__arm_cp.33_3, .Lcpi_end81-__arm_cp.33_3
__arm_cp.33_4:
	.long	1073742352                      @ 0x40000210
.Lcpi_end82:
	.size	__arm_cp.33_4, .Lcpi_end82-__arm_cp.33_4
__arm_cp.33_5:
	.long	1073742360                      @ 0x40000218
.Lcpi_end83:
	.size	__arm_cp.33_5, .Lcpi_end83-__arm_cp.33_5
.Lfunc_end33:
	.size	CLK_GetModuleClockSource, .Lfunc_end33-CLK_GetModuleClockSource
	.cfi_endproc
	.cantunwind
	.fnend
                                        @ -- End function
	.section	.text.CLK_GetModuleClockDivider,"ax",%progbits
	.hidden	CLK_GetModuleClockDivider       @ -- Begin function CLK_GetModuleClockDivider
	.globl	CLK_GetModuleClockDivider
	.p2align	2
	.type	CLK_GetModuleClockDivider,%function
	.code	16                              @ @CLK_GetModuleClockDivider
	.thumb_func
CLK_GetModuleClockDivider:
.Lfunc_begin34:
	.loc	2 1238 0 is_stmt 1              @ ../../../../Library/StdDriver/src/clk.c:1238:0
	.fnstart
	.cfi_startproc
@ %bb.0:
	.pad	#28
	sub	sp, #28
	.cfi_def_cfa_offset 28
	str	r0, [sp, #24]
	movs	r0, #0
.Ltmp231:
	.loc	2 1239 14 prologue_end          @ ../../../../Library/StdDriver/src/clk.c:1239:14
	str	r0, [sp, #20]
.Ltmp232:
	.loc	2 1241 9                        @ ../../../../Library/StdDriver/src/clk.c:1241:9
	ldr	r0, [sp, #24]
	lsrs	r0, r0, #10
.Ltmp233:
	.loc	2 1241 9 is_stmt 0              @ ../../../../Library/StdDriver/src/clk.c:1241:9
	lsls	r0, r0, #24
	cbz	r0, .LBB34_2
	b	.LBB34_1
.LBB34_1:
	.loc	2 0 9                           @ ../../../../Library/StdDriver/src/clk.c:0:9
	movs	r0, #16
.Ltmp234:
	.loc	2 1244 24 is_stmt 1             @ ../../../../Library/StdDriver/src/clk.c:1244:24
	str	r0, [sp, #12]
	movs	r0, #8
	str	r0, [sp, #8]
	movs	r0, #4
	str	r0, [sp, #4]
	movs	r0, #0
	str	r0, [sp]
	add	r0, sp, #24
	.loc	2 1247 60                       @ ../../../../Library/StdDriver/src/clk.c:1247:60
	ldrh	r1, [r0, #2]
	movs	r0, #12
	.loc	2 1247 49 is_stmt 0             @ ../../../../Library/StdDriver/src/clk.c:1247:49
	ands	r1, r0
	mov	r0, sp
	ldr	r0, [r0, r1]
	ldr	r1, __arm_cp.34_0
	.loc	2 1247 46                       @ ../../../../Library/StdDriver/src/clk.c:1247:46
	adds	r0, r0, r1
	.loc	2 1247 20                       @ ../../../../Library/StdDriver/src/clk.c:1247:20
	str	r0, [sp, #16]
	.loc	2 1249 23 is_stmt 1             @ ../../../../Library/StdDriver/src/clk.c:1249:23
	ldr	r0, [sp, #16]
	ldr	r0, [r0]
	.loc	2 1249 55 is_stmt 0             @ ../../../../Library/StdDriver/src/clk.c:1249:55
	ldr	r1, [sp, #24]
	lsrs	r2, r1, #10
	uxtb	r2, r2
	.loc	2 1249 90                       @ ../../../../Library/StdDriver/src/clk.c:1249:90
	lsls	r1, r1, #22
	lsrs	r1, r1, #27
	.loc	2 1249 87                       @ ../../../../Library/StdDriver/src/clk.c:1249:87
	lsls	r2, r1
	.loc	2 1249 52                       @ ../../../../Library/StdDriver/src/clk.c:1249:52
	ands	r0, r2
	.loc	2 1249 124                      @ ../../../../Library/StdDriver/src/clk.c:1249:124
	lsrs	r0, r1
	.loc	2 1249 19                       @ ../../../../Library/StdDriver/src/clk.c:1249:19
	str	r0, [sp, #20]
	.loc	2 1250 5 is_stmt 1              @ ../../../../Library/StdDriver/src/clk.c:1250:5
	b	.LBB34_2
.Ltmp235:
.LBB34_2:
	.loc	2 1252 12                       @ ../../../../Library/StdDriver/src/clk.c:1252:12
	ldr	r0, [sp, #20]
	.loc	2 1252 5 is_stmt 0              @ ../../../../Library/StdDriver/src/clk.c:1252:5
	add	sp, #28
	bx	lr
.Ltmp236:
	.p2align	2
@ %bb.3:
	.loc	2 0 5                           @ ../../../../Library/StdDriver/src/clk.c:0:5
__arm_cp.34_0:
	.long	1073742368                      @ 0x40000220
.Lcpi_end84:
	.size	__arm_cp.34_0, .Lcpi_end84-__arm_cp.34_0
.Lfunc_end34:
	.size	CLK_GetModuleClockDivider, .Lfunc_end34-CLK_GetModuleClockDivider
	.cfi_endproc
	.cantunwind
	.fnend
                                        @ -- End function
	.hidden	g_CLK_i32ErrCode                @ @g_CLK_i32ErrCode
	.type	g_CLK_i32ErrCode,%object
	.section	.bss.g_CLK_i32ErrCode,"aw",%nobits
	.globl	g_CLK_i32ErrCode
	.p2align	2, 0x0
g_CLK_i32ErrCode:
	.long	0                               @ 0x0
	.size	g_CLK_i32ErrCode, 4

	.type	.L__const.CLK_GetPLLClockFreq.au8NoTbl,%object @ @__const.CLK_GetPLLClockFreq.au8NoTbl
	.section	.rodata.cst4,"aM",%progbits,4
.L__const.CLK_GetPLLClockFreq.au8NoTbl:
	.ascii	"\001\002\004\004"
	.size	.L__const.CLK_GetPLLClockFreq.au8NoTbl, 4

	.type	.L__const.CLK_SetModuleClock.au32DivTbl,%object @ @__const.CLK_SetModuleClock.au32DivTbl
	.section	.rodata.cst16,"aM",%progbits,16
	.p2align	2, 0x0
.L__const.CLK_SetModuleClock.au32DivTbl:
	.long	0                               @ 0x0
	.long	4                               @ 0x4
	.long	12                              @ 0xc
	.long	16                              @ 0x10
	.size	.L__const.CLK_SetModuleClock.au32DivTbl, 16

	.type	.L__const.CLK_SetModuleClock.au32SelTbl,%object @ @__const.CLK_SetModuleClock.au32SelTbl
	.p2align	2, 0x0
.L__const.CLK_SetModuleClock.au32SelTbl:
	.long	0                               @ 0x0
	.long	4                               @ 0x4
	.long	8                               @ 0x8
	.long	12                              @ 0xc
	.size	.L__const.CLK_SetModuleClock.au32SelTbl, 16

	.type	.L__const.CLK_EnableModuleClock.au32ClkTbl,%object @ @__const.CLK_EnableModuleClock.au32ClkTbl
	.section	.rodata..L__const.CLK_EnableModuleClock.au32ClkTbl,"a",%progbits
	.p2align	2, 0x0
.L__const.CLK_EnableModuleClock.au32ClkTbl:
	.long	0                               @ 0x0
	.long	4                               @ 0x4
	.long	8                               @ 0x8
	.size	.L__const.CLK_EnableModuleClock.au32ClkTbl, 12

	.type	.L__const.CLK_DisableModuleClock.au32ClkTbl,%object @ @__const.CLK_DisableModuleClock.au32ClkTbl
	.section	.rodata..L__const.CLK_DisableModuleClock.au32ClkTbl,"a",%progbits
	.p2align	2, 0x0
.L__const.CLK_DisableModuleClock.au32ClkTbl:
	.long	0                               @ 0x0
	.long	4                               @ 0x4
	.long	8                               @ 0x8
	.size	.L__const.CLK_DisableModuleClock.au32ClkTbl, 12

	.type	.L__const.CLK_GetModuleClockSource.au32SelTbl,%object @ @__const.CLK_GetModuleClockSource.au32SelTbl
	.section	.rodata.cst16,"aM",%progbits,16
	.p2align	2, 0x0
.L__const.CLK_GetModuleClockSource.au32SelTbl:
	.long	0                               @ 0x0
	.long	4                               @ 0x4
	.long	8                               @ 0x8
	.long	12                              @ 0xc
	.size	.L__const.CLK_GetModuleClockSource.au32SelTbl, 16

	.type	.L__const.CLK_GetModuleClockDivider.au32DivTbl,%object @ @__const.CLK_GetModuleClockDivider.au32DivTbl
	.p2align	2, 0x0
.L__const.CLK_GetModuleClockDivider.au32DivTbl:
	.long	0                               @ 0x0
	.long	4                               @ 0x4
	.long	8                               @ 0x8
	.long	16                              @ 0x10
	.size	.L__const.CLK_GetModuleClockDivider.au32DivTbl, 16

	.section	".note.GNU-stack","",%progbits
	.eabi_attribute	30, 6	@ Tag_ABI_optimization_goals
	.ARM_attribute	16, 1	@ Tag_AV_eba