	.text
	.syntax unified
	.eabi_attribute	67, "2.09"	@ Tag_conformance
	.cpu	cortex-m23
	.eabi_attribute	6, 16	@ Tag_CPU_arch
	.eabi_attribute	7, 77	@ Tag_CPU_arch_profile
	.eabi_attribute	8, 0	@ Tag_ARM_ISA_use
	.eabi_attribute	9, 3	@ Tag_THUMB_ISA_use
	.eabi_attribute	34, 0	@ Tag_CPU_unaligned_access
	.eabi_attribute	17, 1	@ Tag_ABI_PCS_GOT_use
	.eabi_attribute	20, 2	@ Tag_ABI_FP_denormal
	.eabi_attribute	21, 0	@ Tag_ABI_FP_exceptions
	.eabi_attribute	23, 1	@ Tag_ABI_FP_number_model
	.eabi_attribute	24, 1	@ Tag_ABI_align_needed
	.eabi_attribute	25, 1	@ Tag_ABI_align_preserved
	.eabi_attribute	38, 1	@ Tag_ABI_FP_16bit_format
	.eabi_attribute	18, 2	@ Tag_ABI_PCS_wchar_t
	.eabi_attribute	26, 1	@ Tag_ABI_enum_size
	.eabi_attribute	14, 0	@ Tag_ABI_PCS_R9_use
	.file	"clk_conf.c"
	.file	1 "C:\\Keil_v5\\ARM\\ARMCLANG\\Bin\\..\\include" "stdint.h"
	.file	2 "E:\\ROBOCON2024\\01. Coding\\Nuvoton\\demo_robot_3wheel\\SampleCode\\NuCodeGen\\DemoCodeGen\\KEIL" "../../../../Library/Device/Nuvoton/M251/Include/clk_reg.h"
	.section	.text.Clock_Init,"ax",%progbits
	.hidden	Clock_Init                      @ -- Begin function Clock_Init
	.globl	Clock_Init
	.p2align	2
	.type	Clock_Init,%function
	.code	16                              @ @Clock_Init
	.thumb_func
Clock_Init:
.Lfunc_begin0:
	.file	3 "E:\\ROBOCON2024\\01. Coding\\Nuvoton\\demo_robot_3wheel\\SampleCode\\NuCodeGen\\DemoCodeGen\\KEIL" "../clk_conf.c"
	.loc	3 44 0                          @ ../clk_conf.c:44:0
	.fnstart
	.cfi_sections .debug_frame
	.cfi_startproc
@ %bb.0:
	.save	{r7, lr}
	push	{r7, lr}
	.cfi_def_cfa_offset 8
	.cfi_offset lr, -4
	.cfi_offset r7, -8
	.pad	#40
	sub	sp, #40
	.cfi_def_cfa_offset 48
	ldr	r0, __arm_cp.0_0
.Ltmp0:
	.loc	3 65 5 prologue_end             @ ../clk_conf.c:65:5
	bl	CLK_EnableXtalRC
	movs	r0, #91
	.loc	3 68 5                          @ ../clk_conf.c:68:5
	bl	CLK_WaitClockReady
	movs	r0, #7
	movs	r1, #0
	.loc	3 71 5                          @ ../clk_conf.c:71:5
	str	r1, [sp, #36]                   @ 4-byte Spill
	bl	CLK_SetHCLK
	ldr	r0, [sp, #36]                   @ 4-byte Reload
	ldr	r1, __arm_cp.0_1
	.loc	3 74 18                         @ ../clk_conf.c:74:18
	str	r0, [r1]
	movs	r0, #15
	.loc	3 77 5                          @ ../clk_conf.c:77:5
	bl	CLK_EnableModuleClock
	movs	r0, #26
	.loc	3 78 5                          @ ../clk_conf.c:78:5
	bl	CLK_EnableModuleClock
	movs	r0, #2
	.loc	3 79 5                          @ ../clk_conf.c:79:5
	bl	CLK_EnableModuleClock
	ldr	r0, __arm_cp.0_2
	.loc	3 80 5                          @ ../clk_conf.c:80:5
	str	r0, [sp, #4]                    @ 4-byte Spill
	bl	CLK_EnableModuleClock
	ldr	r0, __arm_cp.0_3
	.loc	3 81 5                          @ ../clk_conf.c:81:5
	str	r0, [sp, #8]                    @ 4-byte Spill
	bl	CLK_EnableModuleClock
	ldr	r0, __arm_cp.0_4
	.loc	3 82 5                          @ ../clk_conf.c:82:5
	str	r0, [sp, #16]                   @ 4-byte Spill
	bl	CLK_EnableModuleClock
	ldr	r0, __arm_cp.0_5
	.loc	3 83 5                          @ ../clk_conf.c:83:5
	str	r0, [sp, #20]                   @ 4-byte Spill
	bl	CLK_EnableModuleClock
	movs	r0, #43
	lsls	r0, r0, #25
	.loc	3 84 5                          @ ../clk_conf.c:84:5
	str	r0, [sp, #28]                   @ 4-byte Spill
	bl	CLK_EnableModuleClock
	ldr	r0, __arm_cp.0_6
	.loc	3 85 5                          @ ../clk_conf.c:85:5
	str	r0, [sp, #32]                   @ 4-byte Spill
	bl	CLK_EnableModuleClock
	ldr	r0, [sp, #4]                    @ 4-byte Reload
	ldr	r2, [sp, #36]                   @ 4-byte Reload
	movw	r1, #512
	.loc	3 88 5                          @ ../clk_conf.c:88:5
	bl	CLK_SetModuleClock
	ldr	r0, [sp, #8]                    @ 4-byte Reload
	ldr	r2, [sp, #36]                   @ 4-byte Reload
	movs	r1, #1
	str	r1, [sp, #12]                   @ 4-byte Spill
	lsls	r1, r1, #26
	.loc	3 89 5                          @ ../clk_conf.c:89:5
	str	r1, [sp, #24]                   @ 4-byte Spill
	bl	CLK_SetModuleClock
	ldr	r1, [sp, #12]                   @ 4-byte Reload
	ldr	r0, [sp, #16]                   @ 4-byte Reload
	ldr	r2, [sp, #36]                   @ 4-byte Reload
	lsls	r1, r1, #30
	.loc	3 90 5                          @ ../clk_conf.c:90:5
	bl	CLK_SetModuleClock
	ldr	r0, [sp, #20]                   @ 4-byte Reload
	ldr	r1, [sp, #24]                   @ 4-byte Reload
	ldr	r2, [sp, #36]                   @ 4-byte Reload
	.loc	3 91 5                          @ ../clk_conf.c:91:5
	bl	CLK_SetModuleClock
	ldr	r0, [sp, #28]                   @ 4-byte Reload
	ldr	r2, [sp, #36]                   @ 4-byte Reload
	movs	r1, #3
	.loc	3 92 5                          @ ../clk_conf.c:92:5
	bl	CLK_SetModuleClock
	ldr	r0, [sp, #32]                   @ 4-byte Reload
	ldr	r2, [sp, #36]                   @ 4-byte Reload
	movs	r1, #8
	.loc	3 93 5                          @ ../clk_conf.c:93:5
	bl	CLK_SetModuleClock
	.loc	3 97 5                          @ ../clk_conf.c:97:5
	bl	SystemCoreClockUpdate
	.loc	3 99 5                          @ ../clk_conf.c:99:5
	add	sp, #40
	pop	{r7, pc}
.Ltmp1:
	.p2align	2
@ %bb.1:
	.loc	3 0 5 is_stmt 0                 @ ../clk_conf.c:0:5
__arm_cp.0_0:
	.long	524303                          @ 0x8000f
.Lcpi_end0:
	.size	__arm_cp.0_0, .Lcpi_end0-__arm_cp.0_0
__arm_cp.0_1:
	.long	1073742388                      @ 0x40000234
.Lcpi_end1:
	.size	__arm_cp.0_1, .Lcpi_end1-__arm_cp.0_1
__arm_cp.0_2:
	.long	1585446914                      @ 0x5e800002
.Lcpi_end2:
	.size	__arm_cp.0_2, .Lcpi_end2-__arm_cp.0_2
__arm_cp.0_3:
	.long	1602239760                      @ 0x5f803d10
.Lcpi_end3:
	.size	__arm_cp.0_3, .Lcpi_end3-__arm_cp.0_3
__arm_cp.0_4:
	.long	1606434193                      @ 0x5fc03d91
.Lcpi_end4:
	.size	__arm_cp.0_4, .Lcpi_end4-__arm_cp.0_4
__arm_cp.0_5:
	.long	2139896850                      @ 0x7f8c3c12
.Lcpi_end5:
	.size	__arm_cp.0_5, .Lcpi_end5-__arm_cp.0_5
__arm_cp.0_6:
	.long	1444937728                      @ 0x56200000
.Lcpi_end6:
	.size	__arm_cp.0_6, .Lcpi_end6-__arm_cp.0_6
.Lfunc_end0:
	.size	Clock_Init, .Lfunc_end0-Clock_Init
	.cfi_endproc
	.cantunwind
	.fnend
                                        @ -- End function
	.section	".note.GNU-stack","",%progbits
	.eabi_attribute	30, 6	@ Tag_ABI_optimization_goals
	.ARM_attribute	16, 1	@ Tag_AV_eba