	.text
	.syntax unified
	.eabi_attribute	67, "2.09"	@ Tag_conformance
	.cpu	cortex-m23
	.eabi_attribute	6, 16	@ Tag_CPU_arch
	.eabi_attribute	7, 77	@ Tag_CPU_arch_profile
	.eabi_attribute	8, 0	@ Tag_ARM_ISA_use
	.eabi_attribute	9, 3	@ Tag_THUMB_ISA_use
	.eabi_attribute	34, 0	@ Tag_CPU_unaligned_access
	.eabi_attribute	17, 1	@ Tag_ABI_PCS_GOT_use
	.eabi_attribute	20, 2	@ Tag_ABI_FP_denormal
	.eabi_attribute	21, 0	@ Tag_ABI_FP_exceptions
	.eabi_attribute	23, 1	@ Tag_ABI_FP_number_model
	.eabi_attribute	24, 1	@ Tag_ABI_align_needed
	.eabi_attribute	25, 1	@ Tag_ABI_align_preserved
	.eabi_attribute	38, 1	@ Tag_ABI_FP_16bit_format
	.eabi_attribute	18, 2	@ Tag_ABI_PCS_wchar_t
	.eabi_attribute	26, 1	@ Tag_ABI_enum_size
	.eabi_attribute	14, 0	@ Tag_ABI_PCS_R9_use
	.file	"crypto.c"
	.file	1 "C:\\Keil_v5\\ARM\\ARMCLANG\\Bin\\..\\include" "stdint.h"
	.file	2 "E:\\ROBOCON2024\\01. Coding\\Nuvoton\\demo_robot_3wheel\\SampleCode\\NuCodeGen\\DemoCodeGen\\KEIL" "../../../../Library/StdDriver/src/crypto.c"
	.section	.text.AES_Open,"ax",%progbits
	.hidden	AES_Open                        @ -- Begin function AES_Open
	.globl	AES_Open
	.p2align	2
	.type	AES_Open,%function
	.code	16                              @ @AES_Open
	.thumb_func
AES_Open:
.Lfunc_begin0:
	.loc	2 72 0                          @ ../../../../Library/StdDriver/src/crypto.c:72:0
	.fnstart
	.cfi_sections .debug_frame
	.cfi_startproc
@ %bb.0:
	.save	{r4, lr}
	push	{r4, lr}
	.cfi_def_cfa_offset 8
	.cfi_offset lr, -4
	.cfi_offset r4, -8
	.pad	#16
	sub	sp, #16
	.cfi_def_cfa_offset 24
	ldr	r4, [sp, #28]
	ldr	r4, [sp, #24]
	str	r0, [sp, #12]
	str	r1, [sp, #8]
	str	r2, [sp, #4]
	str	r3, [sp]
.Ltmp0:
	.loc	2 73 22 prologue_end            @ ../../../../Library/StdDriver/src/crypto.c:73:22
	ldr	r0, [sp, #4]
	.loc	2 73 32 is_stmt 0               @ ../../../../Library/StdDriver/src/crypto.c:73:32
	lsls	r0, r0, #16
	.loc	2 74 22 is_stmt 1               @ ../../../../Library/StdDriver/src/crypto.c:74:22
	ldr	r1, [sp]
	.loc	2 74 32 is_stmt 0               @ ../../../../Library/StdDriver/src/crypto.c:74:32
	lsls	r1, r1, #8
	.loc	2 73 62 is_stmt 1               @ ../../../../Library/StdDriver/src/crypto.c:73:62
	orrs	r0, r1
	.loc	2 75 22                         @ ../../../../Library/StdDriver/src/crypto.c:75:22
	ldr	r1, [sp, #24]
	.loc	2 75 33 is_stmt 0               @ ../../../../Library/StdDriver/src/crypto.c:75:33
	lsls	r1, r1, #2
	.loc	2 74 60 is_stmt 1               @ ../../../../Library/StdDriver/src/crypto.c:74:60
	orrs	r0, r1
	.loc	2 76 22                         @ ../../../../Library/StdDriver/src/crypto.c:76:22
	ldr	r1, [sp, #28]
	.loc	2 76 34 is_stmt 0               @ ../../../../Library/StdDriver/src/crypto.c:76:34
	lsls	r1, r1, #22
	.loc	2 75 60 is_stmt 1               @ ../../../../Library/StdDriver/src/crypto.c:75:60
	orrs	r0, r1
	.loc	2 73 5                          @ ../../../../Library/StdDriver/src/crypto.c:73:5
	ldr	r2, [sp, #12]
	movw	r1, #256
	.loc	2 73 19 is_stmt 0               @ ../../../../Library/StdDriver/src/crypto.c:73:19
	str	r0, [r2, r1]
	.loc	2 77 33 is_stmt 1               @ ../../../../Library/StdDriver/src/crypto.c:77:33
	ldr	r0, [sp, #12]
	.loc	2 77 39 is_stmt 0               @ ../../../../Library/StdDriver/src/crypto.c:77:39
	ldr	r0, [r0, r1]
	.loc	2 77 19                         @ ../../../../Library/StdDriver/src/crypto.c:77:19
	ldr	r1, [sp, #8]
	.loc	2 77 5                          @ ../../../../Library/StdDriver/src/crypto.c:77:5
	lsls	r2, r1, #2
	ldr	r1, __arm_cp.0_0
	.loc	2 77 31                         @ ../../../../Library/StdDriver/src/crypto.c:77:31
	str	r0, [r1, r2]
	.loc	2 78 1 is_stmt 1                @ ../../../../Library/StdDriver/src/crypto.c:78:1
	add	sp, #16
	pop	{r4, pc}
.Ltmp1:
	.p2align	2
@ %bb.1:
	.loc	2 0 1 is_stmt 0                 @ ../../../../Library/StdDriver/src/crypto.c:0:1
__arm_cp.0_0:
	.long	g_AES_au32CTL
.Lcpi_end0:
	.size	__arm_cp.0_0, .Lcpi_end0-__arm_cp.0_0
.Lfunc_end0:
	.size	AES_Open, .Lfunc_end0-AES_Open
	.cfi_endproc
	.cantunwind
	.fnend
                                        @ -- End function
	.section	.text.AES_Start,"ax",%progbits
	.hidden	AES_Start                       @ -- Begin function AES_Start
	.globl	AES_Start
	.p2align	2
	.type	AES_Start,%function
	.code	16                              @ @AES_Start
	.thumb_func
AES_Start:
.Lfunc_begin1:
	.loc	2 91 0 is_stmt 1                @ ../../../../Library/StdDriver/src/crypto.c:91:0
	.fnstart
	.cfi_startproc
@ %bb.0:
	.pad	#12
	sub	sp, #12
	.cfi_def_cfa_offset 12
	str	r0, [sp, #8]
	str	r1, [sp, #4]
	str	r2, [sp]
.Ltmp2:
	.loc	2 92 35 prologue_end            @ ../../../../Library/StdDriver/src/crypto.c:92:35
	ldr	r0, [sp, #4]
	.loc	2 92 21 is_stmt 0               @ ../../../../Library/StdDriver/src/crypto.c:92:21
	lsls	r1, r0, #2
	ldr	r0, __arm_cp.1_0
	ldr	r0, [r0, r1]
	.loc	2 92 5                          @ ../../../../Library/StdDriver/src/crypto.c:92:5
	ldr	r1, [sp, #8]
	movw	r2, #256
	.loc	2 92 19                         @ ../../../../Library/StdDriver/src/crypto.c:92:19
	str	r0, [r1, r2]
	.loc	2 93 48 is_stmt 1               @ ../../../../Library/StdDriver/src/crypto.c:93:48
	ldr	r0, [sp]
	.loc	2 93 59 is_stmt 0               @ ../../../../Library/StdDriver/src/crypto.c:93:59
	lsls	r0, r0, #5
	.loc	2 93 5                          @ ../../../../Library/StdDriver/src/crypto.c:93:5
	ldr	r1, [sp, #8]
	.loc	2 93 19                         @ ../../../../Library/StdDriver/src/crypto.c:93:19
	ldr	r3, [r1, r2]
	.loc	2 93 45                         @ ../../../../Library/StdDriver/src/crypto.c:93:45
	orrs	r0, r3
	movs	r3, #1
	.loc	2 93 19                         @ ../../../../Library/StdDriver/src/crypto.c:93:19
	orrs	r0, r3
	str	r0, [r1, r2]
	.loc	2 94 1 is_stmt 1                @ ../../../../Library/StdDriver/src/crypto.c:94:1
	add	sp, #12
	bx	lr
.Ltmp3:
	.p2align	2
@ %bb.1:
	.loc	2 0 1 is_stmt 0                 @ ../../../../Library/StdDriver/src/crypto.c:0:1
__arm_cp.1_0:
	.long	g_AES_au32CTL
.Lcpi_end1:
	.size	__arm_cp.1_0, .Lcpi_end1-__arm_cp.1_0
.Lfunc_end1:
	.size	AES_Start, .Lfunc_end1-AES_Start
	.cfi_endproc
	.cantunwind
	.fnend
                                        @ -- End function
	.section	.text.AES_SetKey,"ax",%progbits
	.hidden	AES_SetKey                      @ -- Begin function AES_SetKey
	.globl	AES_SetKey
	.p2align	1
	.type	AES_SetKey,%function
	.code	16                              @ @AES_SetKey
	.thumb_func
AES_SetKey:
.Lfunc_begin2:
	.loc	2 107 0 is_stmt 1               @ ../../../../Library/StdDriver/src/crypto.c:107:0
	.fnstart
	.cfi_startproc
@ %bb.0:
	.pad	#28
	sub	sp, #28
	.cfi_def_cfa_offset 28
	str	r0, [sp, #24]
	str	r1, [sp, #20]
	str	r2, [sp, #16]
	str	r3, [sp, #12]
.Ltmp4:
	.loc	2 110 32 prologue_end           @ ../../../../Library/StdDriver/src/crypto.c:110:32
	ldr	r0, [sp, #24]
	.loc	2 110 52 is_stmt 0              @ ../../../../Library/StdDriver/src/crypto.c:110:52
	ldr	r2, [sp, #20]
	movs	r1, #60
	.loc	2 110 63                        @ ../../../../Library/StdDriver/src/crypto.c:110:63
	muls	r1, r2, r1
	.loc	2 110 38                        @ ../../../../Library/StdDriver/src/crypto.c:110:38
	adds	r0, r0, r1
	movw	r1, #272
	.loc	2 110 49                        @ ../../../../Library/StdDriver/src/crypto.c:110:49
	adds	r0, r0, r1
	.loc	2 110 19                        @ ../../../../Library/StdDriver/src/crypto.c:110:19
	str	r0, [sp]
	.loc	2 111 21 is_stmt 1              @ ../../../../Library/StdDriver/src/crypto.c:111:21
	ldr	r0, [sp, #12]
	.loc	2 111 32 is_stmt 0              @ ../../../../Library/StdDriver/src/crypto.c:111:32
	lsls	r0, r0, #1
	.loc	2 111 19                        @ ../../../../Library/StdDriver/src/crypto.c:111:19
	adds	r0, r0, #4
	.loc	2 111 13                        @ ../../../../Library/StdDriver/src/crypto.c:111:13
	str	r0, [sp, #4]
	movs	r0, #0
.Ltmp5:
	.loc	2 113 17 is_stmt 1              @ ../../../../Library/StdDriver/src/crypto.c:113:17
	str	r0, [sp, #8]
	.loc	2 113 10 is_stmt 0              @ ../../../../Library/StdDriver/src/crypto.c:113:10
	b	.LBB2_1
.LBB2_1:                                @ =>This Inner Loop Header: Depth=1
.Ltmp6:
	.loc	2 113 23                        @ ../../../../Library/StdDriver/src/crypto.c:113:23
	ldr	r0, [sp, #8]
	.loc	2 113 32                        @ ../../../../Library/StdDriver/src/crypto.c:113:32
	ldr	r1, [sp, #4]
.Ltmp7:
	.loc	2 113 5                         @ ../../../../Library/StdDriver/src/crypto.c:113:5
	cmp	r0, r1
	bhs	.LBB2_4
	b	.LBB2_2
.LBB2_2:                                @   in Loop: Header=BB2_1 Depth=1
.Ltmp8:
	.loc	2 115 9 is_stmt 1               @ ../../../../Library/StdDriver/src/crypto.c:115:9
	ldr	r0, [sp, #16]
	ldr	r1, [sp, #8]
	lsls	r1, r1, #2
	ldr	r0, [r0, r1]
	ldr	r1, [sp]
	str	r0, [r1]
	.loc	2 116 23                        @ ../../../../Library/StdDriver/src/crypto.c:116:23
	ldr	r0, [sp]
	adds	r0, r0, #4
	str	r0, [sp]
	.loc	2 117 5                         @ ../../../../Library/StdDriver/src/crypto.c:117:5
	b	.LBB2_3
.Ltmp9:
.LBB2_3:                                @   in Loop: Header=BB2_1 Depth=1
	.loc	2 113 47                        @ ../../../../Library/StdDriver/src/crypto.c:113:47
	ldr	r0, [sp, #8]
	adds	r0, r0, #1
	str	r0, [sp, #8]
	.loc	2 113 5 is_stmt 0               @ ../../../../Library/StdDriver/src/crypto.c:113:5
	b	.LBB2_1
.Ltmp10:
.LBB2_4:
	.loc	2 118 1 is_stmt 1               @ ../../../../Library/StdDriver/src/crypto.c:118:1
	add	sp, #28
	bx	lr
.Ltmp11:
.Lfunc_end2:
	.size	AES_SetKey, .Lfunc_end2-AES_SetKey
	.cfi_endproc
	.cantunwind
	.fnend
                                        @ -- End function
	.section	.text.AES_SetInitVect,"ax",%progbits
	.hidden	AES_SetInitVect                 @ -- Begin function AES_SetInitVect
	.globl	AES_SetInitVect
	.p2align	1
	.type	AES_SetInitVect,%function
	.code	16                              @ @AES_SetInitVect
	.thumb_func
AES_SetInitVect:
.Lfunc_begin3:
	.loc	2 127 0                         @ ../../../../Library/StdDriver/src/crypto.c:127:0
	.fnstart
	.cfi_startproc
@ %bb.0:
	.pad	#20
	sub	sp, #20
	.cfi_def_cfa_offset 20
	str	r0, [sp, #16]
	str	r1, [sp, #12]
	str	r2, [sp, #8]
.Ltmp12:
	.loc	2 130 32 prologue_end           @ ../../../../Library/StdDriver/src/crypto.c:130:32
	ldr	r0, [sp, #16]
	.loc	2 130 51 is_stmt 0              @ ../../../../Library/StdDriver/src/crypto.c:130:51
	ldr	r2, [sp, #12]
	movs	r1, #60
	.loc	2 130 62                        @ ../../../../Library/StdDriver/src/crypto.c:130:62
	muls	r1, r2, r1
	.loc	2 130 38                        @ ../../../../Library/StdDriver/src/crypto.c:130:38
	adds	r0, r0, r1
	movw	r1, #304
	.loc	2 130 48                        @ ../../../../Library/StdDriver/src/crypto.c:130:48
	adds	r0, r0, r1
	.loc	2 130 19                        @ ../../../../Library/StdDriver/src/crypto.c:130:19
	str	r0, [sp]
	movs	r0, #0
.Ltmp13:
	.loc	2 132 17 is_stmt 1              @ ../../../../Library/StdDriver/src/crypto.c:132:17
	str	r0, [sp, #4]
	.loc	2 132 10 is_stmt 0              @ ../../../../Library/StdDriver/src/crypto.c:132:10
	b	.LBB3_1
.LBB3_1:                                @ =>This Inner Loop Header: Depth=1
.Ltmp14:
	.loc	2 132 23                        @ ../../../../Library/StdDriver/src/crypto.c:132:23
	ldr	r0, [sp, #4]
.Ltmp15:
	.loc	2 132 5                         @ ../../../../Library/StdDriver/src/crypto.c:132:5
	cmp	r0, #3
	bhi	.LBB3_4
	b	.LBB3_2
.LBB3_2:                                @   in Loop: Header=BB3_1 Depth=1
.Ltmp16:
	.loc	2 134 9 is_stmt 1               @ ../../../../Library/StdDriver/src/crypto.c:134:9
	ldr	r0, [sp, #8]
	ldr	r1, [sp, #4]
	lsls	r1, r1, #2
	ldr	r0, [r0, r1]
	ldr	r1, [sp]
	str	r0, [r1]
	.loc	2 135 23                        @ ../../../../Library/StdDriver/src/crypto.c:135:23
	ldr	r0, [sp]
	adds	r0, r0, #4
	str	r0, [sp]
	.loc	2 136 5                         @ ../../../../Library/StdDriver/src/crypto.c:136:5
	b	.LBB3_3
.Ltmp17:
.LBB3_3:                                @   in Loop: Header=BB3_1 Depth=1
	.loc	2 132 42                        @ ../../../../Library/StdDriver/src/crypto.c:132:42
	ldr	r0, [sp, #4]
	adds	r0, r0, #1
	str	r0, [sp, #4]
	.loc	2 132 5 is_stmt 0               @ ../../../../Library/StdDriver/src/crypto.c:132:5
	b	.LBB3_1
.Ltmp18:
.LBB3_4:
	.loc	2 137 1 is_stmt 1               @ ../../../../Library/StdDriver/src/crypto.c:137:1
	add	sp, #20
	bx	lr
.Ltmp19:
.Lfunc_end3:
	.size	AES_SetInitVect, .Lfunc_end3-AES_SetInitVect
	.cfi_endproc
	.cantunwind
	.fnend
                                        @ -- End function
	.section	.text.AES_SetDMATransfer,"ax",%progbits
	.hidden	AES_SetDMATransfer              @ -- Begin function AES_SetDMATransfer
	.globl	AES_SetDMATransfer
	.p2align	1
	.type	AES_SetDMATransfer,%function
	.code	16                              @ @AES_SetDMATransfer
	.thumb_func
AES_SetDMATransfer:
.Lfunc_begin4:
	.loc	2 149 0                         @ ../../../../Library/StdDriver/src/crypto.c:149:0
	.fnstart
	.cfi_startproc
@ %bb.0:
	.save	{r4, lr}
	push	{r4, lr}
	.cfi_def_cfa_offset 8
	.cfi_offset lr, -4
	.cfi_offset r4, -8
	.pad	#20
	sub	sp, #20
	.cfi_def_cfa_offset 28
	ldr	r4, [sp, #28]
	str	r0, [sp, #16]
	str	r1, [sp, #12]
	str	r2, [sp, #8]
	str	r3, [sp, #4]
.Ltmp20:
	.loc	2 152 29 prologue_end           @ ../../../../Library/StdDriver/src/crypto.c:152:29
	ldr	r0, [sp, #16]
	.loc	2 152 48 is_stmt 0              @ ../../../../Library/StdDriver/src/crypto.c:152:48
	ldr	r3, [sp, #12]
	movs	r1, #60
	.loc	2 152 59                        @ ../../../../Library/StdDriver/src/crypto.c:152:59
	mov	r2, r1
	muls	r2, r3, r2
	.loc	2 152 35                        @ ../../../../Library/StdDriver/src/crypto.c:152:35
	adds	r0, r0, r2
	movw	r2, #320
	.loc	2 152 45                        @ ../../../../Library/StdDriver/src/crypto.c:152:45
	adds	r0, r0, r2
	.loc	2 152 16                        @ ../../../../Library/StdDriver/src/crypto.c:152:16
	str	r0, [sp]
	.loc	2 153 5 is_stmt 1               @ ../../../../Library/StdDriver/src/crypto.c:153:5
	ldr	r0, [sp, #8]
	ldr	r2, [sp]
	str	r0, [r2]
	.loc	2 155 29                        @ ../../../../Library/StdDriver/src/crypto.c:155:29
	ldr	r0, [sp, #16]
	.loc	2 155 48 is_stmt 0              @ ../../../../Library/StdDriver/src/crypto.c:155:48
	ldr	r3, [sp, #12]
	.loc	2 155 59                        @ ../../../../Library/StdDriver/src/crypto.c:155:59
	mov	r2, r1
	muls	r2, r3, r2
	.loc	2 155 35                        @ ../../../../Library/StdDriver/src/crypto.c:155:35
	adds	r0, r0, r2
	movw	r2, #324
	.loc	2 155 45                        @ ../../../../Library/StdDriver/src/crypto.c:155:45
	adds	r0, r0, r2
	.loc	2 155 16                        @ ../../../../Library/StdDriver/src/crypto.c:155:16
	str	r0, [sp]
	.loc	2 156 5 is_stmt 1               @ ../../../../Library/StdDriver/src/crypto.c:156:5
	ldr	r0, [sp, #4]
	ldr	r2, [sp]
	str	r0, [r2]
	.loc	2 158 29                        @ ../../../../Library/StdDriver/src/crypto.c:158:29
	ldr	r0, [sp, #16]
	.loc	2 158 46 is_stmt 0              @ ../../../../Library/StdDriver/src/crypto.c:158:46
	ldr	r2, [sp, #12]
	.loc	2 158 57                        @ ../../../../Library/StdDriver/src/crypto.c:158:57
	muls	r1, r2, r1
	.loc	2 158 35                        @ ../../../../Library/StdDriver/src/crypto.c:158:35
	adds	r0, r0, r1
	movw	r1, #328
	.loc	2 158 43                        @ ../../../../Library/StdDriver/src/crypto.c:158:43
	adds	r0, r0, r1
	.loc	2 158 16                        @ ../../../../Library/StdDriver/src/crypto.c:158:16
	str	r0, [sp]
	.loc	2 159 5 is_stmt 1               @ ../../../../Library/StdDriver/src/crypto.c:159:5
	ldr	r0, [sp, #28]
	ldr	r1, [sp]
	str	r0, [r1]
	.loc	2 160 1                         @ ../../../../Library/StdDriver/src/crypto.c:160:1
	add	sp, #20
	pop	{r4, pc}
.Ltmp21:
.Lfunc_end4:
	.size	AES_SetDMATransfer, .Lfunc_end4-AES_SetDMATransfer
	.cfi_endproc
	.cantunwind
	.fnend
                                        @ -- End function
	.type	g_AES_au32CTL,%object           @ @g_AES_au32CTL
	.section	.bss.g_AES_au32CTL,"aw",%nobits
	.p2align	2, 0x0
g_AES_au32CTL:
	.zero	4
	.size	g_AES_au32CTL, 4

	.file	3 "E:\\ROBOCON2024\\01. Coding\\Nuvoton\\demo_robot_3wheel\\SampleCode\\NuCodeGen\\DemoCodeGen\\KEIL" "../../../../Library/Device/Nuvoton/M251/Include/crypto_reg.h"
	.section	".note.GNU-stack","",%progbits
	.eabi_attribute	30, 6	@ Tag_ABI_optimization_goals
	.ARM_attribute	16, 1	@ Tag_AV_eba