	.text
	.syntax unified
	.eabi_attribute	67, "2.09"	@ Tag_conformance
	.cpu	cortex-m23
	.eabi_attribute	6, 16	@ Tag_CPU_arch
	.eabi_attribute	7, 77	@ Tag_CPU_arch_profile
	.eabi_attribute	8, 0	@ Tag_ARM_ISA_use
	.eabi_attribute	9, 3	@ Tag_THUMB_ISA_use
	.eabi_attribute	34, 0	@ Tag_CPU_unaligned_access
	.eabi_attribute	17, 1	@ Tag_ABI_PCS_GOT_use
	.eabi_attribute	20, 2	@ Tag_ABI_FP_denormal
	.eabi_attribute	21, 0	@ Tag_ABI_FP_exceptions
	.eabi_attribute	23, 1	@ Tag_ABI_FP_number_model
	.eabi_attribute	24, 1	@ Tag_ABI_align_needed
	.eabi_attribute	25, 1	@ Tag_ABI_align_preserved
	.eabi_attribute	38, 1	@ Tag_ABI_FP_16bit_format
	.eabi_attribute	18, 2	@ Tag_ABI_PCS_wchar_t
	.eabi_attribute	26, 1	@ Tag_ABI_enum_size
	.eabi_attribute	14, 0	@ Tag_ABI_PCS_R9_use
	.file	"dac.c"
	.section	.text.DAC_Open,"ax",%progbits
	.hidden	DAC_Open                        @ -- Begin function DAC_Open
	.globl	DAC_Open
	.p2align	2
	.type	DAC_Open,%function
	.code	16                              @ @DAC_Open
	.thumb_func
DAC_Open:
.Lfunc_begin0:
	.file	1 "E:\\ROBOCON2024\\01. Coding\\Nuvoton\\demo_robot_3wheel\\SampleCode\\NuCodeGen\\DemoCodeGen\\KEIL" "../../../../Library/StdDriver/src/dac.c"
	.loc	1 46 0                          @ ../../../../Library/StdDriver/src/dac.c:46:0
	.fnstart
	.cfi_sections .debug_frame
	.cfi_startproc
@ %bb.0:
	.pad	#12
	sub	sp, #12
	.cfi_def_cfa_offset 12
	str	r0, [sp, #8]
	str	r1, [sp, #4]
	str	r2, [sp]
.Ltmp0:
	.loc	1 47 5 prologue_end             @ ../../../../Library/StdDriver/src/dac.c:47:5
	ldr	r1, [sp, #8]
	.loc	1 47 14 is_stmt 0               @ ../../../../Library/StdDriver/src/dac.c:47:14
	ldr	r0, [r1]
	ldr	r2, __arm_cp.0_0
	ands	r0, r2
	str	r0, [r1]
	.loc	1 48 18 is_stmt 1               @ ../../../../Library/StdDriver/src/dac.c:48:18
	ldr	r0, [sp]
	.loc	1 48 5 is_stmt 0                @ ../../../../Library/StdDriver/src/dac.c:48:5
	ldr	r1, [sp, #8]
	.loc	1 48 14                         @ ../../../../Library/StdDriver/src/dac.c:48:14
	ldr	r2, [r1]
	.loc	1 48 28                         @ ../../../../Library/StdDriver/src/dac.c:48:28
	orrs	r0, r2
	movs	r2, #1
	.loc	1 48 14                         @ ../../../../Library/StdDriver/src/dac.c:48:14
	orrs	r0, r2
	str	r0, [r1]
	.loc	1 49 1 is_stmt 1                @ ../../../../Library/StdDriver/src/dac.c:49:1
	add	sp, #12
	bx	lr
.Ltmp1:
	.p2align	2
@ %bb.1:
	.loc	1 0 1 is_stmt 0                 @ ../../../../Library/StdDriver/src/dac.c:0:1
__arm_cp.0_0:
	.long	4294954767                      @ 0xffffcf0f
.Lcpi_end0:
	.size	__arm_cp.0_0, .Lcpi_end0-__arm_cp.0_0
.Lfunc_end0:
	.size	DAC_Open, .Lfunc_end0-DAC_Open
	.cfi_endproc
	.cantunwind
	.fnend
                                        @ -- End function
	.section	.text.DAC_Close,"ax",%progbits
	.hidden	DAC_Close                       @ -- Begin function DAC_Close
	.globl	DAC_Close
	.p2align	1
	.type	DAC_Close,%function
	.code	16                              @ @DAC_Close
	.thumb_func
DAC_Close:
.Lfunc_begin1:
	.loc	1 58 0 is_stmt 1                @ ../../../../Library/StdDriver/src/dac.c:58:0
	.fnstart
	.cfi_startproc
@ %bb.0:
	.pad	#8
	sub	sp, #8
	.cfi_def_cfa_offset 8
	str	r0, [sp, #4]
	str	r1, [sp]
.Ltmp2:
	.loc	1 59 5 prologue_end             @ ../../../../Library/StdDriver/src/dac.c:59:5
	ldr	r1, [sp, #4]
	.loc	1 59 14 is_stmt 0               @ ../../../../Library/StdDriver/src/dac.c:59:14
	ldr	r0, [r1]
	movs	r2, #1
	bics	r0, r2
	str	r0, [r1]
	.loc	1 60 1 is_stmt 1                @ ../../../../Library/StdDriver/src/dac.c:60:1
	add	sp, #8
	bx	lr
.Ltmp3:
.Lfunc_end1:
	.size	DAC_Close, .Lfunc_end1-DAC_Close
	.cfi_endproc
	.cantunwind
	.fnend
                                        @ -- End function
	.section	.text.DAC_SetDelayTime,"ax",%progbits
	.hidden	DAC_SetDelayTime                @ -- Begin function DAC_SetDelayTime
	.globl	DAC_SetDelayTime
	.p2align	2
	.type	DAC_SetDelayTime,%function
	.code	16                              @ @DAC_SetDelayTime
	.thumb_func
DAC_SetDelayTime:
.Lfunc_begin2:
	.loc	1 71 0                          @ ../../../../Library/StdDriver/src/dac.c:71:0
	.fnstart
	.cfi_startproc
@ %bb.0:
	.save	{r7, lr}
	push	{r7, lr}
	.cfi_def_cfa_offset 8
	.cfi_offset lr, -4
	.cfi_offset r7, -8
	.pad	#16
	sub	sp, #16
	.cfi_def_cfa_offset 24
	str	r0, [sp, #12]
	str	r1, [sp, #8]
.Ltmp4:
	.loc	1 73 20 prologue_end            @ ../../../../Library/StdDriver/src/dac.c:73:20
	bl	CLK_GetPCLK1Freq
	mov	r1, r0
	ldr	r0, __arm_cp.2_0
	.loc	1 73 39 is_stmt 0               @ ../../../../Library/StdDriver/src/dac.c:73:39
	udiv	r2, r1, r0
	.loc	1 73 54                         @ ../../../../Library/StdDriver/src/dac.c:73:54
	ldr	r1, [sp, #8]
	.loc	1 73 52                         @ ../../../../Library/StdDriver/src/dac.c:73:52
	muls	r1, r2, r1
	ldr	r2, __arm_cp.2_1
	.loc	1 73 64                         @ ../../../../Library/StdDriver/src/dac.c:73:64
	ands	r1, r2
	.loc	1 73 5                          @ ../../../../Library/StdDriver/src/dac.c:73:5
	ldr	r2, [sp, #12]
	.loc	1 73 15                         @ ../../../../Library/StdDriver/src/dac.c:73:15
	str	r1, [r2, #20]
	.loc	1 75 14 is_stmt 1               @ ../../../../Library/StdDriver/src/dac.c:75:14
	ldr	r1, [sp, #12]
	.loc	1 75 19 is_stmt 0               @ ../../../../Library/StdDriver/src/dac.c:75:19
	ldr	r1, [r1, #20]
	.loc	1 75 25                         @ ../../../../Library/StdDriver/src/dac.c:75:25
	muls	r0, r1, r0
	.loc	1 75 39                         @ ../../../../Library/StdDriver/src/dac.c:75:39
	str	r0, [sp, #4]                    @ 4-byte Spill
	bl	CLK_GetPCLK1Freq
	mov	r1, r0
	.loc	1 75 37                         @ ../../../../Library/StdDriver/src/dac.c:75:37
	ldr	r0, [sp, #4]                    @ 4-byte Reload
	udiv	r0, r0, r1
	.loc	1 75 5                          @ ../../../../Library/StdDriver/src/dac.c:75:5
	add	sp, #16
	pop	{r7, pc}
.Ltmp5:
	.p2align	2
@ %bb.1:
	.loc	1 0 5                           @ ../../../../Library/StdDriver/src/dac.c:0:5
__arm_cp.2_0:
	.long	1000000                         @ 0xf4240
.Lcpi_end1:
	.size	__arm_cp.2_0, .Lcpi_end1-__arm_cp.2_0
__arm_cp.2_1:
	.long	1023                            @ 0x3ff
.Lcpi_end2:
	.size	__arm_cp.2_1, .Lcpi_end2-__arm_cp.2_1
.Lfunc_end2:
	.size	DAC_SetDelayTime, .Lfunc_end2-DAC_SetDelayTime
	.cfi_endproc
	.cantunwind
	.fnend
                                        @ -- End function
	.file	2 "C:\\Keil_v5\\ARM\\ARMCLANG\\Bin\\..\\include" "stdint.h"
	.file	3 "E:\\ROBOCON2024\\01. Coding\\Nuvoton\\demo_robot_3wheel\\SampleCode\\NuCodeGen\\DemoCodeGen\\KEIL" "../../../../Library/Device/Nuvoton/M251/Include/dac_reg.h"
	.section	".note.GNU-stack","",%progbits
	.eabi_attribute	30, 6	@ Tag_ABI_optimization_goals
	.ARM_attribute	16, 1	@ Tag_AV_eba