	.text
	.syntax unified
	.eabi_attribute	67, "2.09"	@ Tag_conformance
	.cpu	cortex-m23
	.eabi_attribute	6, 16	@ Tag_CPU_arch
	.eabi_attribute	7, 77	@ Tag_CPU_arch_profile
	.eabi_attribute	8, 0	@ Tag_ARM_ISA_use
	.eabi_attribute	9, 3	@ Tag_THUMB_ISA_use
	.eabi_attribute	34, 0	@ Tag_CPU_unaligned_access
	.eabi_attribute	17, 1	@ Tag_ABI_PCS_GOT_use
	.eabi_attribute	20, 2	@ Tag_ABI_FP_denormal
	.eabi_attribute	21, 0	@ Tag_ABI_FP_exceptions
	.eabi_attribute	23, 1	@ Tag_ABI_FP_number_model
	.eabi_attribute	24, 1	@ Tag_ABI_align_needed
	.eabi_attribute	25, 1	@ Tag_ABI_align_preserved
	.eabi_attribute	38, 1	@ Tag_ABI_FP_16bit_format
	.eabi_attribute	18, 2	@ Tag_ABI_PCS_wchar_t
	.eabi_attribute	26, 1	@ Tag_ABI_enum_size
	.eabi_attribute	14, 0	@ Tag_ABI_PCS_R9_use
	.file	"eadc.c"
	.file	1 "C:\\Keil_v5\\ARM\\ARMCLANG\\Bin\\..\\include" "stdint.h"
	.file	2 "E:\\ROBOCON2024\\01. Coding\\Nuvoton\\demo_robot_3wheel\\SampleCode\\NuCodeGen\\DemoCodeGen\\KEIL" "../../../../Library/StdDriver/src/eadc.c"
	.section	.text.EADC_Open,"ax",%progbits
	.hidden	EADC_Open                       @ -- Begin function EADC_Open
	.globl	EADC_Open
	.p2align	2
	.type	EADC_Open,%function
	.code	16                              @ @EADC_Open
	.thumb_func
EADC_Open:
.Lfunc_begin0:
	.loc	2 35 0                          @ ../../../../Library/StdDriver/src/eadc.c:35:0
	.fnstart
	.cfi_sections .debug_frame
	.cfi_startproc
@ %bb.0:
	.pad	#12
	sub	sp, #12
	.cfi_def_cfa_offset 12
	str	r0, [sp, #8]
	str	r1, [sp, #4]
.Ltmp0:
	.loc	2 36 25 prologue_end            @ ../../../../Library/StdDriver/src/eadc.c:36:25
	ldr	r0, __arm_cp.0_0
	ldr	r0, [r0]
	.loc	2 36 14 is_stmt 0               @ ../../../../Library/StdDriver/src/eadc.c:36:14
	str	r0, [sp]
	.loc	2 37 23 is_stmt 1               @ ../../../../Library/StdDriver/src/eadc.c:37:23
	ldr	r1, __arm_cp.0_1
	movs	r0, #0
	str	r0, [r1]
	.loc	2 39 5                          @ ../../../../Library/StdDriver/src/eadc.c:39:5
	ldr	r1, [sp, #8]
	.loc	2 39 15 is_stmt 0               @ ../../../../Library/StdDriver/src/eadc.c:39:15
	ldr	r0, [r1, #80]
	movs	r2, #1
	orrs	r0, r2
	str	r0, [r1, #80]
	.loc	2 42 5 is_stmt 1                @ ../../../../Library/StdDriver/src/eadc.c:42:5
	b	.LBB0_1
.LBB0_1:                                @ =>This Inner Loop Header: Depth=1
	.loc	2 42 13 is_stmt 0               @ ../../../../Library/StdDriver/src/eadc.c:42:13
	ldr	r0, [sp, #8]
	movw	r1, #272
	.loc	2 42 19                         @ ../../../../Library/StdDriver/src/eadc.c:42:19
	ldr	r0, [r0, r1]
	.loc	2 42 5                          @ ../../../../Library/StdDriver/src/eadc.c:42:5
	lsls	r0, r0, #31
	cbnz	r0, .LBB0_5
	b	.LBB0_2
.LBB0_2:                                @   in Loop: Header=BB0_1 Depth=1
.Ltmp1:
	.loc	2 44 13 is_stmt 1               @ ../../../../Library/StdDriver/src/eadc.c:44:13
	ldr	r0, [sp]
	subs	r0, r0, #1
	str	r0, [sp]
.Ltmp2:
	.loc	2 44 13 is_stmt 0               @ ../../../../Library/StdDriver/src/eadc.c:44:13
	cbnz	r0, .LBB0_4
	b	.LBB0_3
.LBB0_3:
.Ltmp3:
	.loc	2 46 31 is_stmt 1               @ ../../../../Library/StdDriver/src/eadc.c:46:31
	ldr	r1, __arm_cp.0_1
	movs	r0, #0
	mvns	r0, r0
	str	r0, [r1]
	.loc	2 47 13                         @ ../../../../Library/StdDriver/src/eadc.c:47:13
	b	.LBB0_5
.Ltmp4:
.LBB0_4:                                @   in Loop: Header=BB0_1 Depth=1
	.loc	2 42 5                          @ ../../../../Library/StdDriver/src/eadc.c:42:5
	b	.LBB0_1
.LBB0_5:
	.loc	2 51 1                          @ ../../../../Library/StdDriver/src/eadc.c:51:1
	add	sp, #12
	bx	lr
.Ltmp5:
	.p2align	2
@ %bb.6:
	.loc	2 0 1 is_stmt 0                 @ ../../../../Library/StdDriver/src/eadc.c:0:1
__arm_cp.0_0:
	.long	SystemCoreClock
.Lcpi_end0:
	.size	__arm_cp.0_0, .Lcpi_end0-__arm_cp.0_0
__arm_cp.0_1:
	.long	g_EADC_i32ErrCode
.Lcpi_end1:
	.size	__arm_cp.0_1, .Lcpi_end1-__arm_cp.0_1
.Lfunc_end0:
	.size	EADC_Open, .Lfunc_end0-EADC_Open
	.cfi_endproc
	.cantunwind
	.fnend
                                        @ -- End function
	.section	.text.EADC_Close,"ax",%progbits
	.hidden	EADC_Close                      @ -- Begin function EADC_Close
	.globl	EADC_Close
	.p2align	1
	.type	EADC_Close,%function
	.code	16                              @ @EADC_Close
	.thumb_func
EADC_Close:
.Lfunc_begin1:
	.loc	2 60 0 is_stmt 1                @ ../../../../Library/StdDriver/src/eadc.c:60:0
	.fnstart
	.cfi_startproc
@ %bb.0:
	.pad	#4
	sub	sp, #4
	.cfi_def_cfa_offset 4
	str	r0, [sp]
.Ltmp6:
	.loc	2 61 5 prologue_end             @ ../../../../Library/StdDriver/src/eadc.c:61:5
	ldr	r1, [sp]
	.loc	2 61 15 is_stmt 0               @ ../../../../Library/StdDriver/src/eadc.c:61:15
	ldr	r0, [r1, #80]
	movs	r2, #1
	bics	r0, r2
	str	r0, [r1, #80]
	.loc	2 62 1 is_stmt 1                @ ../../../../Library/StdDriver/src/eadc.c:62:1
	add	sp, #4
	bx	lr
.Ltmp7:
.Lfunc_end1:
	.size	EADC_Close, .Lfunc_end1-EADC_Close
	.cfi_endproc
	.cantunwind
	.fnend
                                        @ -- End function
	.section	.text.EADC_ConfigSampleModule,"ax",%progbits
	.hidden	EADC_ConfigSampleModule         @ -- Begin function EADC_ConfigSampleModule
	.globl	EADC_ConfigSampleModule
	.p2align	2
	.type	EADC_ConfigSampleModule,%function
	.code	16                              @ @EADC_ConfigSampleModule
	.thumb_func
EADC_ConfigSampleModule:
.Lfunc_begin2:
	.loc	2 102 0                         @ ../../../../Library/StdDriver/src/eadc.c:102:0
	.fnstart
	.cfi_startproc
@ %bb.0:
	.pad	#16
	sub	sp, #16
	.cfi_def_cfa_offset 16
	str	r0, [sp, #12]
	str	r1, [sp, #8]
	str	r2, [sp, #4]
	str	r3, [sp]
.Ltmp8:
	.loc	2 103 7 prologue_end            @ ../../../../Library/StdDriver/src/eadc.c:103:7
	ldr	r0, [sp, #12]
	.loc	2 103 18 is_stmt 0              @ ../../../../Library/StdDriver/src/eadc.c:103:18
	ldr	r1, [sp, #8]
	.loc	2 103 7                         @ ../../../../Library/StdDriver/src/eadc.c:103:7
	lsls	r1, r1, #2
	.loc	2 103 13                        @ ../../../../Library/StdDriver/src/eadc.c:103:13
	adds	r1, r0, r1
	movs	r2, #128
	.loc	2 103 34                        @ ../../../../Library/StdDriver/src/eadc.c:103:34
	ldr	r0, [r1, r2]
	ldr	r3, __arm_cp.2_0
	ands	r0, r3
	str	r0, [r1, r2]
	.loc	2 104 38 is_stmt 1              @ ../../../../Library/StdDriver/src/eadc.c:104:38
	ldr	r3, [sp, #4]
	.loc	2 104 54 is_stmt 0              @ ../../../../Library/StdDriver/src/eadc.c:104:54
	ldr	r0, [sp]
	.loc	2 104 52                        @ ../../../../Library/StdDriver/src/eadc.c:104:52
	orrs	r3, r0
	.loc	2 104 7                         @ ../../../../Library/StdDriver/src/eadc.c:104:7
	ldr	r0, [sp, #12]
	.loc	2 104 18                        @ ../../../../Library/StdDriver/src/eadc.c:104:18
	ldr	r1, [sp, #8]
	.loc	2 104 7                         @ ../../../../Library/StdDriver/src/eadc.c:104:7
	lsls	r1, r1, #2
	.loc	2 104 13                        @ ../../../../Library/StdDriver/src/eadc.c:104:13
	adds	r1, r0, r1
	.loc	2 104 34                        @ ../../../../Library/StdDriver/src/eadc.c:104:34
	ldr	r0, [r1, r2]
	orrs	r0, r3
	str	r0, [r1, r2]
	.loc	2 105 1 is_stmt 1               @ ../../../../Library/StdDriver/src/eadc.c:105:1
	add	sp, #16
	bx	lr
.Ltmp9:
	.p2align	2
@ %bb.1:
	.loc	2 0 1 is_stmt 0                 @ ../../../../Library/StdDriver/src/eadc.c:0:1
__arm_cp.2_0:
	.long	4292935616                      @ 0xffe0ffc0
.Lcpi_end2:
	.size	__arm_cp.2_0, .Lcpi_end2-__arm_cp.2_0
.Lfunc_end2:
	.size	EADC_ConfigSampleModule, .Lfunc_end2-EADC_ConfigSampleModule
	.cfi_endproc
	.cantunwind
	.fnend
                                        @ -- End function
	.section	.text.EADC_SetTriggerDelayTime,"ax",%progbits
	.hidden	EADC_SetTriggerDelayTime        @ -- Begin function EADC_SetTriggerDelayTime
	.globl	EADC_SetTriggerDelayTime
	.p2align	2
	.type	EADC_SetTriggerDelayTime,%function
	.code	16                              @ @EADC_SetTriggerDelayTime
	.thumb_func
EADC_SetTriggerDelayTime:
.Lfunc_begin3:
	.loc	2 125 0 is_stmt 1               @ ../../../../Library/StdDriver/src/eadc.c:125:0
	.fnstart
	.cfi_startproc
@ %bb.0:
	.pad	#16
	sub	sp, #16
	.cfi_def_cfa_offset 16
	str	r0, [sp, #12]
	str	r1, [sp, #8]
	str	r2, [sp, #4]
	str	r3, [sp]
.Ltmp10:
	.loc	2 126 7 prologue_end            @ ../../../../Library/StdDriver/src/eadc.c:126:7
	ldr	r0, [sp, #12]
	.loc	2 126 18 is_stmt 0              @ ../../../../Library/StdDriver/src/eadc.c:126:18
	ldr	r1, [sp, #8]
	.loc	2 126 7                         @ ../../../../Library/StdDriver/src/eadc.c:126:7
	lsls	r1, r1, #2
	.loc	2 126 13                        @ ../../../../Library/StdDriver/src/eadc.c:126:13
	adds	r1, r0, r1
	movs	r2, #128
	.loc	2 126 34                        @ ../../../../Library/StdDriver/src/eadc.c:126:34
	ldr	r0, [r1, r2]
	ldr	r3, __arm_cp.3_0
	ands	r0, r3
	str	r0, [r1, r2]
	.loc	2 127 39 is_stmt 1              @ ../../../../Library/StdDriver/src/eadc.c:127:39
	ldr	r0, [sp, #4]
	.loc	2 127 59 is_stmt 0              @ ../../../../Library/StdDriver/src/eadc.c:127:59
	lsls	r3, r0, #8
	.loc	2 127 89                        @ ../../../../Library/StdDriver/src/eadc.c:127:89
	ldr	r0, [sp]
	.loc	2 127 87                        @ ../../../../Library/StdDriver/src/eadc.c:127:87
	orrs	r3, r0
	.loc	2 127 7                         @ ../../../../Library/StdDriver/src/eadc.c:127:7
	ldr	r0, [sp, #12]
	.loc	2 127 18                        @ ../../../../Library/StdDriver/src/eadc.c:127:18
	ldr	r1, [sp, #8]
	.loc	2 127 7                         @ ../../../../Library/StdDriver/src/eadc.c:127:7
	lsls	r1, r1, #2
	.loc	2 127 13                        @ ../../../../Library/StdDriver/src/eadc.c:127:13
	adds	r1, r0, r1
	.loc	2 127 34                        @ ../../../../Library/StdDriver/src/eadc.c:127:34
	ldr	r0, [r1, r2]
	orrs	r0, r3
	str	r0, [r1, r2]
	.loc	2 128 1 is_stmt 1               @ ../../../../Library/StdDriver/src/eadc.c:128:1
	add	sp, #16
	bx	lr
.Ltmp11:
	.p2align	2
@ %bb.1:
	.loc	2 0 1 is_stmt 0                 @ ../../../../Library/StdDriver/src/eadc.c:0:1
__arm_cp.3_0:
	.long	4294901823                      @ 0xffff003f
.Lcpi_end3:
	.size	__arm_cp.3_0, .Lcpi_end3-__arm_cp.3_0
.Lfunc_end3:
	.size	EADC_SetTriggerDelayTime, .Lfunc_end3-EADC_SetTriggerDelayTime
	.cfi_endproc
	.cantunwind
	.fnend
                                        @ -- End function
	.section	.text.EADC_SetExtendSampleTime,"ax",%progbits
	.hidden	EADC_SetExtendSampleTime        @ -- Begin function EADC_SetExtendSampleTime
	.globl	EADC_SetExtendSampleTime
	.p2align	1
	.type	EADC_SetExtendSampleTime,%function
	.code	16                              @ @EADC_SetExtendSampleTime
	.thumb_func
EADC_SetExtendSampleTime:
.Lfunc_begin4:
	.loc	2 141 0 is_stmt 1               @ ../../../../Library/StdDriver/src/eadc.c:141:0
	.fnstart
	.cfi_startproc
@ %bb.0:
	.pad	#12
	sub	sp, #12
	.cfi_def_cfa_offset 12
	str	r0, [sp, #8]
	str	r1, [sp, #4]
	str	r2, [sp]
.Ltmp12:
	.loc	2 142 9 prologue_end            @ ../../../../Library/StdDriver/src/eadc.c:142:9
	ldr	r0, [sp, #4]
.Ltmp13:
	.loc	2 142 9 is_stmt 0               @ ../../../../Library/StdDriver/src/eadc.c:142:9
	cmp	r0, #15
	bhi	.LBB4_2
	b	.LBB4_1
.LBB4_1:
.Ltmp14:
	.loc	2 144 11 is_stmt 1              @ ../../../../Library/StdDriver/src/eadc.c:144:11
	ldr	r0, [sp, #8]
	.loc	2 144 22 is_stmt 0              @ ../../../../Library/StdDriver/src/eadc.c:144:22
	ldr	r1, [sp, #4]
	.loc	2 144 11                        @ ../../../../Library/StdDriver/src/eadc.c:144:11
	lsls	r1, r1, #2
	.loc	2 144 17                        @ ../../../../Library/StdDriver/src/eadc.c:144:17
	adds	r1, r0, r1
	movs	r2, #128
	.loc	2 144 38                        @ ../../../../Library/StdDriver/src/eadc.c:144:38
	ldr	r0, [r1, r2]
	movs	r3, #255
	lsls	r3, r3, #24
	bics	r0, r3
	str	r0, [r1, r2]
	.loc	2 145 42 is_stmt 1              @ ../../../../Library/StdDriver/src/eadc.c:145:42
	ldr	r0, [sp]
	.loc	2 145 62 is_stmt 0              @ ../../../../Library/StdDriver/src/eadc.c:145:62
	lsls	r3, r0, #24
	.loc	2 145 11                        @ ../../../../Library/StdDriver/src/eadc.c:145:11
	ldr	r0, [sp, #8]
	.loc	2 145 22                        @ ../../../../Library/StdDriver/src/eadc.c:145:22
	ldr	r1, [sp, #4]
	.loc	2 145 11                        @ ../../../../Library/StdDriver/src/eadc.c:145:11
	lsls	r1, r1, #2
	.loc	2 145 17                        @ ../../../../Library/StdDriver/src/eadc.c:145:17
	adds	r1, r0, r1
	.loc	2 145 38                        @ ../../../../Library/StdDriver/src/eadc.c:145:38
	ldr	r0, [r1, r2]
	orrs	r0, r3
	str	r0, [r1, r2]
	.loc	2 146 5 is_stmt 1               @ ../../../../Library/StdDriver/src/eadc.c:146:5
	b	.LBB4_3
.Ltmp15:
.LBB4_2:
	.loc	2 149 11                        @ ../../../../Library/StdDriver/src/eadc.c:149:11
	ldr	r1, [sp, #8]
	.loc	2 149 23 is_stmt 0              @ ../../../../Library/StdDriver/src/eadc.c:149:23
	ldr	r0, [sp, #4]
	.loc	2 149 36                        @ ../../../../Library/StdDriver/src/eadc.c:149:36
	lsls	r0, r0, #2
	.loc	2 149 11                        @ ../../../../Library/StdDriver/src/eadc.c:149:11
	adds	r1, r0, r1
	movs	r2, #128
	.loc	2 149 44                        @ ../../../../Library/StdDriver/src/eadc.c:149:44
	ldr	r0, [r1, r2]
	movs	r3, #255
	lsls	r3, r3, #24
	bics	r0, r3
	str	r0, [r1, r2]
	.loc	2 150 48 is_stmt 1              @ ../../../../Library/StdDriver/src/eadc.c:150:48
	ldr	r0, [sp]
	.loc	2 150 68 is_stmt 0              @ ../../../../Library/StdDriver/src/eadc.c:150:68
	lsls	r3, r0, #24
	.loc	2 150 11                        @ ../../../../Library/StdDriver/src/eadc.c:150:11
	ldr	r1, [sp, #8]
	.loc	2 150 23                        @ ../../../../Library/StdDriver/src/eadc.c:150:23
	ldr	r0, [sp, #4]
	.loc	2 150 36                        @ ../../../../Library/StdDriver/src/eadc.c:150:36
	lsls	r0, r0, #2
	.loc	2 150 11                        @ ../../../../Library/StdDriver/src/eadc.c:150:11
	adds	r1, r0, r1
	.loc	2 150 44                        @ ../../../../Library/StdDriver/src/eadc.c:150:44
	ldr	r0, [r1, r2]
	orrs	r0, r3
	str	r0, [r1, r2]
	b	.LBB4_3
.Ltmp16:
.LBB4_3:
	.loc	2 152 1 is_stmt 1               @ ../../../../Library/StdDriver/src/eadc.c:152:1
	add	sp, #12
	bx	lr
.Ltmp17:
.Lfunc_end4:
	.size	EADC_SetExtendSampleTime, .Lfunc_end4-EADC_SetExtendSampleTime
	.cfi_endproc
	.cantunwind
	.fnend
                                        @ -- End function
	.hidden	g_EADC_i32ErrCode               @ @g_EADC_i32ErrCode
	.type	g_EADC_i32ErrCode,%object
	.section	.bss.g_EADC_i32ErrCode,"aw",%nobits
	.globl	g_EADC_i32ErrCode
	.p2align	2, 0x0
g_EADC_i32ErrCode:
	.long	0                               @ 0x0
	.size	g_EADC_i32ErrCode, 4

	.file	3 "E:\\ROBOCON2024\\01. Coding\\Nuvoton\\demo_robot_3wheel\\SampleCode\\NuCodeGen\\DemoCodeGen\\KEIL" "../../../../Library/Device/Nuvoton/M251/Include/eadc_reg.h"
	.section	".note.GNU-stack","",%progbits
	.eabi_attribute	30, 6	@ Tag_ABI_optimization_goals
	.ARM_attribute	16, 1	@ Tag_AV_eba