	.text
	.syntax unified
	.eabi_attribute	67, "2.09"	@ Tag_conformance
	.cpu	cortex-m23
	.eabi_attribute	6, 16	@ Tag_CPU_arch
	.eabi_attribute	7, 77	@ Tag_CPU_arch_profile
	.eabi_attribute	8, 0	@ Tag_ARM_ISA_use
	.eabi_attribute	9, 3	@ Tag_THUMB_ISA_use
	.eabi_attribute	34, 0	@ Tag_CPU_unaligned_access
	.eabi_attribute	17, 1	@ Tag_ABI_PCS_GOT_use
	.eabi_attribute	20, 2	@ Tag_ABI_FP_denormal
	.eabi_attribute	21, 0	@ Tag_ABI_FP_exceptions
	.eabi_attribute	23, 1	@ Tag_ABI_FP_number_model
	.eabi_attribute	24, 1	@ Tag_ABI_align_needed
	.eabi_attribute	25, 1	@ Tag_ABI_align_preserved
	.eabi_attribute	38, 1	@ Tag_ABI_FP_16bit_format
	.eabi_attribute	18, 2	@ Tag_ABI_PCS_wchar_t
	.eabi_attribute	26, 1	@ Tag_ABI_enum_size
	.eabi_attribute	14, 0	@ Tag_ABI_PCS_R9_use
	.file	"gpio.c"
	.section	.text.GPIO_SetMode,"ax",%progbits
	.hidden	GPIO_SetMode                    @ -- Begin function GPIO_SetMode
	.globl	GPIO_SetMode
	.p2align	1
	.type	GPIO_SetMode,%function
	.code	16                              @ @GPIO_SetMode
	.thumb_func
GPIO_SetMode:
.Lfunc_begin0:
	.file	1 "E:\\ROBOCON2024\\01. Coding\\Nuvoton\\demo_robot_3wheel\\SampleCode\\NuCodeGen\\DemoCodeGen\\KEIL" "../../../../Library/StdDriver/src/gpio.c"
	.loc	1 40 0                          @ ../../../../Library/StdDriver/src/gpio.c:40:0
	.fnstart
	.cfi_sections .debug_frame
	.cfi_startproc
@ %bb.0:
	.pad	#16
	sub	sp, #16
	.cfi_def_cfa_offset 16
	str	r0, [sp, #12]
	str	r1, [sp, #8]
	str	r2, [sp, #4]
	movs	r0, #0
.Ltmp0:
	.loc	1 43 12 prologue_end            @ ../../../../Library/StdDriver/src/gpio.c:43:12
	str	r0, [sp]
	.loc	1 43 10 is_stmt 0               @ ../../../../Library/StdDriver/src/gpio.c:43:10
	b	.LBB0_1
.LBB0_1:                                @ =>This Inner Loop Header: Depth=1
.Ltmp1:
	.loc	1 43 19                         @ ../../../../Library/StdDriver/src/gpio.c:43:19
	ldr	r0, [sp]
.Ltmp2:
	.loc	1 43 5                          @ ../../../../Library/StdDriver/src/gpio.c:43:5
	cmp	r0, #15
	bhi	.LBB0_6
	b	.LBB0_2
.LBB0_2:                                @   in Loop: Header=BB0_1 Depth=1
.Ltmp3:
	.loc	1 45 13 is_stmt 1               @ ../../../../Library/StdDriver/src/gpio.c:45:13
	ldr	r0, [sp, #8]
	.loc	1 45 34 is_stmt 0               @ ../../../../Library/StdDriver/src/gpio.c:45:34
	ldr	r1, [sp]
.Ltmp4:
	.loc	1 45 13                         @ ../../../../Library/StdDriver/src/gpio.c:45:13
	lsrs	r0, r1
	lsls	r0, r0, #31
	cbz	r0, .LBB0_4
	b	.LBB0_3
.LBB0_3:                                @   in Loop: Header=BB0_1 Depth=1
.Ltmp5:
	.loc	1 47 27 is_stmt 1               @ ../../../../Library/StdDriver/src/gpio.c:47:27
	ldr	r0, [sp, #12]
	.loc	1 47 33 is_stmt 0               @ ../../../../Library/StdDriver/src/gpio.c:47:33
	ldr	r0, [r0]
	.loc	1 47 52                         @ ../../../../Library/StdDriver/src/gpio.c:47:52
	ldr	r1, [sp]
	.loc	1 47 54                         @ ../../../../Library/StdDriver/src/gpio.c:47:54
	lsls	r2, r1, #1
	movs	r1, #3
	.loc	1 47 48                         @ ../../../../Library/StdDriver/src/gpio.c:47:48
	lsls	r1, r2
	.loc	1 47 38                         @ ../../../../Library/StdDriver/src/gpio.c:47:38
	bics	r0, r1
	.loc	1 47 67                         @ ../../../../Library/StdDriver/src/gpio.c:47:67
	ldr	r1, [sp, #4]
	.loc	1 47 75                         @ ../../../../Library/StdDriver/src/gpio.c:47:75
	lsls	r1, r2
	.loc	1 47 64                         @ ../../../../Library/StdDriver/src/gpio.c:47:64
	orrs	r0, r1
	.loc	1 47 13                         @ ../../../../Library/StdDriver/src/gpio.c:47:13
	ldr	r1, [sp, #12]
	.loc	1 47 24                         @ ../../../../Library/StdDriver/src/gpio.c:47:24
	str	r0, [r1]
	.loc	1 48 9 is_stmt 1                @ ../../../../Library/StdDriver/src/gpio.c:48:9
	b	.LBB0_4
.Ltmp6:
.LBB0_4:                                @   in Loop: Header=BB0_1 Depth=1
	.loc	1 49 5                          @ ../../../../Library/StdDriver/src/gpio.c:49:5
	b	.LBB0_5
.Ltmp7:
.LBB0_5:                                @   in Loop: Header=BB0_1 Depth=1
	.loc	1 43 38                         @ ../../../../Library/StdDriver/src/gpio.c:43:38
	ldr	r0, [sp]
	adds	r0, r0, #1
	str	r0, [sp]
	.loc	1 43 5 is_stmt 0                @ ../../../../Library/StdDriver/src/gpio.c:43:5
	b	.LBB0_1
.Ltmp8:
.LBB0_6:
	.loc	1 50 1 is_stmt 1                @ ../../../../Library/StdDriver/src/gpio.c:50:1
	add	sp, #16
	bx	lr
.Ltmp9:
.Lfunc_end0:
	.size	GPIO_SetMode, .Lfunc_end0-GPIO_SetMode
	.cfi_endproc
	.cantunwind
	.fnend
                                        @ -- End function
	.section	.text.GPIO_EnableInt,"ax",%progbits
	.hidden	GPIO_EnableInt                  @ -- Begin function GPIO_EnableInt
	.globl	GPIO_EnableInt
	.p2align	1
	.type	GPIO_EnableInt,%function
	.code	16                              @ @GPIO_EnableInt
	.thumb_func
GPIO_EnableInt:
.Lfunc_begin1:
	.loc	1 68 0                          @ ../../../../Library/StdDriver/src/gpio.c:68:0
	.fnstart
	.cfi_startproc
@ %bb.0:
	.pad	#12
	sub	sp, #12
	.cfi_def_cfa_offset 12
	str	r0, [sp, #8]
	str	r1, [sp, #4]
	str	r2, [sp]
	mov	r0, sp
.Ltmp10:
	.loc	1 69 25 prologue_end            @ ../../../../Library/StdDriver/src/gpio.c:69:25
	ldrb	r2, [r0, #3]
	.loc	1 69 61 is_stmt 0               @ ../../../../Library/StdDriver/src/gpio.c:69:61
	ldr	r0, [sp, #4]
	.loc	1 69 58                         @ ../../../../Library/StdDriver/src/gpio.c:69:58
	lsls	r2, r0
	.loc	1 69 5                          @ ../../../../Library/StdDriver/src/gpio.c:69:5
	ldr	r1, [sp, #8]
	.loc	1 69 19                         @ ../../../../Library/StdDriver/src/gpio.c:69:19
	ldr	r0, [r1, #24]
	orrs	r0, r2
	str	r0, [r1, #24]
	.loc	1 70 22 is_stmt 1               @ ../../../../Library/StdDriver/src/gpio.c:70:22
	ldr	r2, [sp]
	movs	r0, #255
	lsls	r0, r0, #24
	.loc	1 70 36 is_stmt 0               @ ../../../../Library/StdDriver/src/gpio.c:70:36
	bics	r2, r0
	.loc	1 70 53                         @ ../../../../Library/StdDriver/src/gpio.c:70:53
	ldr	r0, [sp, #4]
	.loc	1 70 50                         @ ../../../../Library/StdDriver/src/gpio.c:70:50
	lsls	r2, r0
	.loc	1 70 5                          @ ../../../../Library/StdDriver/src/gpio.c:70:5
	ldr	r1, [sp, #8]
	.loc	1 70 17                         @ ../../../../Library/StdDriver/src/gpio.c:70:17
	ldr	r0, [r1, #28]
	orrs	r0, r2
	str	r0, [r1, #28]
	.loc	1 71 1 is_stmt 1                @ ../../../../Library/StdDriver/src/gpio.c:71:1
	add	sp, #12
	bx	lr
.Ltmp11:
.Lfunc_end1:
	.size	GPIO_EnableInt, .Lfunc_end1-GPIO_EnableInt
	.cfi_endproc
	.cantunwind
	.fnend
                                        @ -- End function
	.section	.text.GPIO_DisableInt,"ax",%progbits
	.hidden	GPIO_DisableInt                 @ -- Begin function GPIO_DisableInt
	.globl	GPIO_DisableInt
	.p2align	2
	.type	GPIO_DisableInt,%function
	.code	16                              @ @GPIO_DisableInt
	.thumb_func
GPIO_DisableInt:
.Lfunc_begin2:
	.loc	1 87 0                          @ ../../../../Library/StdDriver/src/gpio.c:87:0
	.fnstart
	.cfi_startproc
@ %bb.0:
	.pad	#8
	sub	sp, #8
	.cfi_def_cfa_offset 8
	str	r0, [sp, #4]
	str	r1, [sp]
.Ltmp12:
	.loc	1 89 31 prologue_end            @ ../../../../Library/StdDriver/src/gpio.c:89:31
	ldr	r0, [sp]
	movs	r2, #1
	.loc	1 89 28 is_stmt 0               @ ../../../../Library/StdDriver/src/gpio.c:89:28
	lsls	r2, r0
	.loc	1 89 5                          @ ../../../../Library/StdDriver/src/gpio.c:89:5
	ldr	r1, [sp, #4]
	.loc	1 89 19                         @ ../../../../Library/StdDriver/src/gpio.c:89:19
	ldr	r0, [r1, #24]
	bics	r0, r2
	str	r0, [r1, #24]
	.loc	1 91 40 is_stmt 1               @ ../../../../Library/StdDriver/src/gpio.c:91:40
	ldr	r0, [sp]
	ldr	r2, __arm_cp.2_0
	.loc	1 91 37 is_stmt 0               @ ../../../../Library/StdDriver/src/gpio.c:91:37
	lsls	r2, r0
	.loc	1 91 5                          @ ../../../../Library/StdDriver/src/gpio.c:91:5
	ldr	r1, [sp, #4]
	.loc	1 91 17                         @ ../../../../Library/StdDriver/src/gpio.c:91:17
	ldr	r0, [r1, #28]
	bics	r0, r2
	str	r0, [r1, #28]
	.loc	1 92 1 is_stmt 1                @ ../../../../Library/StdDriver/src/gpio.c:92:1
	add	sp, #8
	bx	lr
.Ltmp13:
	.p2align	2
@ %bb.1:
	.loc	1 0 1 is_stmt 0                 @ ../../../../Library/StdDriver/src/gpio.c:0:1
__arm_cp.2_0:
	.long	65537                           @ 0x10001
.Lcpi_end0:
	.size	__arm_cp.2_0, .Lcpi_end0-__arm_cp.2_0
.Lfunc_end2:
	.size	GPIO_DisableInt, .Lfunc_end2-GPIO_DisableInt
	.cfi_endproc
	.cantunwind
	.fnend
                                        @ -- End function
	.section	.text.GPIO_SetSlewCtl,"ax",%progbits
	.hidden	GPIO_SetSlewCtl                 @ -- Begin function GPIO_SetSlewCtl
	.globl	GPIO_SetSlewCtl
	.p2align	1
	.type	GPIO_SetSlewCtl,%function
	.code	16                              @ @GPIO_SetSlewCtl
	.thumb_func
GPIO_SetSlewCtl:
.Lfunc_begin3:
	.loc	1 110 0 is_stmt 1               @ ../../../../Library/StdDriver/src/gpio.c:110:0
	.fnstart
	.cfi_startproc
@ %bb.0:
	.pad	#16
	sub	sp, #16
	.cfi_def_cfa_offset 16
	str	r0, [sp, #12]
	str	r1, [sp, #8]
	str	r2, [sp, #4]
	movs	r0, #0
.Ltmp14:
	.loc	1 113 12 prologue_end           @ ../../../../Library/StdDriver/src/gpio.c:113:12
	str	r0, [sp]
	.loc	1 113 10 is_stmt 0              @ ../../../../Library/StdDriver/src/gpio.c:113:10
	b	.LBB3_1
.LBB3_1:                                @ =>This Inner Loop Header: Depth=1
.Ltmp15:
	.loc	1 113 19                        @ ../../../../Library/StdDriver/src/gpio.c:113:19
	ldr	r0, [sp]
.Ltmp16:
	.loc	1 113 5                         @ ../../../../Library/StdDriver/src/gpio.c:113:5
	cmp	r0, #15
	bhi	.LBB3_6
	b	.LBB3_2
.LBB3_2:                                @   in Loop: Header=BB3_1 Depth=1
.Ltmp17:
	.loc	1 115 13 is_stmt 1              @ ../../../../Library/StdDriver/src/gpio.c:115:13
	ldr	r0, [sp, #8]
	.loc	1 115 34 is_stmt 0              @ ../../../../Library/StdDriver/src/gpio.c:115:34
	ldr	r1, [sp]
.Ltmp18:
	.loc	1 115 13                        @ ../../../../Library/StdDriver/src/gpio.c:115:13
	lsrs	r0, r1
	lsls	r0, r0, #31
	cbz	r0, .LBB3_4
	b	.LBB3_3
.LBB3_3:                                @   in Loop: Header=BB3_1 Depth=1
.Ltmp19:
	.loc	1 117 30 is_stmt 1              @ ../../../../Library/StdDriver/src/gpio.c:117:30
	ldr	r0, [sp, #12]
	.loc	1 117 36 is_stmt 0              @ ../../../../Library/StdDriver/src/gpio.c:117:36
	ldr	r0, [r0, #40]
	.loc	1 117 58                        @ ../../../../Library/StdDriver/src/gpio.c:117:58
	ldr	r1, [sp]
	.loc	1 117 60                        @ ../../../../Library/StdDriver/src/gpio.c:117:60
	lsls	r2, r1, #1
	movs	r1, #3
	.loc	1 117 54                        @ ../../../../Library/StdDriver/src/gpio.c:117:54
	lsls	r1, r2
	.loc	1 117 44                        @ ../../../../Library/StdDriver/src/gpio.c:117:44
	bics	r0, r1
	.loc	1 117 73                        @ ../../../../Library/StdDriver/src/gpio.c:117:73
	ldr	r1, [sp, #4]
	.loc	1 117 81                        @ ../../../../Library/StdDriver/src/gpio.c:117:81
	lsls	r1, r2
	.loc	1 117 70                        @ ../../../../Library/StdDriver/src/gpio.c:117:70
	orrs	r0, r1
	.loc	1 117 13                        @ ../../../../Library/StdDriver/src/gpio.c:117:13
	ldr	r1, [sp, #12]
	.loc	1 117 27                        @ ../../../../Library/StdDriver/src/gpio.c:117:27
	str	r0, [r1, #40]
	.loc	1 118 9 is_stmt 1               @ ../../../../Library/StdDriver/src/gpio.c:118:9
	b	.LBB3_4
.Ltmp20:
.LBB3_4:                                @   in Loop: Header=BB3_1 Depth=1
	.loc	1 119 5                         @ ../../../../Library/StdDriver/src/gpio.c:119:5
	b	.LBB3_5
.Ltmp21:
.LBB3_5:                                @   in Loop: Header=BB3_1 Depth=1
	.loc	1 113 38                        @ ../../../../Library/StdDriver/src/gpio.c:113:38
	ldr	r0, [sp]
	adds	r0, r0, #1
	str	r0, [sp]
	.loc	1 113 5 is_stmt 0               @ ../../../../Library/StdDriver/src/gpio.c:113:5
	b	.LBB3_1
.Ltmp22:
.LBB3_6:
	.loc	1 120 1 is_stmt 1               @ ../../../../Library/StdDriver/src/gpio.c:120:1
	add	sp, #16
	bx	lr
.Ltmp23:
.Lfunc_end3:
	.size	GPIO_SetSlewCtl, .Lfunc_end3-GPIO_SetSlewCtl
	.cfi_endproc
	.cantunwind
	.fnend
                                        @ -- End function
	.section	.text.GPIO_SetPullCtl,"ax",%progbits
	.hidden	GPIO_SetPullCtl                 @ -- Begin function GPIO_SetPullCtl
	.globl	GPIO_SetPullCtl
	.p2align	1
	.type	GPIO_SetPullCtl,%function
	.code	16                              @ @GPIO_SetPullCtl
	.thumb_func
GPIO_SetPullCtl:
.Lfunc_begin4:
	.loc	1 141 0                         @ ../../../../Library/StdDriver/src/gpio.c:141:0
	.fnstart
	.cfi_startproc
@ %bb.0:
	.pad	#16
	sub	sp, #16
	.cfi_def_cfa_offset 16
	str	r0, [sp, #12]
	str	r1, [sp, #8]
	str	r2, [sp, #4]
	movs	r0, #0
.Ltmp24:
	.loc	1 144 12 prologue_end           @ ../../../../Library/StdDriver/src/gpio.c:144:12
	str	r0, [sp]
	.loc	1 144 10 is_stmt 0              @ ../../../../Library/StdDriver/src/gpio.c:144:10
	b	.LBB4_1
.LBB4_1:                                @ =>This Inner Loop Header: Depth=1
.Ltmp25:
	.loc	1 144 19                        @ ../../../../Library/StdDriver/src/gpio.c:144:19
	ldr	r0, [sp]
.Ltmp26:
	.loc	1 144 5                         @ ../../../../Library/StdDriver/src/gpio.c:144:5
	cmp	r0, #15
	bhi	.LBB4_6
	b	.LBB4_2
.LBB4_2:                                @   in Loop: Header=BB4_1 Depth=1
.Ltmp27:
	.loc	1 146 13 is_stmt 1              @ ../../../../Library/StdDriver/src/gpio.c:146:13
	ldr	r0, [sp, #8]
	.loc	1 146 34 is_stmt 0              @ ../../../../Library/StdDriver/src/gpio.c:146:34
	ldr	r1, [sp]
.Ltmp28:
	.loc	1 146 13                        @ ../../../../Library/StdDriver/src/gpio.c:146:13
	lsrs	r0, r1
	lsls	r0, r0, #31
	cbz	r0, .LBB4_4
	b	.LBB4_3
.LBB4_3:                                @   in Loop: Header=BB4_1 Depth=1
.Ltmp29:
	.loc	1 148 28 is_stmt 1              @ ../../../../Library/StdDriver/src/gpio.c:148:28
	ldr	r0, [sp, #12]
	.loc	1 148 34 is_stmt 0              @ ../../../../Library/StdDriver/src/gpio.c:148:34
	ldr	r0, [r0, #48]
	.loc	1 148 54                        @ ../../../../Library/StdDriver/src/gpio.c:148:54
	ldr	r1, [sp]
	.loc	1 148 56                        @ ../../../../Library/StdDriver/src/gpio.c:148:56
	lsls	r2, r1, #1
	movs	r1, #3
	.loc	1 148 50                        @ ../../../../Library/StdDriver/src/gpio.c:148:50
	lsls	r1, r2
	.loc	1 148 40                        @ ../../../../Library/StdDriver/src/gpio.c:148:40
	bics	r0, r1
	.loc	1 148 69                        @ ../../../../Library/StdDriver/src/gpio.c:148:69
	ldr	r1, [sp, #4]
	.loc	1 148 77                        @ ../../../../Library/StdDriver/src/gpio.c:148:77
	lsls	r1, r2
	.loc	1 148 66                        @ ../../../../Library/StdDriver/src/gpio.c:148:66
	orrs	r0, r1
	.loc	1 148 13                        @ ../../../../Library/StdDriver/src/gpio.c:148:13
	ldr	r1, [sp, #12]
	.loc	1 148 25                        @ ../../../../Library/StdDriver/src/gpio.c:148:25
	str	r0, [r1, #48]
	.loc	1 149 9 is_stmt 1               @ ../../../../Library/StdDriver/src/gpio.c:149:9
	b	.LBB4_4
.Ltmp30:
.LBB4_4:                                @   in Loop: Header=BB4_1 Depth=1
	.loc	1 150 5                         @ ../../../../Library/StdDriver/src/gpio.c:150:5
	b	.LBB4_5
.Ltmp31:
.LBB4_5:                                @   in Loop: Header=BB4_1 Depth=1
	.loc	1 144 38                        @ ../../../../Library/StdDriver/src/gpio.c:144:38
	ldr	r0, [sp]
	adds	r0, r0, #1
	str	r0, [sp]
	.loc	1 144 5 is_stmt 0               @ ../../../../Library/StdDriver/src/gpio.c:144:5
	b	.LBB4_1
.Ltmp32:
.LBB4_6:
	.loc	1 151 1 is_stmt 1               @ ../../../../Library/StdDriver/src/gpio.c:151:1
	add	sp, #16
	bx	lr
.Ltmp33:
.Lfunc_end4:
	.size	GPIO_SetPullCtl, .Lfunc_end4-GPIO_SetPullCtl
	.cfi_endproc
	.cantunwind
	.fnend
                                        @ -- End function
	.file	2 "C:\\Keil_v5\\ARM\\ARMCLANG\\Bin\\..\\include" "stdint.h"
	.file	3 "E:\\ROBOCON2024\\01. Coding\\Nuvoton\\demo_robot_3wheel\\SampleCode\\NuCodeGen\\DemoCodeGen\\KEIL" "../../../../Library/Device/Nuvoton/M251/Include/gpio_reg.h"
	.section	".note.GNU-stack","",%progbits
	.eabi_attribute	30, 6	@ Tag_ABI_optimization_goals
	.ARM_attribute	16, 1	@ Tag_AV_eba