	.text
	.syntax unified
	.eabi_attribute	67, "2.09"	@ Tag_conformance
	.cpu	cortex-m23
	.eabi_attribute	6, 16	@ Tag_CPU_arch
	.eabi_attribute	7, 77	@ Tag_CPU_arch_profile
	.eabi_attribute	8, 0	@ Tag_ARM_ISA_use
	.eabi_attribute	9, 3	@ Tag_THUMB_ISA_use
	.eabi_attribute	34, 0	@ Tag_CPU_unaligned_access
	.eabi_attribute	17, 1	@ Tag_ABI_PCS_GOT_use
	.eabi_attribute	20, 2	@ Tag_ABI_FP_denormal
	.eabi_attribute	21, 0	@ Tag_ABI_FP_exceptions
	.eabi_attribute	23, 1	@ Tag_ABI_FP_number_model
	.eabi_attribute	24, 1	@ Tag_ABI_align_needed
	.eabi_attribute	25, 1	@ Tag_ABI_align_preserved
	.eabi_attribute	38, 1	@ Tag_ABI_FP_16bit_format
	.eabi_attribute	18, 2	@ Tag_ABI_PCS_wchar_t
	.eabi_attribute	26, 1	@ Tag_ABI_enum_size
	.eabi_attribute	14, 0	@ Tag_ABI_PCS_R9_use
	.file	"int_handler.c"
	.file	1 "E:\\ROBOCON2024\\01. Coding\\Nuvoton\\demo_robot_3wheel\\SampleCode\\NuCodeGen\\DemoCodeGen\\KEIL" "../int_handler.c"
	.file	2 "E:\\ROBOCON2024\\01. Coding\\Nuvoton\\demo_robot_3wheel\\SampleCode\\NuCodeGen\\DemoCodeGen\\KEIL" "../imu_func.c"
	.file	3 "E:\\ROBOCON2024\\01. Coding\\Nuvoton\\demo_robot_3wheel\\SampleCode\\NuCodeGen\\DemoCodeGen\\KEIL" "../control_omni.c"
	.file	4 "C:\\Keil_v5\\ARM\\ARMCLANG\\Bin\\..\\include" "stdint.h"
	.file	5 "E:\\ROBOCON2024\\01. Coding\\Nuvoton\\demo_robot_3wheel\\SampleCode\\NuCodeGen\\DemoCodeGen\\KEIL" "../modbus_func.c"
	.file	6 "E:\\ROBOCON2024\\01. Coding\\Nuvoton\\demo_robot_3wheel\\SampleCode\\NuCodeGen\\DemoCodeGen\\KEIL" "../../../../Library/Device/Nuvoton/M251/Include/uart_reg.h"
	.file	7 "E:\\ROBOCON2024\\01. Coding\\Nuvoton\\demo_robot_3wheel\\SampleCode\\NuCodeGen\\DemoCodeGen\\KEIL" "../../../../Library/Device/Nuvoton/M251/Include/timer_reg.h"
	.section	.text.UART0_IRQHandler,"ax",%progbits
	.hidden	UART0_IRQHandler                @ -- Begin function UART0_IRQHandler
	.globl	UART0_IRQHandler
	.p2align	2
	.type	UART0_IRQHandler,%function
	.code	16                              @ @UART0_IRQHandler
	.thumb_func
UART0_IRQHandler:
.Lfunc_begin0:
	.loc	1 20 0                          @ ../int_handler.c:20:0
	.fnstart
	.cfi_sections .debug_frame
	.cfi_startproc
@ %bb.0:
	.save	{r7, lr}
	push	{r7, lr}
	.cfi_def_cfa_offset 8
	.cfi_offset lr, -4
	.cfi_offset r7, -8
	.pad	#40
	sub	sp, #40
	.cfi_def_cfa_offset 48
	ldr	r0, __arm_cp.0_0
.Ltmp0:
	.loc	1 21 33 prologue_end            @ ../int_handler.c:21:33
	ldr	r0, [r0]
	.loc	1 21 14 is_stmt 0               @ ../int_handler.c:21:14
	str	r0, [sp, #36]
	add	r1, sp, #32
	movs	r0, #255
	.loc	1 22 13 is_stmt 1               @ ../int_handler.c:22:13
	strb	r0, [r1]
	add	r0, sp, #36
	.loc	1 25 9                          @ ../int_handler.c:25:9
	ldrb	r0, [r0]
	lsls	r0, r0, #29
	cmp	r0, #0
	bpl	.LBB0_8
	b	.LBB0_1
.LBB0_1:
	.loc	1 0 9 is_stmt 0                 @ ../int_handler.c:0:9
	ldr	r0, __arm_cp.0_1
.Ltmp1:
	.loc	1 28 20 is_stmt 1               @ ../int_handler.c:28:20
	ldr	r0, [r0]
.Ltmp2:
	.loc	1 28 13 is_stmt 0               @ ../int_handler.c:28:13
	lsls	r0, r0, #25
	cmp	r0, #0
	bpl	.LBB0_3
	b	.LBB0_2
.LBB0_2:
.Ltmp3:
	.loc	1 29 13 is_stmt 1               @ ../int_handler.c:29:13
	ldr	r0, __arm_cp.0_2
	bl	printf
	b	.LBB0_3
.Ltmp4:
.LBB0_3:
	.loc	1 0 13 is_stmt 0                @ ../int_handler.c:0:13
	ldr	r0, __arm_cp.0_1
.Ltmp5:
	.loc	1 31 20 is_stmt 1               @ ../int_handler.c:31:20
	ldr	r0, [r0]
.Ltmp6:
	.loc	1 31 13 is_stmt 0               @ ../int_handler.c:31:13
	lsls	r0, r0, #26
	cmp	r0, #0
	bpl	.LBB0_5
	b	.LBB0_4
.LBB0_4:
.Ltmp7:
	.loc	1 32 13 is_stmt 1               @ ../int_handler.c:32:13
	ldr	r0, __arm_cp.0_3
	bl	printf
	b	.LBB0_5
.Ltmp8:
.LBB0_5:
	.loc	1 0 13 is_stmt 0                @ ../int_handler.c:0:13
	ldr	r0, __arm_cp.0_1
.Ltmp9:
	.loc	1 34 20 is_stmt 1               @ ../int_handler.c:34:20
	ldr	r0, [r0]
.Ltmp10:
	.loc	1 34 13 is_stmt 0               @ ../int_handler.c:34:13
	lsls	r0, r0, #27
	cmp	r0, #0
	bpl	.LBB0_7
	b	.LBB0_6
.LBB0_6:
.Ltmp11:
	.loc	1 35 13 is_stmt 1               @ ../int_handler.c:35:13
	ldr	r0, __arm_cp.0_4
	bl	printf
	b	.LBB0_7
.Ltmp12:
.LBB0_7:
	.loc	1 0 13 is_stmt 0                @ ../int_handler.c:0:13
	ldr	r1, __arm_cp.0_5
	.loc	1 39 24 is_stmt 1               @ ../int_handler.c:39:24
	str	r1, [sp, #28]                   @ 4-byte Spill
	ldr	r2, [r1]
	add	r0, sp, #32
	.loc	1 39 22 is_stmt 0               @ ../int_handler.c:39:22
	strb	r2, [r0]
	.loc	1 41 27 is_stmt 1               @ ../int_handler.c:41:27
	ldr	r1, [r1]
	.loc	1 41 18 is_stmt 0               @ ../int_handler.c:41:18
	strb	r1, [r0]
	.loc	1 42 46 is_stmt 1               @ ../int_handler.c:42:46
	ldrb	r1, [r0]
	.loc	1 42 9 is_stmt 0                @ ../int_handler.c:42:9
	ldr	r0, __arm_cp.0_6
	bl	printf
                                        @ kill: def $r1 killed $r0
	.loc	1 43 9 is_stmt 1                @ ../int_handler.c:43:9
	ldr	r0, [sp, #28]                   @ 4-byte Reload
	movw	r1, #1024
	bl	UART_ClearIntFlag
	.loc	1 44 5                          @ ../int_handler.c:44:5
	b	.LBB0_8
.Ltmp13:
.LBB0_8:
	.loc	1 0 5 is_stmt 0                 @ ../int_handler.c:0:5
	add	r0, sp, #36
.Ltmp14:
	.loc	1 46 46 is_stmt 1               @ ../int_handler.c:46:46
	ldrb	r0, [r0, #1]
	lsls	r0, r0, #31
	cbnz	r0, .LBB0_10
	b	.LBB0_9
.Ltmp15:
.LBB0_9:
	.loc	1 0 46 is_stmt 0                @ ../int_handler.c:0:46
	add	r0, sp, #36
	.loc	1 46 9                          @ ../int_handler.c:46:9
	ldrb	r0, [r0, #1]
	lsls	r0, r0, #27
	cmp	r0, #0
	bmi	.LBB0_10
	b	.LBB0_31
.LBB0_10:
.Ltmp16:
	.loc	1 49 9 is_stmt 1                @ ../int_handler.c:49:9
	b	.LBB0_11
.LBB0_11:                               @ =>This Inner Loop Header: Depth=1
	.loc	1 0 9 is_stmt 0                 @ ../int_handler.c:0:9
	ldr	r0, __arm_cp.0_1
	.loc	1 49 17                         @ ../int_handler.c:49:17
	ldr	r0, [r0]
	.loc	1 49 9                          @ ../int_handler.c:49:9
	lsls	r0, r0, #17
	cmp	r0, #0
	bpl	.LBB0_12
	b	.LBB0_30
.LBB0_12:                               @   in Loop: Header=BB0_11 Depth=1
	.loc	1 0 9                           @ ../int_handler.c:0:9
	ldr	r0, __arm_cp.0_5
.Ltmp17:
	.loc	1 52 24 is_stmt 1               @ ../int_handler.c:52:24
	ldr	r1, [r0]
	add	r0, sp, #32
	.loc	1 52 22 is_stmt 0               @ ../int_handler.c:52:22
	str	r0, [sp, #20]                   @ 4-byte Spill
	strb	r1, [r0]
	.loc	1 54 30 is_stmt 1               @ ../int_handler.c:54:30
	ldrb	r1, [r0]
	.loc	1 54 13 is_stmt 0               @ ../int_handler.c:54:13
	ldr	r0, __arm_cp.0_8
	bl	printf
                                        @ kill: def $r1 killed $r0
	.loc	1 56 15 is_stmt 1               @ ../int_handler.c:56:15
	ldr	r0, [sp, #20]                   @ 4-byte Reload
	ldrb	r0, [r0]
	.loc	1 56 7 is_stmt 0                @ ../int_handler.c:56:7
	subs	r0, #48
	str	r0, [sp, #24]                   @ 4-byte Spill
	cmp	r0, #37
	bls	.LBB0_13
	b	.LBB0_28
.LBB0_13:                               @   in Loop: Header=BB0_11 Depth=1
	.loc	1 0 7                           @ ../int_handler.c:0:7
	ldr	r1, [sp, #24]                   @ 4-byte Reload
	lsls	r2, r1, #2
	adr	r0, .LJTI0_0
	adds	r0, r0, r2
	mov	pc, r0
@ %bb.14:
	.p2align	2
.LJTI0_0:
	b.w	.LBB0_25
	b.w	.LBB0_28
	b.w	.LBB0_28
	b.w	.LBB0_15
	b.w	.LBB0_16
	b.w	.LBB0_18
	b.w	.LBB0_17
	b.w	.LBB0_28
	b.w	.LBB0_28
	b.w	.LBB0_28
	b.w	.LBB0_28
	b.w	.LBB0_28
	b.w	.LBB0_28
	b.w	.LBB0_28
	b.w	.LBB0_28
	b.w	.LBB0_28
	b.w	.LBB0_28
	b.w	.LBB0_21
	b.w	.LBB0_19
	b.w	.LBB0_23
	b.w	.LBB0_20
	b.w	.LBB0_22
	b.w	.LBB0_24
	b.w	.LBB0_28
	b.w	.LBB0_28
	b.w	.LBB0_28
	b.w	.LBB0_28
	b.w	.LBB0_28
	b.w	.LBB0_28
	b.w	.LBB0_28
	b.w	.LBB0_28
	b.w	.LBB0_28
	b.w	.LBB0_26
	b.w	.LBB0_28
	b.w	.LBB0_28
	b.w	.LBB0_28
	b.w	.LBB0_28
	b.w	.LBB0_27
.LBB0_15:                               @   in Loop: Header=BB0_11 Depth=1
.Ltmp18:
	.loc	1 60 10 is_stmt 1               @ ../int_handler.c:60:10
	ldr	r0, __arm_cp.0_11
	bl	printf
	movs	r0, #200
	movs	r1, #0
	.loc	1 61 10                         @ ../int_handler.c:61:10
	bl	robot_Run
	.loc	1 62 10                         @ ../int_handler.c:62:10
	b	.LBB0_29
.LBB0_16:                               @   in Loop: Header=BB0_11 Depth=1
	.loc	1 0 10 is_stmt 0                @ ../int_handler.c:0:10
	movs	r0, #179
	mvns	r1, r0
	movs	r0, #200
	.loc	1 65 10 is_stmt 1               @ ../int_handler.c:65:10
	bl	robot_Run
	.loc	1 66 10                         @ ../int_handler.c:66:10
	b	.LBB0_29
.LBB0_17:                               @   in Loop: Header=BB0_11 Depth=1
	.loc	1 0 10 is_stmt 0                @ ../int_handler.c:0:10
	movs	r0, #100
	.loc	1 69 10 is_stmt 1               @ ../int_handler.c:69:10
	bl	robot_Rotate
	.loc	1 70 10                         @ ../int_handler.c:70:10
	b	.LBB0_29
.LBB0_18:                               @   in Loop: Header=BB0_11 Depth=1
	.loc	1 0 10 is_stmt 0                @ ../int_handler.c:0:10
	movs	r0, #99
	mvns	r0, r0
	.loc	1 73 10 is_stmt 1               @ ../int_handler.c:73:10
	bl	robot_Rotate
	.loc	1 74 10                         @ ../int_handler.c:74:10
	b	.LBB0_29
.LBB0_19:                               @   in Loop: Header=BB0_11 Depth=1
	.loc	1 0 10 is_stmt 0                @ ../int_handler.c:0:10
	movs	r0, #200
	movs	r1, #90
	.loc	1 76 10 is_stmt 1               @ ../int_handler.c:76:10
	bl	robot_Run
	.loc	1 77 10                         @ ../int_handler.c:77:10
	b	.LBB0_29
.LBB0_20:                               @   in Loop: Header=BB0_11 Depth=1
	.loc	1 0 10 is_stmt 0                @ ../int_handler.c:0:10
	movs	r0, #89
	mvns	r1, r0
	movs	r0, #200
	.loc	1 79 10 is_stmt 1               @ ../int_handler.c:79:10
	bl	robot_Run
	.loc	1 80 10                         @ ../int_handler.c:80:10
	b	.LBB0_29
.LBB0_21:                               @   in Loop: Header=BB0_11 Depth=1
	.loc	1 0 10 is_stmt 0                @ ../int_handler.c:0:10
	movs	r0, #44
	mvns	r1, r0
	movs	r0, #200
	.loc	1 82 10 is_stmt 1               @ ../int_handler.c:82:10
	bl	robot_Run
	.loc	1 83 10                         @ ../int_handler.c:83:10
	b	.LBB0_29
.LBB0_22:                               @   in Loop: Header=BB0_11 Depth=1
	.loc	1 0 10 is_stmt 0                @ ../int_handler.c:0:10
	movs	r0, #200
	movs	r1, #45
	.loc	1 85 10 is_stmt 1               @ ../int_handler.c:85:10
	bl	robot_Run
	.loc	1 86 10                         @ ../int_handler.c:86:10
	b	.LBB0_29
.LBB0_23:                               @   in Loop: Header=BB0_11 Depth=1
	.loc	1 0 10 is_stmt 0                @ ../int_handler.c:0:10
	movs	r0, #134
	mvns	r1, r0
	movs	r0, #200
	.loc	1 88 10 is_stmt 1               @ ../int_handler.c:88:10
	bl	robot_Run
	.loc	1 89 10                         @ ../int_handler.c:89:10
	b	.LBB0_29
.LBB0_24:                               @   in Loop: Header=BB0_11 Depth=1
	.loc	1 0 10 is_stmt 0                @ ../int_handler.c:0:10
	movs	r0, #200
	movs	r1, #135
	.loc	1 91 10 is_stmt 1               @ ../int_handler.c:91:10
	bl	robot_Run
	.loc	1 92 10                         @ ../int_handler.c:92:10
	b	.LBB0_29
.LBB0_25:                               @   in Loop: Header=BB0_11 Depth=1
	.loc	1 94 10                         @ ../int_handler.c:94:10
	bl	robot_Stop
	.loc	1 95 10                         @ ../int_handler.c:95:10
	b	.LBB0_29
.LBB0_26:                               @   in Loop: Header=BB0_11 Depth=1
	.loc	1 98 21                         @ ../int_handler.c:98:21
	ldr	r0, __arm_cp.0_9
	ldr	r0, [r0, #8]
	.loc	1 98 19 is_stmt 0               @ ../int_handler.c:98:19
	ldr	r1, __arm_cp.0_10
	str	r0, [r1]
	.loc	1 99 10 is_stmt 1               @ ../int_handler.c:99:10
	b	.LBB0_29
.LBB0_27:                               @   in Loop: Header=BB0_11 Depth=1
	.loc	1 102 20                        @ ../int_handler.c:102:20
	ldr	r1, __arm_cp.0_9
	movs	r0, #0
	str	r0, [r1, #8]
	.loc	1 103 19                        @ ../int_handler.c:103:19
	ldr	r1, __arm_cp.0_10
	str	r0, [r1]
	.loc	1 104 10                        @ ../int_handler.c:104:10
	b	.LBB0_29
.LBB0_28:                               @   in Loop: Header=BB0_11 Depth=1
	.loc	1 106 10                        @ ../int_handler.c:106:10
	bl	robot_Stop
	.loc	1 107 7                         @ ../int_handler.c:107:7
	b	.LBB0_29
.Ltmp19:
.LBB0_29:                               @   in Loop: Header=BB0_11 Depth=1
	.loc	1 111 44                        @ ../int_handler.c:111:44
	ldr	r0, __arm_cp.0_12
	str	r0, [sp]                        @ 4-byte Spill
	ldrh	r1, [r0]
	.loc	1 111 56 is_stmt 0              @ ../int_handler.c:111:56
	ldr	r0, __arm_cp.0_13
	ldr	r2, [r0]
	movs	r0, #2
	.loc	1 111 11                        @ ../int_handler.c:111:11
	str	r0, [sp, #4]                    @ 4-byte Spill
	bl	Write_Data_Modbus
                                        @ kill: def $r1 killed $r0
	.loc	1 112 45 is_stmt 1              @ ../int_handler.c:112:45
	ldr	r0, [sp]                        @ 4-byte Reload
	ldrh	r1, [r0]
	.loc	1 112 57 is_stmt 0              @ ../int_handler.c:112:57
	ldr	r0, __arm_cp.0_14
	ldr	r2, [r0]
	movs	r0, #3
	.loc	1 112 11                        @ ../int_handler.c:112:11
	str	r0, [sp, #8]                    @ 4-byte Spill
	bl	Write_Data_Modbus
                                        @ kill: def $r1 killed $r0
	.loc	1 113 45 is_stmt 1              @ ../int_handler.c:113:45
	ldr	r0, [sp]                        @ 4-byte Reload
	ldrh	r1, [r0]
	.loc	1 113 57 is_stmt 0              @ ../int_handler.c:113:57
	ldr	r0, __arm_cp.0_15
	ldr	r2, [r0]
	movs	r0, #1
	.loc	1 113 11                        @ ../int_handler.c:113:11
	str	r0, [sp, #16]                   @ 4-byte Spill
	bl	Write_Data_Modbus
                                        @ kill: def $r1 killed $r0
	.loc	1 115 44 is_stmt 1              @ ../int_handler.c:115:44
	ldr	r0, [sp, #4]                    @ 4-byte Reload
	ldr	r1, __arm_cp.0_16
	str	r1, [sp, #12]                   @ 4-byte Spill
	ldrh	r1, [r1]
	.loc	1 115 54 is_stmt 0              @ ../int_handler.c:115:54
	ldr	r2, __arm_cp.0_17
	ldrb	r2, [r2]
	.loc	1 115 11                        @ ../int_handler.c:115:11
	bl	Write_Data_Modbus
	ldr	r1, [sp, #12]                   @ 4-byte Reload
                                        @ kill: def $r2 killed $r0
	.loc	1 116 45 is_stmt 1              @ ../int_handler.c:116:45
	ldr	r0, [sp, #8]                    @ 4-byte Reload
	ldrh	r1, [r1]
	.loc	1 116 55 is_stmt 0              @ ../int_handler.c:116:55
	ldr	r2, __arm_cp.0_18
	ldrb	r2, [r2]
	.loc	1 116 11                        @ ../int_handler.c:116:11
	bl	Write_Data_Modbus
	ldr	r1, [sp, #12]                   @ 4-byte Reload
                                        @ kill: def $r2 killed $r0
	.loc	1 117 45 is_stmt 1              @ ../int_handler.c:117:45
	ldr	r0, [sp, #16]                   @ 4-byte Reload
	ldrh	r1, [r1]
	.loc	1 117 55 is_stmt 0              @ ../int_handler.c:117:55
	ldr	r2, __arm_cp.0_19
	ldrb	r2, [r2]
	.loc	1 117 11                        @ ../int_handler.c:117:11
	bl	Write_Data_Modbus
.Ltmp20:
	.loc	1 49 9 is_stmt 1                @ ../int_handler.c:49:9
	b	.LBB0_11
.LBB0_30:
	.loc	1 120 5                         @ ../int_handler.c:120:5
	b	.LBB0_31
.Ltmp21:
.LBB0_31:
	.loc	1 0 5 is_stmt 0                 @ ../int_handler.c:0:5
	add	r0, sp, #36
	.loc	1 123 9 is_stmt 1               @ ../int_handler.c:123:9
	ldrb	r0, [r0, #1]
	lsls	r0, r0, #26
	cmp	r0, #0
	bpl	.LBB0_33
	b	.LBB0_32
.LBB0_32:
.Ltmp22:
	.loc	1 125 9                         @ ../int_handler.c:125:9
	ldr	r0, __arm_cp.0_7
	bl	printf
	ldr	r0, __arm_cp.0_5
	movw	r1, #8192
	.loc	1 126 9                         @ ../int_handler.c:126:9
	bl	UART_ClearIntFlag
	.loc	1 127 5                         @ ../int_handler.c:127:5
	b	.LBB0_33
.Ltmp23:
.LBB0_33:
	.loc	1 136 1                         @ ../int_handler.c:136:1
	add	sp, #40
	pop	{r7, pc}
.Ltmp24:
	.p2align	2
@ %bb.34:
	.loc	1 0 1 is_stmt 0                 @ ../int_handler.c:0:1
__arm_cp.0_0:
	.long	1074200604                      @ 0x4007001c
.Lcpi_end0:
	.size	__arm_cp.0_0, .Lcpi_end0-__arm_cp.0_0
__arm_cp.0_1:
	.long	1074200600                      @ 0x40070018
.Lcpi_end1:
	.size	__arm_cp.0_1, .Lcpi_end1-__arm_cp.0_1
__arm_cp.0_2:
	.long	.L.str
.Lcpi_end2:
	.size	__arm_cp.0_2, .Lcpi_end2-__arm_cp.0_2
__arm_cp.0_3:
	.long	.L.str.1
.Lcpi_end3:
	.size	__arm_cp.0_3, .Lcpi_end3-__arm_cp.0_3
__arm_cp.0_4:
	.long	.L.str.2
.Lcpi_end4:
	.size	__arm_cp.0_4, .Lcpi_end4-__arm_cp.0_4
__arm_cp.0_5:
	.long	1074200576                      @ 0x40070000
.Lcpi_end5:
	.size	__arm_cp.0_5, .Lcpi_end5-__arm_cp.0_5
__arm_cp.0_6:
	.long	.L.str.3
.Lcpi_end6:
	.size	__arm_cp.0_6, .Lcpi_end6-__arm_cp.0_6
__arm_cp.0_7:
	.long	.L.str.6
.Lcpi_end7:
	.size	__arm_cp.0_7, .Lcpi_end7-__arm_cp.0_7
__arm_cp.0_8:
	.long	.L.str.4
.Lcpi_end8:
	.size	__arm_cp.0_8, .Lcpi_end8-__arm_cp.0_8
__arm_cp.0_9:
	.long	fAngle
.Lcpi_end9:
	.size	__arm_cp.0_9, .Lcpi_end9-__arm_cp.0_9
__arm_cp.0_10:
	.long	offSet_z
.Lcpi_end10:
	.size	__arm_cp.0_10, .Lcpi_end10-__arm_cp.0_10
__arm_cp.0_11:
	.long	.L.str.5
.Lcpi_end11:
	.size	__arm_cp.0_11, .Lcpi_end11-__arm_cp.0_11
__arm_cp.0_12:
	.long	SPEED_ADDR
.Lcpi_end12:
	.size	__arm_cp.0_12, .Lcpi_end12-__arm_cp.0_12
__arm_cp.0_13:
	.long	speed3
.Lcpi_end13:
	.size	__arm_cp.0_13, .Lcpi_end13-__arm_cp.0_13
__arm_cp.0_14:
	.long	speed2
.Lcpi_end14:
	.size	__arm_cp.0_14, .Lcpi_end14-__arm_cp.0_14
__arm_cp.0_15:
	.long	speed1
.Lcpi_end15:
	.size	__arm_cp.0_15, .Lcpi_end15-__arm_cp.0_15
__arm_cp.0_16:
	.long	CTRL_CMD
.Lcpi_end16:
	.size	__arm_cp.0_16, .Lcpi_end16-__arm_cp.0_16
__arm_cp.0_17:
	.long	dir3
.Lcpi_end17:
	.size	__arm_cp.0_17, .Lcpi_end17-__arm_cp.0_17
__arm_cp.0_18:
	.long	dir2
.Lcpi_end18:
	.size	__arm_cp.0_18, .Lcpi_end18-__arm_cp.0_18
__arm_cp.0_19:
	.long	dir1
.Lcpi_end19:
	.size	__arm_cp.0_19, .Lcpi_end19-__arm_cp.0_19
.Lfunc_end0:
	.size	UART0_IRQHandler, .Lfunc_end0-UART0_IRQHandler
	.cfi_endproc
	.cantunwind
	.fnend
                                        @ -- End function
	.section	.text.robot_Run,"ax",%progbits
	.p2align	2                               @ -- Begin function robot_Run
	.type	robot_Run,%function
	.code	16                              @ @robot_Run
	.thumb_func
robot_Run:
.Lfunc_begin1:
	.loc	3 54 0 is_stmt 1                @ ../control_omni.c:54:0
	.fnstart
	.cfi_startproc
@ %bb.0:
	.save	{r4, lr}
	push	{r4, lr}
	.cfi_def_cfa_offset 8
	.cfi_offset lr, -4
	.cfi_offset r4, -8
	.pad	#96
	sub	sp, #96
	.cfi_def_cfa_offset 104
	str	r0, [sp, #92]
	str	r1, [sp, #88]
.Ltmp25:
	.loc	3 55 18 prologue_end            @ ../control_omni.c:55:18
	ldr	r0, [sp, #92]
	.loc	3 55 12 is_stmt 0               @ ../control_omni.c:55:12
	bl	__aeabi_i2d
	str	r0, [sp, #12]                   @ 4-byte Spill
	.loc	3 55 31                         @ ../control_omni.c:55:31
	str	r1, [sp, #16]                   @ 4-byte Spill
	ldr	r0, [sp, #88]
	bl	__aeabi_i2f
	ldr	r1, __arm_cp.1_0
	.loc	3 55 36                         @ ../control_omni.c:55:36
	str	r1, [sp, #52]                   @ 4-byte Spill
	bl	__aeabi_fmul
	.loc	3 55 31                         @ ../control_omni.c:55:31
	bl	__aeabi_f2d
	.loc	3 55 27                         @ ../control_omni.c:55:27
	bl	sin
	str	r0, [sp, #4]                    @ 4-byte Spill
	.loc	3 55 51                         @ ../control_omni.c:55:51
	str	r1, [sp, #8]                    @ 4-byte Spill
	ldr	r0, __arm_cp.1_1
	str	r0, [sp, #56]                   @ 4-byte Spill
	ldr	r0, [r0]
	bl	__aeabi_f2d
	ldr	r2, __arm_cp.1_2
	ldr	r3, __arm_cp.1_3
	.loc	3 55 52                         @ ../control_omni.c:55:52
	bl	__aeabi_dmul
	ldr	r2, [sp, #4]                    @ 4-byte Reload
	ldr	r3, [sp, #8]                    @ 4-byte Reload
	mov	r4, r0
	ldr	r0, [sp, #12]                   @ 4-byte Reload
	str	r4, [sp, #20]                   @ 4-byte Spill
	mov	r4, r1
	.loc	3 55 49                         @ ../control_omni.c:55:49
	ldr	r1, [sp, #16]                   @ 4-byte Reload
	str	r4, [sp, #24]                   @ 4-byte Spill
	bl	__aeabi_dmul
	ldr	r2, [sp, #20]                   @ 4-byte Reload
	ldr	r3, [sp, #24]                   @ 4-byte Reload
	bl	__aeabi_dadd
	.loc	3 55 12                         @ ../control_omni.c:55:12
	bl	__aeabi_d2iz
	.loc	3 55 10                         @ ../control_omni.c:55:10
	ldr	r1, __arm_cp.1_4
	str	r1, [sp, #84]                   @ 4-byte Spill
	str	r0, [r1]
	.loc	3 56 19 is_stmt 1               @ ../control_omni.c:56:19
	ldr	r0, [sp, #92]
	.loc	3 56 18 is_stmt 0               @ ../control_omni.c:56:18
	rsbs	r0, r0, #0
	.loc	3 56 12                         @ ../control_omni.c:56:12
	bl	__aeabi_i2d
	str	r0, [sp, #36]                   @ 4-byte Spill
	.loc	3 56 33                         @ ../control_omni.c:56:33
	str	r1, [sp, #40]                   @ 4-byte Spill
	ldr	r0, [sp, #88]
	.loc	3 56 38                         @ ../control_omni.c:56:38
	subs	r0, #30
	.loc	3 56 32                         @ ../control_omni.c:56:32
	bl	__aeabi_i2f
	ldr	r1, [sp, #52]                   @ 4-byte Reload
	.loc	3 56 42                         @ ../control_omni.c:56:42
	bl	__aeabi_fmul
	.loc	3 56 32                         @ ../control_omni.c:56:32
	bl	__aeabi_f2d
	.loc	3 56 28                         @ ../control_omni.c:56:28
	bl	cos
	mov	r2, r0
	ldr	r0, [sp, #56]                   @ 4-byte Reload
	str	r2, [sp, #28]                   @ 4-byte Spill
	.loc	3 56 57                         @ ../control_omni.c:56:57
	str	r1, [sp, #32]                   @ 4-byte Spill
	ldr	r0, [r0]
	bl	__aeabi_f2d
	ldr	r2, [sp, #28]                   @ 4-byte Reload
	ldr	r3, [sp, #32]                   @ 4-byte Reload
	mov	r4, r0
	ldr	r0, [sp, #36]                   @ 4-byte Reload
	str	r4, [sp, #44]                   @ 4-byte Spill
	mov	r4, r1
	.loc	3 56 55                         @ ../control_omni.c:56:55
	ldr	r1, [sp, #40]                   @ 4-byte Reload
	str	r4, [sp, #48]                   @ 4-byte Spill
	bl	__aeabi_dmul
	ldr	r2, [sp, #44]                   @ 4-byte Reload
	ldr	r3, [sp, #48]                   @ 4-byte Reload
	bl	__aeabi_dadd
	.loc	3 56 12                         @ ../control_omni.c:56:12
	bl	__aeabi_d2iz
	.loc	3 56 10                         @ ../control_omni.c:56:10
	ldr	r1, __arm_cp.1_5
	str	r0, [r1]
	.loc	3 57 18 is_stmt 1               @ ../control_omni.c:57:18
	ldr	r0, [sp, #92]
	.loc	3 57 12 is_stmt 0               @ ../control_omni.c:57:12
	bl	__aeabi_i2d
	str	r0, [sp, #68]                   @ 4-byte Spill
	.loc	3 57 32                         @ ../control_omni.c:57:32
	str	r1, [sp, #72]                   @ 4-byte Spill
	ldr	r0, [sp, #88]
	.loc	3 57 37                         @ ../control_omni.c:57:37
	adds	r0, #30
	.loc	3 57 31                         @ ../control_omni.c:57:31
	bl	__aeabi_i2f
	ldr	r1, [sp, #52]                   @ 4-byte Reload
	.loc	3 57 41                         @ ../control_omni.c:57:41
	bl	__aeabi_fmul
	.loc	3 57 31                         @ ../control_omni.c:57:31
	bl	__aeabi_f2d
	.loc	3 57 27                         @ ../control_omni.c:57:27
	bl	cos
	mov	r2, r0
	ldr	r0, [sp, #56]                   @ 4-byte Reload
	str	r2, [sp, #60]                   @ 4-byte Spill
	.loc	3 57 56                         @ ../control_omni.c:57:56
	str	r1, [sp, #64]                   @ 4-byte Spill
	ldr	r0, [r0]
	bl	__aeabi_f2d
	ldr	r2, [sp, #60]                   @ 4-byte Reload
	ldr	r3, [sp, #64]                   @ 4-byte Reload
	mov	r4, r0
	ldr	r0, [sp, #68]                   @ 4-byte Reload
	str	r4, [sp, #76]                   @ 4-byte Spill
	mov	r4, r1
	.loc	3 57 54                         @ ../control_omni.c:57:54
	ldr	r1, [sp, #72]                   @ 4-byte Reload
	str	r4, [sp, #80]                   @ 4-byte Spill
	bl	__aeabi_dmul
	ldr	r2, [sp, #76]                   @ 4-byte Reload
	ldr	r3, [sp, #80]                   @ 4-byte Reload
	bl	__aeabi_dadd
	.loc	3 57 12                         @ ../control_omni.c:57:12
	bl	__aeabi_d2iz
	mov	r1, r0
	.loc	3 57 10                         @ ../control_omni.c:57:10
	ldr	r0, [sp, #84]                   @ 4-byte Reload
	ldr	r2, __arm_cp.1_6
	str	r1, [r2]
.Ltmp26:
	.loc	3 59 10 is_stmt 1               @ ../control_omni.c:59:10
	ldr	r0, [r0]
	.loc	3 59 6 is_stmt 0                @ ../control_omni.c:59:6
	bl	abs
	.loc	3 59 20                         @ ../control_omni.c:59:20
	ldr	r1, [sp, #92]
.Ltmp27:
	.loc	3 59 6                          @ ../control_omni.c:59:6
	cmp	r0, r1
	ble	.LBB1_5
	b	.LBB1_1
.LBB1_1:
.Ltmp28:
	.loc	3 60 8 is_stmt 1                @ ../control_omni.c:60:8
	ldr	r0, __arm_cp.1_4
	ldr	r0, [r0]
.Ltmp29:
	.loc	3 60 8 is_stmt 0                @ ../control_omni.c:60:8
	cmp	r0, #0
	bmi	.LBB1_3
	b	.LBB1_2
.LBB1_2:
.Ltmp30:
	.loc	3 60 26                         @ ../control_omni.c:60:26
	ldr	r0, [sp, #92]
	.loc	3 60 25                         @ ../control_omni.c:60:25
	ldr	r1, __arm_cp.1_4
	str	r0, [r1]
	.loc	3 60 19                         @ ../control_omni.c:60:19
	b	.LBB1_4
.LBB1_3:
	.loc	3 61 18 is_stmt 1               @ ../control_omni.c:61:18
	ldr	r0, [sp, #92]
	.loc	3 61 17 is_stmt 0               @ ../control_omni.c:61:17
	rsbs	r0, r0, #0
	.loc	3 61 16                         @ ../control_omni.c:61:16
	ldr	r1, __arm_cp.1_4
	str	r0, [r1]
	b	.LBB1_4
.Ltmp31:
.LBB1_4:
	.loc	3 62 3 is_stmt 1                @ ../control_omni.c:62:3
	b	.LBB1_5
.Ltmp32:
.LBB1_5:
	.loc	3 64 10                         @ ../control_omni.c:64:10
	ldr	r0, __arm_cp.1_5
	ldr	r0, [r0]
	.loc	3 64 6 is_stmt 0                @ ../control_omni.c:64:6
	bl	abs
	.loc	3 64 20                         @ ../control_omni.c:64:20
	ldr	r1, [sp, #92]
.Ltmp33:
	.loc	3 64 6                          @ ../control_omni.c:64:6
	cmp	r0, r1
	ble	.LBB1_10
	b	.LBB1_6
.LBB1_6:
.Ltmp34:
	.loc	3 65 8 is_stmt 1                @ ../control_omni.c:65:8
	ldr	r0, __arm_cp.1_5
	ldr	r0, [r0]
.Ltmp35:
	.loc	3 65 8 is_stmt 0                @ ../control_omni.c:65:8
	cmp	r0, #0
	bmi	.LBB1_8
	b	.LBB1_7
.LBB1_7:
.Ltmp36:
	.loc	3 65 26                         @ ../control_omni.c:65:26
	ldr	r0, [sp, #92]
	.loc	3 65 25                         @ ../control_omni.c:65:25
	ldr	r1, __arm_cp.1_5
	str	r0, [r1]
	.loc	3 65 19                         @ ../control_omni.c:65:19
	b	.LBB1_9
.LBB1_8:
	.loc	3 66 18 is_stmt 1               @ ../control_omni.c:66:18
	ldr	r0, [sp, #92]
	.loc	3 66 17 is_stmt 0               @ ../control_omni.c:66:17
	rsbs	r0, r0, #0
	.loc	3 66 16                         @ ../control_omni.c:66:16
	ldr	r1, __arm_cp.1_5
	str	r0, [r1]
	b	.LBB1_9
.Ltmp37:
.LBB1_9:
	.loc	3 67 3 is_stmt 1                @ ../control_omni.c:67:3
	b	.LBB1_10
.Ltmp38:
.LBB1_10:
	.loc	3 69 12                         @ ../control_omni.c:69:12
	ldr	r0, __arm_cp.1_6
	ldr	r0, [r0]
	.loc	3 69 8 is_stmt 0                @ ../control_omni.c:69:8
	bl	abs
	.loc	3 69 22                         @ ../control_omni.c:69:22
	ldr	r1, [sp, #92]
.Ltmp39:
	.loc	3 69 8                          @ ../control_omni.c:69:8
	cmp	r0, r1
	ble	.LBB1_15
	b	.LBB1_11
.LBB1_11:
.Ltmp40:
	.loc	3 70 8 is_stmt 1                @ ../control_omni.c:70:8
	ldr	r0, __arm_cp.1_6
	ldr	r0, [r0]
.Ltmp41:
	.loc	3 70 8 is_stmt 0                @ ../control_omni.c:70:8
	cmp	r0, #0
	bmi	.LBB1_13
	b	.LBB1_12
.LBB1_12:
.Ltmp42:
	.loc	3 70 26                         @ ../control_omni.c:70:26
	ldr	r0, [sp, #92]
	.loc	3 70 25                         @ ../control_omni.c:70:25
	ldr	r1, __arm_cp.1_6
	str	r0, [r1]
	.loc	3 70 19                         @ ../control_omni.c:70:19
	b	.LBB1_14
.LBB1_13:
	.loc	3 71 18 is_stmt 1               @ ../control_omni.c:71:18
	ldr	r0, [sp, #92]
	.loc	3 71 17 is_stmt 0               @ ../control_omni.c:71:17
	rsbs	r0, r0, #0
	.loc	3 71 16                         @ ../control_omni.c:71:16
	ldr	r1, __arm_cp.1_6
	str	r0, [r1]
	b	.LBB1_14
.Ltmp43:
.LBB1_14:
	.loc	3 72 3 is_stmt 1                @ ../control_omni.c:72:3
	b	.LBB1_15
.Ltmp44:
.LBB1_15:
	.loc	3 75 6                          @ ../control_omni.c:75:6
	ldr	r0, __arm_cp.1_4
	ldr	r0, [r0]
.Ltmp45:
	.loc	3 75 6 is_stmt 0                @ ../control_omni.c:75:6
	cmp	r0, #0
	bmi	.LBB1_17
	b	.LBB1_16
.LBB1_16:
.Ltmp46:
	.loc	3 75 21                         @ ../control_omni.c:75:21
	ldr	r1, __arm_cp.1_7
	movs	r0, #1
	strb	r0, [r1]
	.loc	3 75 17                         @ ../control_omni.c:75:17
	b	.LBB1_18
.LBB1_17:
.Ltmp47:
	.loc	3 75 38                         @ ../control_omni.c:75:38
	ldr	r1, __arm_cp.1_7
	movs	r0, #2
	strb	r0, [r1]
	.loc	3 75 53                         @ ../control_omni.c:75:53
	ldr	r1, __arm_cp.1_4
	ldr	r0, [r1]
	.loc	3 75 52                         @ ../control_omni.c:75:52
	rsbs	r0, r0, #0
	.loc	3 75 51                         @ ../control_omni.c:75:51
	str	r0, [r1]
	b	.LBB1_18
.Ltmp48:
.LBB1_18:
	.loc	3 76 6 is_stmt 1                @ ../control_omni.c:76:6
	ldr	r0, __arm_cp.1_5
	ldr	r0, [r0]
.Ltmp49:
	.loc	3 76 6 is_stmt 0                @ ../control_omni.c:76:6
	cmp	r0, #0
	bmi	.LBB1_20
	b	.LBB1_19
.LBB1_19:
.Ltmp50:
	.loc	3 76 21                         @ ../control_omni.c:76:21
	ldr	r1, __arm_cp.1_8
	movs	r0, #1
	strb	r0, [r1]
	.loc	3 76 17                         @ ../control_omni.c:76:17
	b	.LBB1_21
.LBB1_20:
.Ltmp51:
	.loc	3 76 38                         @ ../control_omni.c:76:38
	ldr	r1, __arm_cp.1_8
	movs	r0, #2
	strb	r0, [r1]
	.loc	3 76 53                         @ ../control_omni.c:76:53
	ldr	r1, __arm_cp.1_5
	ldr	r0, [r1]
	.loc	3 76 52                         @ ../control_omni.c:76:52
	rsbs	r0, r0, #0
	.loc	3 76 51                         @ ../control_omni.c:76:51
	str	r0, [r1]
	b	.LBB1_21
.Ltmp52:
.LBB1_21:
	.loc	3 77 6 is_stmt 1                @ ../control_omni.c:77:6
	ldr	r0, __arm_cp.1_6
	ldr	r0, [r0]
.Ltmp53:
	.loc	3 77 6 is_stmt 0                @ ../control_omni.c:77:6
	cmp	r0, #0
	bmi	.LBB1_23
	b	.LBB1_22
.LBB1_22:
.Ltmp54:
	.loc	3 77 21                         @ ../control_omni.c:77:21
	ldr	r1, __arm_cp.1_9
	movs	r0, #1
	strb	r0, [r1]
	.loc	3 77 17                         @ ../control_omni.c:77:17
	b	.LBB1_24
.LBB1_23:
.Ltmp55:
	.loc	3 77 38                         @ ../control_omni.c:77:38
	ldr	r1, __arm_cp.1_9
	movs	r0, #2
	strb	r0, [r1]
	.loc	3 77 53                         @ ../control_omni.c:77:53
	ldr	r1, __arm_cp.1_6
	ldr	r0, [r1]
	.loc	3 77 52                         @ ../control_omni.c:77:52
	rsbs	r0, r0, #0
	.loc	3 77 51                         @ ../control_omni.c:77:51
	str	r0, [r1]
	b	.LBB1_24
.Ltmp56:
.LBB1_24:
	.loc	3 80 1 is_stmt 1                @ ../control_omni.c:80:1
	add	sp, #96
	pop	{r4, pc}
.Ltmp57:
	.p2align	2
@ %bb.25:
	.loc	3 0 1 is_stmt 0                 @ ../control_omni.c:0:1
__arm_cp.1_0:
	.long	1016003125                      @ 0x3c8efa35
.Lcpi_end20:
	.size	__arm_cp.1_0, .Lcpi_end20-__arm_cp.1_0
__arm_cp.1_1:
	.long	x
.Lcpi_end21:
	.size	__arm_cp.1_1, .Lcpi_end21-__arm_cp.1_1
__arm_cp.1_2:
	.long	1717986918                      @ 0x66666666
.Lcpi_end22:
	.size	__arm_cp.1_2, .Lcpi_end22-__arm_cp.1_2
__arm_cp.1_3:
	.long	1072064102                      @ 0x3fe66666
.Lcpi_end23:
	.size	__arm_cp.1_3, .Lcpi_end23-__arm_cp.1_3
__arm_cp.1_4:
	.long	speed1
.Lcpi_end24:
	.size	__arm_cp.1_4, .Lcpi_end24-__arm_cp.1_4
__arm_cp.1_5:
	.long	speed2
.Lcpi_end25:
	.size	__arm_cp.1_5, .Lcpi_end25-__arm_cp.1_5
__arm_cp.1_6:
	.long	speed3
.Lcpi_end26:
	.size	__arm_cp.1_6, .Lcpi_end26-__arm_cp.1_6
__arm_cp.1_7:
	.long	dir1
.Lcpi_end27:
	.size	__arm_cp.1_7, .Lcpi_end27-__arm_cp.1_7
__arm_cp.1_8:
	.long	dir2
.Lcpi_end28:
	.size	__arm_cp.1_8, .Lcpi_end28-__arm_cp.1_8
__arm_cp.1_9:
	.long	dir3
.Lcpi_end29:
	.size	__arm_cp.1_9, .Lcpi_end29-__arm_cp.1_9
.Lfunc_end1:
	.size	robot_Run, .Lfunc_end1-robot_Run
	.cfi_endproc
	.cantunwind
	.fnend
                                        @ -- End function
	.section	.text.robot_Rotate,"ax",%progbits
	.p2align	2                               @ -- Begin function robot_Rotate
	.type	robot_Rotate,%function
	.code	16                              @ @robot_Rotate
	.thumb_func
robot_Rotate:
.Lfunc_begin2:
	.loc	3 82 0 is_stmt 1                @ ../control_omni.c:82:0
	.fnstart
	.cfi_startproc
@ %bb.0:
	.save	{r7, lr}
	push	{r7, lr}
	.cfi_def_cfa_offset 8
	.cfi_offset lr, -4
	.cfi_offset r7, -8
	.pad	#8
	sub	sp, #8
	.cfi_def_cfa_offset 16
	str	r0, [sp, #4]
.Ltmp58:
	.loc	3 83 6 prologue_end             @ ../control_omni.c:83:6
	ldr	r0, [sp, #4]
.Ltmp59:
	.loc	3 83 6 is_stmt 0                @ ../control_omni.c:83:6
	cmp	r0, #1
	blt	.LBB2_2
	b	.LBB2_1
.LBB2_1:
.Ltmp60:
	.loc	3 84 10 is_stmt 1               @ ../control_omni.c:84:10
	ldr	r1, __arm_cp.2_0
	movs	r0, #1
	strb	r0, [r1]
	.loc	3 84 23 is_stmt 0               @ ../control_omni.c:84:23
	ldr	r1, __arm_cp.2_1
	strb	r0, [r1]
	.loc	3 84 35                         @ ../control_omni.c:84:35
	ldr	r1, __arm_cp.2_2
	strb	r0, [r1]
	.loc	3 85 3 is_stmt 1                @ ../control_omni.c:85:3
	b	.LBB2_3
.Ltmp61:
.LBB2_2:
	.loc	3 87 10                         @ ../control_omni.c:87:10
	ldr	r1, __arm_cp.2_0
	movs	r0, #2
	strb	r0, [r1]
	.loc	3 87 23 is_stmt 0               @ ../control_omni.c:87:23
	ldr	r1, __arm_cp.2_1
	strb	r0, [r1]
	.loc	3 87 35                         @ ../control_omni.c:87:35
	ldr	r1, __arm_cp.2_2
	strb	r0, [r1]
	b	.LBB2_3
.Ltmp62:
.LBB2_3:
	.loc	3 89 16 is_stmt 1               @ ../control_omni.c:89:16
	ldr	r0, [sp, #4]
	.loc	3 89 12 is_stmt 0               @ ../control_omni.c:89:12
	bl	abs
	.loc	3 89 10                         @ ../control_omni.c:89:10
	ldr	r1, __arm_cp.2_3
	str	r0, [r1]
	.loc	3 89 38                         @ ../control_omni.c:89:38
	ldr	r0, [sp, #4]
	.loc	3 89 34                         @ ../control_omni.c:89:34
	bl	abs
	.loc	3 89 33                         @ ../control_omni.c:89:33
	ldr	r1, __arm_cp.2_4
	str	r0, [r1]
	.loc	3 89 60                         @ ../control_omni.c:89:60
	ldr	r0, [sp, #4]
	.loc	3 89 56                         @ ../control_omni.c:89:56
	bl	abs
	.loc	3 89 55                         @ ../control_omni.c:89:55
	ldr	r1, __arm_cp.2_5
	str	r0, [r1]
	.loc	3 90 1 is_stmt 1                @ ../control_omni.c:90:1
	add	sp, #8
	pop	{r7, pc}
.Ltmp63:
	.p2align	2
@ %bb.4:
	.loc	3 0 1 is_stmt 0                 @ ../control_omni.c:0:1
__arm_cp.2_0:
	.long	dir1
.Lcpi_end30:
	.size	__arm_cp.2_0, .Lcpi_end30-__arm_cp.2_0
__arm_cp.2_1:
	.long	dir2
.Lcpi_end31:
	.size	__arm_cp.2_1, .Lcpi_end31-__arm_cp.2_1
__arm_cp.2_2:
	.long	dir3
.Lcpi_end32:
	.size	__arm_cp.2_2, .Lcpi_end32-__arm_cp.2_2
__arm_cp.2_3:
	.long	speed1
.Lcpi_end33:
	.size	__arm_cp.2_3, .Lcpi_end33-__arm_cp.2_3
__arm_cp.2_4:
	.long	speed2
.Lcpi_end34:
	.size	__arm_cp.2_4, .Lcpi_end34-__arm_cp.2_4
__arm_cp.2_5:
	.long	speed3
.Lcpi_end35:
	.size	__arm_cp.2_5, .Lcpi_end35-__arm_cp.2_5
.Lfunc_end2:
	.size	robot_Rotate, .Lfunc_end2-robot_Rotate
	.cfi_endproc
	.cantunwind
	.fnend
                                        @ -- End function
	.section	.text.robot_Stop,"ax",%progbits
	.p2align	2                               @ -- Begin function robot_Stop
	.type	robot_Stop,%function
	.code	16                              @ @robot_Stop
	.thumb_func
robot_Stop:
.Lfunc_begin3:
	.loc	3 28 0 is_stmt 1                @ ../control_omni.c:28:0
	.fnstart
	.cfi_startproc
@ %bb.0:
	.save	{r7, lr}
	push	{r7, lr}
	.cfi_def_cfa_offset 8
	.cfi_offset lr, -4
	.cfi_offset r7, -8
	.pad	#40
	sub	sp, #40
	.cfi_def_cfa_offset 48
.Ltmp64:
	.loc	3 29 10 prologue_end            @ ../control_omni.c:29:10
	ldr	r1, __arm_cp.3_0
	str	r1, [sp, #32]                   @ 4-byte Spill
	movs	r0, #0
	str	r0, [r1]
	.loc	3 29 20 is_stmt 0               @ ../control_omni.c:29:20
	ldr	r1, __arm_cp.3_1
	str	r1, [sp, #20]                   @ 4-byte Spill
	str	r0, [r1]
	.loc	3 29 30                         @ ../control_omni.c:29:30
	ldr	r1, __arm_cp.3_2
	str	r1, [sp, #12]                   @ 4-byte Spill
	str	r0, [r1]
	.loc	3 30 37 is_stmt 1               @ ../control_omni.c:30:37
	ldr	r0, __arm_cp.3_3
	str	r0, [sp, #8]                    @ 4-byte Spill
	ldrh	r1, [r0]
	movs	r0, #1
	str	r0, [sp, #36]                   @ 4-byte Spill
	movs	r2, #6
	.loc	3 30 3 is_stmt 0                @ ../control_omni.c:30:3
	str	r2, [sp, #4]                    @ 4-byte Spill
	bl	Write_Data_Modbus
	ldr	r2, [sp, #4]                    @ 4-byte Reload
                                        @ kill: def $r1 killed $r0
	.loc	3 31 36 is_stmt 1               @ ../control_omni.c:31:36
	ldr	r0, [sp, #8]                    @ 4-byte Reload
	ldrh	r1, [r0]
	movs	r0, #2
	.loc	3 31 3 is_stmt 0                @ ../control_omni.c:31:3
	str	r0, [sp, #16]                   @ 4-byte Spill
	bl	Write_Data_Modbus
	ldr	r2, [sp, #4]                    @ 4-byte Reload
                                        @ kill: def $r1 killed $r0
	.loc	3 32 37 is_stmt 1               @ ../control_omni.c:32:37
	ldr	r0, [sp, #8]                    @ 4-byte Reload
	ldrh	r1, [r0]
	movs	r0, #3
	.loc	3 32 3 is_stmt 0                @ ../control_omni.c:32:3
	str	r0, [sp, #24]                   @ 4-byte Spill
	bl	Write_Data_Modbus
	ldr	r2, [sp, #12]                   @ 4-byte Reload
                                        @ kill: def $r1 killed $r0
	.loc	3 33 35 is_stmt 1               @ ../control_omni.c:33:35
	ldr	r0, [sp, #16]                   @ 4-byte Reload
	ldr	r1, __arm_cp.3_4
	str	r1, [sp, #28]                   @ 4-byte Spill
	ldrh	r1, [r1]
	.loc	3 33 47 is_stmt 0               @ ../control_omni.c:33:47
	ldr	r2, [r2]
	.loc	3 33 2                          @ ../control_omni.c:33:2
	bl	Write_Data_Modbus
	ldr	r2, [sp, #20]                   @ 4-byte Reload
	ldr	r1, [sp, #28]                   @ 4-byte Reload
                                        @ kill: def $r3 killed $r0
	.loc	3 34 36 is_stmt 1               @ ../control_omni.c:34:36
	ldr	r0, [sp, #24]                   @ 4-byte Reload
	ldrh	r1, [r1]
	.loc	3 34 48 is_stmt 0               @ ../control_omni.c:34:48
	ldr	r2, [r2]
	.loc	3 34 2                          @ ../control_omni.c:34:2
	bl	Write_Data_Modbus
	ldr	r1, [sp, #28]                   @ 4-byte Reload
	ldr	r2, [sp, #32]                   @ 4-byte Reload
                                        @ kill: def $r3 killed $r0
	.loc	3 35 36 is_stmt 1               @ ../control_omni.c:35:36
	ldr	r0, [sp, #36]                   @ 4-byte Reload
	ldrh	r1, [r1]
	.loc	3 35 48 is_stmt 0               @ ../control_omni.c:35:48
	ldr	r2, [r2]
	.loc	3 35 2                          @ ../control_omni.c:35:2
	bl	Write_Data_Modbus
	.loc	3 37 1 is_stmt 1                @ ../control_omni.c:37:1
	add	sp, #40
	pop	{r7, pc}
.Ltmp65:
	.p2align	2
@ %bb.1:
	.loc	3 0 1 is_stmt 0                 @ ../control_omni.c:0:1
__arm_cp.3_0:
	.long	speed1
.Lcpi_end36:
	.size	__arm_cp.3_0, .Lcpi_end36-__arm_cp.3_0
__arm_cp.3_1:
	.long	speed2
.Lcpi_end37:
	.size	__arm_cp.3_1, .Lcpi_end37-__arm_cp.3_1
__arm_cp.3_2:
	.long	speed3
.Lcpi_end38:
	.size	__arm_cp.3_2, .Lcpi_end38-__arm_cp.3_2
__arm_cp.3_3:
	.long	CTRL_CMD
.Lcpi_end39:
	.size	__arm_cp.3_3, .Lcpi_end39-__arm_cp.3_3
__arm_cp.3_4:
	.long	SPEED_ADDR
.Lcpi_end40:
	.size	__arm_cp.3_4, .Lcpi_end40-__arm_cp.3_4
.Lfunc_end3:
	.size	robot_Stop, .Lfunc_end3-robot_Stop
	.cfi_endproc
	.cantunwind
	.fnend
                                        @ -- End function
	.section	.text.Write_Data_Modbus,"ax",%progbits
	.p2align	2                               @ -- Begin function Write_Data_Modbus
	.type	Write_Data_Modbus,%function
	.code	16                              @ @Write_Data_Modbus
	.thumb_func
Write_Data_Modbus:
.Lfunc_begin4:
	.loc	5 109 0 is_stmt 1               @ ../modbus_func.c:109:0
	.fnstart
	.cfi_startproc
@ %bb.0:
	.save	{r7, lr}
	push	{r7, lr}
	.cfi_def_cfa_offset 8
	.cfi_offset lr, -4
	.cfi_offset r7, -8
	.pad	#40
	sub	sp, #40
	.cfi_def_cfa_offset 48
                                        @ kill: def $r3 killed $r0
	add	r3, sp, #36
	strb	r0, [r3]
	str	r1, [sp, #32]
	str	r2, [sp, #28]
	movs	r1, #6
.Ltmp66:
	.loc	5 111 9 prologue_end            @ ../modbus_func.c:111:9
	str	r1, [sp, #24]
	.loc	5 113 14                        @ ../modbus_func.c:113:14
	ldr	r2, [sp, #36]
	add	r0, sp, #12
	.loc	5 113 12 is_stmt 0              @ ../modbus_func.c:113:12
	str	r0, [sp, #4]                    @ 4-byte Spill
	strb	r2, [r0]
	.loc	5 114 12 is_stmt 1              @ ../modbus_func.c:114:12
	strb	r1, [r0, #1]
	.loc	5 115 14                        @ ../modbus_func.c:115:14
	ldr	r1, [sp, #32]
	.loc	5 115 19 is_stmt 0              @ ../modbus_func.c:115:19
	lsrs	r1, r1, #8
	.loc	5 115 12                        @ ../modbus_func.c:115:12
	strb	r1, [r0, #2]
	.loc	5 116 14 is_stmt 1              @ ../modbus_func.c:116:14
	ldr	r1, [sp, #32]
	.loc	5 116 12 is_stmt 0              @ ../modbus_func.c:116:12
	strb	r1, [r0, #3]
	.loc	5 117 14 is_stmt 1              @ ../modbus_func.c:117:14
	ldr	r1, [sp, #28]
	.loc	5 117 20 is_stmt 0              @ ../modbus_func.c:117:20
	lsrs	r1, r1, #8
	.loc	5 117 12                        @ ../modbus_func.c:117:12
	strb	r1, [r0, #4]
	.loc	5 118 14 is_stmt 1              @ ../modbus_func.c:118:14
	ldr	r1, [sp, #28]
	.loc	5 118 12 is_stmt 0              @ ../modbus_func.c:118:12
	strb	r1, [r0, #5]
	add	r1, sp, #24
	.loc	5 119 29 is_stmt 1              @ ../modbus_func.c:119:29
	ldrh	r1, [r1]
	.loc	5 119 18 is_stmt 0              @ ../modbus_func.c:119:18
	bl	crc16
	ldr	r1, [sp, #4]                    @ 4-byte Reload
	mov	r2, r0
	add	r0, sp, #8
	.loc	5 119 12                        @ ../modbus_func.c:119:12
	strh	r2, [r0]
	.loc	5 120 25 is_stmt 1              @ ../modbus_func.c:120:25
	ldrb	r0, [r0, #1]
	.loc	5 120 19 is_stmt 0              @ ../modbus_func.c:120:19
	ldr	r2, [sp, #24]
	adds	r3, r2, #1
	str	r3, [sp, #24]
	.loc	5 120 23                        @ ../modbus_func.c:120:23
	strb	r0, [r1, r2]
	.loc	5 121 25 is_stmt 1              @ ../modbus_func.c:121:25
	ldr	r0, [sp, #8]
	.loc	5 121 19 is_stmt 0              @ ../modbus_func.c:121:19
	ldr	r2, [sp, #24]
	adds	r3, r2, #1
	str	r3, [sp, #24]
	.loc	5 121 23                        @ ../modbus_func.c:121:23
	strb	r0, [r1, r2]
	.loc	5 124 39 is_stmt 1              @ ../modbus_func.c:124:39
	ldr	r2, [sp, #24]
	ldr	r0, __arm_cp.4_0
	.loc	5 124 5 is_stmt 0               @ ../modbus_func.c:124:5
	bl	UART_Write
	ldr	r0, __arm_cp.4_1
	ldr	r1, __arm_cp.4_2
	.loc	5 125 3 is_stmt 1               @ ../modbus_func.c:125:3
	bl	TIMER_Delay
	movs	r0, #1
	.loc	5 126 3                         @ ../modbus_func.c:126:3
	add	sp, #40
	pop	{r7, pc}
.Ltmp67:
	.p2align	2
@ %bb.1:
	.loc	5 0 3 is_stmt 0                 @ ../modbus_func.c:0:3
__arm_cp.4_0:
	.long	1074204672                      @ 0x40071000
.Lcpi_end41:
	.size	__arm_cp.4_0, .Lcpi_end41-__arm_cp.4_0
__arm_cp.4_1:
	.long	1074069504                      @ 0x40050000
.Lcpi_end42:
	.size	__arm_cp.4_1, .Lcpi_end42-__arm_cp.4_1
__arm_cp.4_2:
	.long	100000                          @ 0x186a0
.Lcpi_end43:
	.size	__arm_cp.4_2, .Lcpi_end43-__arm_cp.4_2
.Lfunc_end4:
	.size	Write_Data_Modbus, .Lfunc_end4-Write_Data_Modbus
	.cfi_endproc
	.cantunwind
	.fnend
                                        @ -- End function
	.section	.text.UART2_IRQHandler,"ax",%progbits
	.hidden	UART2_IRQHandler                @ -- Begin function UART2_IRQHandler
	.globl	UART2_IRQHandler
	.p2align	2
	.type	UART2_IRQHandler,%function
	.code	16                              @ @UART2_IRQHandler
	.thumb_func
UART2_IRQHandler:
.Lfunc_begin5:
	.loc	1 139 0 is_stmt 1               @ ../int_handler.c:139:0
	.fnstart
	.cfi_startproc
@ %bb.0:
	.save	{r7, lr}
	push	{r7, lr}
	.cfi_def_cfa_offset 8
	.cfi_offset lr, -4
	.cfi_offset r7, -8
	.pad	#32
	sub	sp, #32
	.cfi_def_cfa_offset 40
	ldr	r0, __arm_cp.5_0
.Ltmp68:
	.loc	1 140 33 prologue_end           @ ../int_handler.c:140:33
	ldr	r0, [r0]
	.loc	1 140 14 is_stmt 0              @ ../int_handler.c:140:14
	str	r0, [sp, #28]
	add	r1, sp, #24
	movs	r0, #255
	.loc	1 141 13 is_stmt 1              @ ../int_handler.c:141:13
	strb	r0, [r1]
	add	r0, sp, #28
.Ltmp69:
	.loc	1 160 46                        @ ../int_handler.c:160:46
	ldrb	r0, [r0, #1]
	lsls	r0, r0, #31
	cbnz	r0, .LBB5_2
	b	.LBB5_1
.Ltmp70:
.LBB5_1:
	.loc	1 0 46 is_stmt 0                @ ../int_handler.c:0:46
	add	r0, sp, #28
	.loc	1 160 9                         @ ../int_handler.c:160:9
	ldrb	r0, [r0, #1]
	lsls	r0, r0, #27
	cmp	r0, #0
	bpl	.LBB5_14
	b	.LBB5_2
.LBB5_2:
.Ltmp71:
	.loc	1 163 9 is_stmt 1               @ ../int_handler.c:163:9
	b	.LBB5_3
.LBB5_3:                                @ =>This Loop Header: Depth=1
                                        @     Child Loop BB5_6 Depth 2
	.loc	1 0 9 is_stmt 0                 @ ../int_handler.c:0:9
	ldr	r0, __arm_cp.5_1
	.loc	1 163 17                        @ ../int_handler.c:163:17
	ldr	r0, [r0]
	.loc	1 163 9                         @ ../int_handler.c:163:9
	lsls	r0, r0, #17
	cmp	r0, #0
	bmi	.LBB5_13
	b	.LBB5_4
.LBB5_4:                                @   in Loop: Header=BB5_3 Depth=1
	.loc	1 0 9                           @ ../int_handler.c:0:9
	ldr	r0, __arm_cp.5_2
.Ltmp72:
	.loc	1 166 24 is_stmt 1              @ ../int_handler.c:166:24
	ldr	r1, [r0]
	add	r0, sp, #24
	.loc	1 166 22 is_stmt 0              @ ../int_handler.c:166:22
	strb	r1, [r0]
	.loc	1 169 24 is_stmt 1              @ ../int_handler.c:169:24
	ldrb	r0, [r0]
	.loc	1 169 8 is_stmt 0               @ ../int_handler.c:169:8
	bl	WitSerialDataIn
.Ltmp73:
	.loc	1 170 11 is_stmt 1              @ ../int_handler.c:170:11
	ldr	r0, __arm_cp.5_3
	ldrb	r0, [r0]
.Ltmp74:
	.loc	1 170 11 is_stmt 0              @ ../int_handler.c:170:11
	cmp	r0, #0
	beq	.LBB5_12
	b	.LBB5_5
.LBB5_5:                                @   in Loop: Header=BB5_3 Depth=1
	.loc	1 0 11                          @ ../int_handler.c:0:11
	movs	r0, #0
.Ltmp75:
	.loc	1 172 17 is_stmt 1              @ ../int_handler.c:172:17
	str	r0, [sp, #20]
	.loc	1 172 13 is_stmt 0              @ ../int_handler.c:172:13
	b	.LBB5_6
.LBB5_6:                                @   Parent Loop BB5_3 Depth=1
                                        @ =>  This Inner Loop Header: Depth=2
.Ltmp76:
	.loc	1 172 24                        @ ../int_handler.c:172:24
	ldr	r0, [sp, #20]
.Ltmp77:
	.loc	1 172 9                         @ ../int_handler.c:172:9
	cmp	r0, #2
	bgt	.LBB5_9
	b	.LBB5_7
.LBB5_7:                                @   in Loop: Header=BB5_6 Depth=2
.Ltmp78:
	.loc	1 174 28 is_stmt 1              @ ../int_handler.c:174:28
	ldr	r0, [sp, #20]
	.loc	1 174 27 is_stmt 0              @ ../int_handler.c:174:27
	str	r0, [sp]                        @ 4-byte Spill
	lsls	r0, r0, #1
	.loc	1 174 20                        @ ../int_handler.c:174:20
	ldr	r1, __arm_cp.5_4
	str	r1, [sp, #8]                    @ 4-byte Spill
	adds	r0, r0, r1
	movs	r1, #104
	ldrsh	r0, [r0, r1]
	bl	__aeabi_i2f
	movs	r1, #71
	lsls	r1, r1, #24
	.loc	1 174 31                        @ ../int_handler.c:174:31
	str	r1, [sp, #12]                   @ 4-byte Spill
	bl	__aeabi_fdiv
	movs	r1, #131
	lsls	r1, r1, #23
	.loc	1 174 42                        @ ../int_handler.c:174:42
	bl	__aeabi_fmul
	ldr	r2, [sp]                        @ 4-byte Reload
	ldr	r1, [sp, #8]                    @ 4-byte Reload
	.loc	1 174 10                        @ ../int_handler.c:174:10
	lsls	r3, r2, #2
	ldr	r2, __arm_cp.5_5
	.loc	1 174 18                        @ ../int_handler.c:174:18
	str	r0, [r2, r3]
	.loc	1 175 29 is_stmt 1              @ ../int_handler.c:175:29
	ldr	r0, [sp, #20]
	.loc	1 175 28 is_stmt 0              @ ../int_handler.c:175:28
	str	r0, [sp, #4]                    @ 4-byte Spill
	lsls	r0, r0, #1
	.loc	1 175 21                        @ ../int_handler.c:175:21
	adds	r0, r0, r1
	movs	r1, #110
	ldrsh	r0, [r0, r1]
	bl	__aeabi_i2f
	ldr	r1, [sp, #12]                   @ 4-byte Reload
	.loc	1 175 32                        @ ../int_handler.c:175:32
	bl	__aeabi_fdiv
	ldr	r1, __arm_cp.5_6
	.loc	1 175 43                        @ ../int_handler.c:175:43
	bl	__aeabi_fmul
	ldr	r2, [sp, #4]                    @ 4-byte Reload
	ldr	r1, [sp, #8]                    @ 4-byte Reload
	.loc	1 175 10                        @ ../int_handler.c:175:10
	lsls	r3, r2, #2
	ldr	r2, __arm_cp.5_7
	.loc	1 175 19                        @ ../int_handler.c:175:19
	str	r0, [r2, r3]
	.loc	1 176 32 is_stmt 1              @ ../int_handler.c:176:32
	ldr	r0, [sp, #20]
	.loc	1 176 31 is_stmt 0              @ ../int_handler.c:176:31
	str	r0, [sp, #16]                   @ 4-byte Spill
	lsls	r0, r0, #1
	.loc	1 176 22                        @ ../int_handler.c:176:22
	adds	r0, r0, r1
	movs	r1, #122
	ldrsh	r0, [r0, r1]
	bl	__aeabi_i2f
	ldr	r1, [sp, #12]                   @ 4-byte Reload
	.loc	1 176 35                        @ ../int_handler.c:176:35
	bl	__aeabi_fdiv
	ldr	r1, __arm_cp.5_8
	.loc	1 176 46                        @ ../int_handler.c:176:46
	bl	__aeabi_fmul
	ldr	r1, [sp, #16]                   @ 4-byte Reload
	.loc	1 176 10                        @ ../int_handler.c:176:10
	lsls	r2, r1, #2
	ldr	r1, __arm_cp.5_9
	.loc	1 176 20                        @ ../int_handler.c:176:20
	str	r0, [r1, r2]
	.loc	1 177 9 is_stmt 1               @ ../int_handler.c:177:9
	b	.LBB5_8
.Ltmp79:
.LBB5_8:                                @   in Loop: Header=BB5_6 Depth=2
	.loc	1 172 32                        @ ../int_handler.c:172:32
	ldr	r0, [sp, #20]
	adds	r0, r0, #1
	str	r0, [sp, #20]
	.loc	1 172 9 is_stmt 0               @ ../int_handler.c:172:9
	b	.LBB5_6
.Ltmp80:
.LBB5_9:                                @   in Loop: Header=BB5_3 Depth=1
	.loc	1 178 12 is_stmt 1              @ ../int_handler.c:178:12
	ldr	r0, __arm_cp.5_3
	ldrb	r0, [r0]
.Ltmp81:
	.loc	1 178 12 is_stmt 0              @ ../int_handler.c:178:12
	lsls	r0, r0, #29
	cmp	r0, #0
	bpl	.LBB5_11
	b	.LBB5_10
.LBB5_10:                               @   in Loop: Header=BB5_3 Depth=1
.Ltmp82:
	.loc	1 181 24 is_stmt 1              @ ../int_handler.c:181:24
	ldr	r1, __arm_cp.5_3
	ldrb	r0, [r1]
	movs	r2, #251
	ands	r0, r2
	strb	r0, [r1]
	.loc	1 182 9                         @ ../int_handler.c:182:9
	b	.LBB5_11
.Ltmp83:
.LBB5_11:                               @   in Loop: Header=BB5_3 Depth=1
	.loc	1 183 8                         @ ../int_handler.c:183:8
	b	.LBB5_12
.Ltmp84:
.LBB5_12:                               @   in Loop: Header=BB5_3 Depth=1
	.loc	1 163 9                         @ ../int_handler.c:163:9
	b	.LBB5_3
.LBB5_13:
	.loc	1 186 5                         @ ../int_handler.c:186:5
	b	.LBB5_14
.Ltmp85:
.LBB5_14:
	.loc	1 0 5 is_stmt 0                 @ ../int_handler.c:0:5
	add	r0, sp, #28
	.loc	1 189 9 is_stmt 1               @ ../int_handler.c:189:9
	ldrb	r0, [r0, #1]
	lsls	r0, r0, #26
	cmp	r0, #0
	bpl	.LBB5_16
	b	.LBB5_15
.LBB5_15:
	.loc	1 0 9 is_stmt 0                 @ ../int_handler.c:0:9
	ldr	r0, __arm_cp.5_2
	movw	r1, #8192
.Ltmp86:
	.loc	1 192 9 is_stmt 1               @ ../int_handler.c:192:9
	bl	UART_ClearIntFlag
	.loc	1 193 5                         @ ../int_handler.c:193:5
	b	.LBB5_16
.Ltmp87:
.LBB5_16:
	.loc	1 202 1                         @ ../int_handler.c:202:1
	add	sp, #32
	pop	{r7, pc}
.Ltmp88:
	.p2align	2
@ %bb.17:
	.loc	1 0 1 is_stmt 0                 @ ../int_handler.c:0:1
__arm_cp.5_0:
	.long	1074208796                      @ 0x4007201c
.Lcpi_end44:
	.size	__arm_cp.5_0, .Lcpi_end44-__arm_cp.5_0
__arm_cp.5_1:
	.long	1074208792                      @ 0x40072018
.Lcpi_end45:
	.size	__arm_cp.5_1, .Lcpi_end45-__arm_cp.5_1
__arm_cp.5_2:
	.long	1074208768                      @ 0x40072000
.Lcpi_end46:
	.size	__arm_cp.5_2, .Lcpi_end46-__arm_cp.5_2
__arm_cp.5_3:
	.long	s_cDataUpdate
.Lcpi_end47:
	.size	__arm_cp.5_3, .Lcpi_end47-__arm_cp.5_3
__arm_cp.5_4:
	.long	sReg
.Lcpi_end48:
	.size	__arm_cp.5_4, .Lcpi_end48-__arm_cp.5_4
__arm_cp.5_5:
	.long	fAcc
.Lcpi_end49:
	.size	__arm_cp.5_5, .Lcpi_end49-__arm_cp.5_5
__arm_cp.5_6:
	.long	1157234688                      @ 0x44fa0000
.Lcpi_end50:
	.size	__arm_cp.5_6, .Lcpi_end50-__arm_cp.5_6
__arm_cp.5_7:
	.long	fGyro
.Lcpi_end51:
	.size	__arm_cp.5_7, .Lcpi_end51-__arm_cp.5_7
__arm_cp.5_8:
	.long	1127481344                      @ 0x43340000
.Lcpi_end52:
	.size	__arm_cp.5_8, .Lcpi_end52-__arm_cp.5_8
__arm_cp.5_9:
	.long	fAngle
.Lcpi_end53:
	.size	__arm_cp.5_9, .Lcpi_end53-__arm_cp.5_9
.Lfunc_end5:
	.size	UART2_IRQHandler, .Lfunc_end5-UART2_IRQHandler
	.cfi_endproc
	.cantunwind
	.fnend
                                        @ -- End function
	.section	.text.crc16,"ax",%progbits
	.p2align	2                               @ -- Begin function crc16
	.type	crc16,%function
	.code	16                              @ @crc16
	.thumb_func
crc16:
.Lfunc_begin6:
	.loc	5 91 0 is_stmt 1                @ ../modbus_func.c:91:0
	.fnstart
	.cfi_startproc
@ %bb.0:
	.pad	#20
	sub	sp, #20
	.cfi_def_cfa_offset 20
                                        @ kill: def $r2 killed $r1
	str	r0, [sp, #16]
	add	r0, sp, #12
	strh	r1, [r0]
	add	r1, sp, #8
	movs	r0, #255
.Ltmp89:
	.loc	5 92 13 prologue_end            @ ../modbus_func.c:92:13
	strb	r0, [r1]
	add	r1, sp, #4
	.loc	5 93 13                         @ ../modbus_func.c:93:13
	strb	r0, [r1]
	.loc	5 97 5                          @ ../modbus_func.c:97:5
	b	.LBB6_1
.LBB6_1:                                @ =>This Inner Loop Header: Depth=1
	.loc	5 0 5 is_stmt 0                 @ ../modbus_func.c:0:5
	add	r2, sp, #12
	.loc	5 97 25                         @ ../modbus_func.c:97:25
	ldrh	r0, [r2]
	subs	r1, r0, #1
	strh	r1, [r2]
	.loc	5 97 5                          @ ../modbus_func.c:97:5
	cbz	r0, .LBB6_3
	b	.LBB6_2
.LBB6_2:                                @   in Loop: Header=BB6_1 Depth=1
	.loc	5 0 5                           @ ../modbus_func.c:0:5
	add	r1, sp, #8
.Ltmp90:
	.loc	5 98 13 is_stmt 1               @ ../modbus_func.c:98:13
	ldrb	r0, [r1]
	.loc	5 98 29 is_stmt 0               @ ../modbus_func.c:98:29
	ldr	r2, [sp, #16]
	adds	r3, r2, #1
	str	r3, [sp, #16]
	.loc	5 98 22                         @ ../modbus_func.c:98:22
	ldrb	r2, [r2]
	.loc	5 98 20                         @ ../modbus_func.c:98:20
	eors	r0, r2
	.loc	5 98 11                         @ ../modbus_func.c:98:11
	str	r0, [sp]
	.loc	5 100 18 is_stmt 1              @ ../modbus_func.c:100:18
	ldr	r0, [sp, #4]
	.loc	5 100 40 is_stmt 0              @ ../modbus_func.c:100:40
	ldr	r3, [sp]
	.loc	5 100 27                        @ ../modbus_func.c:100:27
	ldr	r2, __arm_cp.6_0
	ldrb	r2, [r2, r3]
	.loc	5 100 25                        @ ../modbus_func.c:100:25
	eors	r0, r2
	.loc	5 100 16                        @ ../modbus_func.c:100:16
	strb	r0, [r1]
	.loc	5 101 31 is_stmt 1              @ ../modbus_func.c:101:31
	ldr	r1, [sp]
	.loc	5 101 18 is_stmt 0              @ ../modbus_func.c:101:18
	ldr	r0, __arm_cp.6_1
	ldrb	r0, [r0, r1]
	add	r1, sp, #4
	.loc	5 101 16                        @ ../modbus_func.c:101:16
	strb	r0, [r1]
.Ltmp91:
	.loc	5 97 5 is_stmt 1                @ ../modbus_func.c:97:5
	b	.LBB6_1
.LBB6_3:
	.loc	5 0 5 is_stmt 0                 @ ../modbus_func.c:0:5
	add	r0, sp, #8
	.loc	5 104 13 is_stmt 1              @ ../modbus_func.c:104:13
	ldrb	r0, [r0]
	.loc	5 104 20 is_stmt 0              @ ../modbus_func.c:104:20
	lsls	r0, r0, #8
	add	r1, sp, #4
	.loc	5 104 27                        @ ../modbus_func.c:104:27
	ldrb	r1, [r1]
	.loc	5 104 25                        @ ../modbus_func.c:104:25
	adds	r0, r0, r1
	.loc	5 104 5                         @ ../modbus_func.c:104:5
	add	sp, #20
	bx	lr
.Ltmp92:
	.p2align	2
@ %bb.4:
	.loc	5 0 5                           @ ../modbus_func.c:0:5
__arm_cp.6_0:
	.long	table_crc_hi
.Lcpi_end54:
	.size	__arm_cp.6_0, .Lcpi_end54-__arm_cp.6_0
__arm_cp.6_1:
	.long	table_crc_lo
.Lcpi_end55:
	.size	__arm_cp.6_1, .Lcpi_end55-__arm_cp.6_1
.Lfunc_end6:
	.size	crc16, .Lfunc_end6-crc16
	.cfi_endproc
	.cantunwind
	.fnend
                                        @ -- End function
	.type	.L.str,%object                  @ @.str
	.section	.rodata.str1.1,"aMS",%progbits,1
.L.str:
	.asciz	"\n BIF \n"
	.size	.L.str, 8

	.type	.L.str.1,%object                @ @.str.1
.L.str.1:
	.asciz	"\n FEF \n"
	.size	.L.str.1, 8

	.type	.L.str.2,%object                @ @.str.2
.L.str.2:
	.asciz	"\n PEF \n"
	.size	.L.str.2, 8

	.type	.L.str.3,%object                @ @.str.3
.L.str.3:
	.asciz	"\n Error Data is '0x%x' \n"
	.size	.L.str.3, 25

	.type	.L.str.4,%object                @ @.str.4
.L.str.4:
	.asciz	"0x%x\n"
	.size	.L.str.4, 6

	.type	.L.str.5,%object                @ @.str.5
.L.str.5:
	.asciz	"forward"
	.size	.L.str.5, 8

	.type	fAngle,%object                  @ @fAngle
	.section	.bss.fAngle,"aw",%nobits
	.p2align	2, 0x0
fAngle:
	.zero	12
	.size	fAngle, 12

	.type	offSet_z,%object                @ @offSet_z
	.section	.bss.offSet_z,"aw",%nobits
	.p2align	2, 0x0
offSet_z:
	.long	0x00000000                      @ float 0
	.size	offSet_z, 4

	.type	SPEED_ADDR,%object              @ @SPEED_ADDR
	.section	.data.SPEED_ADDR,"aw",%progbits
	.p2align	1, 0x0
SPEED_ADDR:
	.short	8193                            @ 0x2001
	.size	SPEED_ADDR, 2

	.type	speed3,%object                  @ @speed3
	.section	.bss.speed3,"aw",%nobits
	.p2align	2, 0x0
speed3:
	.long	0                               @ 0x0
	.size	speed3, 4

	.type	speed2,%object                  @ @speed2
	.section	.bss.speed2,"aw",%nobits
	.p2align	2, 0x0
speed2:
	.long	0                               @ 0x0
	.size	speed2, 4

	.type	speed1,%object                  @ @speed1
	.section	.bss.speed1,"aw",%nobits
	.p2align	2, 0x0
speed1:
	.long	0                               @ 0x0
	.size	speed1, 4

	.type	CTRL_CMD,%object                @ @CTRL_CMD
	.section	.data.CTRL_CMD,"aw",%progbits
	.p2align	1, 0x0
CTRL_CMD:
	.short	8192                            @ 0x2000
	.size	CTRL_CMD, 2

	.type	dir3,%object                    @ @dir3
	.section	.bss.dir3,"aw",%nobits
dir3:
	.byte	0                               @ 0x0
	.size	dir3, 1

	.type	dir2,%object                    @ @dir2
	.section	.bss.dir2,"aw",%nobits
dir2:
	.byte	0                               @ 0x0
	.size	dir2, 1

	.type	dir1,%object                    @ @dir1
	.section	.bss.dir1,"aw",%nobits
dir1:
	.byte	0                               @ 0x0
	.size	dir1, 1

	.type	.L.str.6,%object                @ @.str.6
	.section	.rodata.str1.1,"aMS",%progbits,1
.L.str.6:
	.asciz	"\nBuffer Error...\n"
	.size	.L.str.6, 18

	.type	s_cDataUpdate,%object           @ @s_cDataUpdate
	.section	.bss.s_cDataUpdate,"aw",%nobits
s_cDataUpdate:
	.byte	0                               @ 0x0
	.size	s_cDataUpdate, 1

	.type	fAcc,%object                    @ @fAcc
	.section	.bss.fAcc,"aw",%nobits
	.p2align	2, 0x0
fAcc:
	.zero	12
	.size	fAcc, 12

	.type	fGyro,%object                   @ @fGyro
	.section	.bss.fGyro,"aw",%nobits
	.p2align	2, 0x0
fGyro:
	.zero	12
	.size	fGyro, 12

	.type	x,%object                       @ @x
	.section	.bss.x,"aw",%nobits
	.p2align	2, 0x0
x:
	.long	0x00000000                      @ float 0
	.size	x, 4

	.type	table_crc_hi,%object            @ @table_crc_hi
	.section	.rodata.table_crc_hi,"a",%progbits
table_crc_hi:
	.ascii	"\000\301\201@\001\300\200A\001\300\200A\000\301\201@\001\300\200A\000\301\201@\000\301\201@\001\300\200A\001\300\200A\000\301\201@\000\301\201@\001\300\200A\000\301\201@\001\300\200A\001\300\200A\000\301\201@\001\300\200A\000\301\201@\000\301\201@\001\300\200A\000\301\201@\001\300\200A\001\300\200A\000\301\201@\000\301\201@\001\300\200A\001\300\200A\000\301\201@\001\300\200A\000\301\201@\000\301\201@\001\300\200A\001\300\200A\000\301\201@\000\301\201@\001\300\200A\000\301\201@\001\300\200A\001\300\200A\000\301\201@\000\301\201@\001\300\200A\001\300\200A\000\301\201@\001\300\200A\000\301\201@\000\301\201@\001\300\200A\000\301\201@\001\300\200A\001\300\200A\000\301\201@\001\300\200A\000\301\201@\000\301\201@\001\300\200A\001\300\200A\000\301\201@\000\301\201@\001\300\200A\000\301\201@\001\300\200A\001\300\200A\000\301\201@"
	.size	table_crc_hi, 256

	.type	table_crc_lo,%object            @ @table_crc_lo
	.section	.rodata.table_crc_lo,"a",%progbits
table_crc_lo:
	.ascii	"\000\300\301\001\303\003\002\302\306\006\007\307\005\305\304\004\314\f\r\315\017\317\316\016\n\312\313\013\311\t\b\310\330\030\031\331\033\333\332\032\036\336\337\037\335\035\034\334\024\324\325\025\327\027\026\326\322\022\023\323\021\321\320\020\36001\3613\363\36226\366\3677\36554\364<\374\375=\377?>\376\372:;\3739\371\3708(\350\351)\353+*\352\356./\357-\355\354,\344$%\345'\347\346&\"\342\343#\341! \340\240`a\241c\243\242bf\246\247g\245ed\244l\254\255m\257on\256\252jk\253i\251\250hx\270\271y\273{z\272\276~\177\277}\275\274|\264tu\265w\267\266vr\262\263s\261qp\260P\220\221Q\223SR\222\226VW\227U\225\224T\234\\]\235_\237\236^Z\232\233[\231YX\230\210HI\211K\213\212JN\216\217O\215ML\214D\204\205E\207GF\206\202BC\203A\201\200@"
	.size	table_crc_lo, 256

	.section	".note.GNU-stack","",%progbits
	.eabi_attribute	30, 6	@ Tag_ABI_optimization_goals
	.ARM_attribute	16, 1	@ Tag_AV_eba