	.text
	.syntax unified
	.eabi_attribute	67, "2.09"	@ Tag_conformance
	.cpu	cortex-m23
	.eabi_attribute	6, 16	@ Tag_CPU_arch
	.eabi_attribute	7, 77	@ Tag_CPU_arch_profile
	.eabi_attribute	8, 0	@ Tag_ARM_ISA_use
	.eabi_attribute	9, 3	@ Tag_THUMB_ISA_use
	.eabi_attribute	34, 0	@ Tag_CPU_unaligned_access
	.eabi_attribute	17, 1	@ Tag_ABI_PCS_GOT_use
	.eabi_attribute	20, 2	@ Tag_ABI_FP_denormal
	.eabi_attribute	21, 0	@ Tag_ABI_FP_exceptions
	.eabi_attribute	23, 1	@ Tag_ABI_FP_number_model
	.eabi_attribute	24, 1	@ Tag_ABI_align_needed
	.eabi_attribute	25, 1	@ Tag_ABI_align_preserved
	.eabi_attribute	38, 1	@ Tag_ABI_FP_16bit_format
	.eabi_attribute	18, 2	@ Tag_ABI_PCS_wchar_t
	.eabi_attribute	26, 1	@ Tag_ABI_enum_size
	.eabi_attribute	14, 0	@ Tag_ABI_PCS_R9_use
	.file	"lcd.c"
	.file	1 "C:\\Keil_v5\\ARM\\ARMCLANG\\Bin\\..\\include" "stdint.h"
	.file	2 "E:\\ROBOCON2024\\01. Coding\\Nuvoton\\demo_robot_3wheel\\SampleCode\\NuCodeGen\\DemoCodeGen\\KEIL" "../../../../Library/StdDriver/src/lcd.c"
	.file	3 "E:\\ROBOCON2024\\01. Coding\\Nuvoton\\demo_robot_3wheel\\SampleCode\\NuCodeGen\\DemoCodeGen\\KEIL" "../../../../Library/Device/Nuvoton/M251/Include/lcd_reg.h"
	.file	4 "E:\\ROBOCON2024\\01. Coding\\Nuvoton\\demo_robot_3wheel\\SampleCode\\NuCodeGen\\DemoCodeGen\\KEIL" "../../../../Library/Device/Nuvoton/M251/Include/clk_reg.h"
	.section	.text.LCD_Open,"ax",%progbits
	.hidden	LCD_Open                        @ -- Begin function LCD_Open
	.globl	LCD_Open
	.p2align	2
	.type	LCD_Open,%function
	.code	16                              @ @LCD_Open
	.thumb_func
LCD_Open:
.Lfunc_begin0:
	.loc	2 86 0                          @ ../../../../Library/StdDriver/src/lcd.c:86:0
	.fnstart
	.cfi_sections .debug_frame
	.cfi_startproc
@ %bb.0:
	.save	{r7, lr}
	push	{r7, lr}
	.cfi_def_cfa_offset 8
	.cfi_offset lr, -4
	.cfi_offset r7, -8
	.pad	#16
	sub	sp, #16
	.cfi_def_cfa_offset 24
	str	r0, [sp, #12]
.Ltmp0:
	.loc	2 90 5 prologue_end             @ ../../../../Library/StdDriver/src/lcd.c:90:5
	b	.LBB0_1
.LBB0_1:
	.loc	2 0 5 is_stmt 0                 @ ../../../../Library/StdDriver/src/lcd.c:0:5
	ldr	r1, __arm_cp.0_0
.Ltmp1:
	.loc	2 90 5                          @ ../../../../Library/StdDriver/src/lcd.c:90:5
	ldr	r0, [r1]
	movs	r2, #1
	bics	r0, r2
	str	r0, [r1]
	b	.LBB0_2
.LBB0_2:                                @ =>This Inner Loop Header: Depth=1
	.loc	2 0 5                           @ ../../../../Library/StdDriver/src/lcd.c:0:5
	ldr	r0, __arm_cp.0_0
	.loc	2 90 5                          @ ../../../../Library/StdDriver/src/lcd.c:90:5
	ldr	r0, [r0]
	lsrs	r0, r0, #31
	cbz	r0, .LBB0_4
	b	.LBB0_3
.LBB0_3:                                @   in Loop: Header=BB0_2 Depth=1
	b	.LBB0_2
.LBB0_4:
	b	.LBB0_5
.Ltmp2:
.LBB0_5:
	.loc	2 0 5                           @ ../../../../Library/StdDriver/src/lcd.c:0:5
	movs	r0, #0
	.loc	2 93 5 is_stmt 1                @ ../../../../Library/StdDriver/src/lcd.c:93:5
	bl	LCD_SetAllPixels
	ldr	r1, __arm_cp.0_1
	.loc	2 96 23                         @ ../../../../Library/StdDriver/src/lcd.c:96:23
	ldr	r0, [r1]
	movs	r2, #31
	.loc	2 96 28 is_stmt 0               @ ../../../../Library/StdDriver/src/lcd.c:96:28
	bics	r0, r2
	.loc	2 96 75                         @ ../../../../Library/StdDriver/src/lcd.c:96:75
	ldr	r3, [sp, #12]
	.loc	2 96 84                         @ ../../../../Library/StdDriver/src/lcd.c:96:84
	ldr	r2, [r3, #4]
	.loc	2 96 106                        @ ../../../../Library/StdDriver/src/lcd.c:96:106
	ldr	r3, [r3, #8]
	.loc	2 96 95                         @ ../../../../Library/StdDriver/src/lcd.c:96:95
	orrs	r2, r3
	.loc	2 96 72                         @ ../../../../Library/StdDriver/src/lcd.c:96:72
	orrs	r0, r2
	.loc	2 96 15                         @ ../../../../Library/StdDriver/src/lcd.c:96:15
	str	r0, [r1]
	.loc	2 99 5 is_stmt 1                @ ../../../../Library/StdDriver/src/lcd.c:99:5
	ldr	r0, [r1]
	movs	r2, #96
	bics	r0, r2
	ldr	r2, [sp, #12]
	ldr	r2, [r2, #16]
	orrs	r0, r2
	str	r0, [r1]
	.loc	2 102 18                        @ ../../../../Library/StdDriver/src/lcd.c:102:18
	ldr	r0, [sp, #12]
	.loc	2 102 27 is_stmt 0              @ ../../../../Library/StdDriver/src/lcd.c:102:27
	ldr	r0, [r0, #20]
	ldr	r1, __arm_cp.0_2
	.loc	2 102 16                        @ ../../../../Library/StdDriver/src/lcd.c:102:16
	str	r0, [r1]
	ldr	r1, __arm_cp.0_3
	.loc	2 105 5 is_stmt 1               @ ../../../../Library/StdDriver/src/lcd.c:105:5
	ldr	r0, [r1]
	movs	r2, #28
	bics	r0, r2
	ldr	r2, [sp, #12]
	ldr	r2, [r2, #24]
	orrs	r0, r2
	str	r0, [r1]
	.loc	2 108 5                         @ ../../../../Library/StdDriver/src/lcd.c:108:5
	ldr	r0, [r1]
	movs	r2, #3
	bics	r0, r2
	ldr	r2, [sp, #12]
	ldr	r2, [r2, #28]
	orrs	r0, r2
	str	r0, [r1]
.Ltmp3:
	.loc	2 111 9                         @ ../../../../Library/StdDriver/src/lcd.c:111:9
	ldr	r0, [sp, #12]
	.loc	2 111 18 is_stmt 0              @ ../../../../Library/StdDriver/src/lcd.c:111:18
	ldr	r0, [r0, #28]
.Ltmp4:
	.loc	2 111 9                         @ ../../../../Library/StdDriver/src/lcd.c:111:9
	cmp	r0, #2
	bne	.LBB0_7
	b	.LBB0_6
.LBB0_6:
	.loc	2 0 9                           @ ../../../../Library/StdDriver/src/lcd.c:0:9
	ldr	r0, __arm_cp.0_4
.Ltmp5:
	.loc	2 113 9 is_stmt 1               @ ../../../../Library/StdDriver/src/lcd.c:113:9
	bl	CLK_EnableModuleClock
	.loc	2 114 5                         @ ../../../../Library/StdDriver/src/lcd.c:114:5
	b	.LBB0_8
.Ltmp6:
.LBB0_7:
	.loc	2 0 5 is_stmt 0                 @ ../../../../Library/StdDriver/src/lcd.c:0:5
	ldr	r0, __arm_cp.0_4
.Ltmp7:
	.loc	2 117 9 is_stmt 1               @ ../../../../Library/StdDriver/src/lcd.c:117:9
	bl	CLK_DisableModuleClock
	b	.LBB0_8
.Ltmp8:
.LBB0_8:
	.loc	2 134 19                        @ ../../../../Library/StdDriver/src/lcd.c:134:19
	ldr	r0, [sp, #12]
	.loc	2 134 28 is_stmt 0              @ ../../../../Library/StdDriver/src/lcd.c:134:28
	ldr	r0, [r0, #4]
	movs	r1, #28
	.loc	2 134 39                        @ ../../../../Library/StdDriver/src/lcd.c:134:39
	ands	r0, r1
	.loc	2 134 60                        @ ../../../../Library/StdDriver/src/lcd.c:134:60
	lsrs	r0, r0, #2
	.loc	2 134 82                        @ ../../../../Library/StdDriver/src/lcd.c:134:82
	adds	r0, r0, #1
	.loc	2 134 15                        @ ../../../../Library/StdDriver/src/lcd.c:134:15
	str	r0, [sp, #8]
.Ltmp9:
	.loc	2 136 10 is_stmt 1              @ ../../../../Library/StdDriver/src/lcd.c:136:10
	ldr	r0, [sp, #12]
.Ltmp10:
	.loc	2 136 9 is_stmt 0               @ ../../../../Library/StdDriver/src/lcd.c:136:9
	ldrb	r0, [r0, #16]
	lsls	r0, r0, #26
	cmp	r0, #0
	bpl	.LBB0_13
	b	.LBB0_9
.LBB0_9:
.Ltmp11:
	.loc	2 141 23 is_stmt 1              @ ../../../../Library/StdDriver/src/lcd.c:141:23
	ldr	r0, [sp, #12]
	.loc	2 141 32 is_stmt 0              @ ../../../../Library/StdDriver/src/lcd.c:141:32
	ldr	r1, [r0, #12]
	.loc	2 141 47                        @ ../../../../Library/StdDriver/src/lcd.c:141:47
	ldr	r0, [sp, #8]
	.loc	2 141 45                        @ ../../../../Library/StdDriver/src/lcd.c:141:45
	muls	r0, r1, r0
	.loc	2 141 20                        @ ../../../../Library/StdDriver/src/lcd.c:141:20
	str	r0, [sp, #4]
	.loc	2 144 23 is_stmt 1              @ ../../../../Library/StdDriver/src/lcd.c:144:23
	ldr	r0, [sp, #12]
	.loc	2 144 32 is_stmt 0              @ ../../../../Library/StdDriver/src/lcd.c:144:32
	ldr	r0, [r0]
	.loc	2 144 46                        @ ../../../../Library/StdDriver/src/lcd.c:144:46
	ldr	r1, [sp, #4]
	.loc	2 144 44                        @ ../../../../Library/StdDriver/src/lcd.c:144:44
	udiv	r0, r0, r1
	.loc	2 144 20                        @ ../../../../Library/StdDriver/src/lcd.c:144:20
	str	r0, [sp]
.Ltmp12:
	.loc	2 146 13 is_stmt 1              @ ../../../../Library/StdDriver/src/lcd.c:146:13
	ldr	r0, [sp]
	ldr	r1, __arm_cp.0_5
.Ltmp13:
	.loc	2 146 13 is_stmt 0              @ ../../../../Library/StdDriver/src/lcd.c:146:13
	cmp	r0, r1
	blo	.LBB0_11
	b	.LBB0_10
.LBB0_10:
.Ltmp14:
	.loc	2 149 28 is_stmt 1              @ ../../../../Library/StdDriver/src/lcd.c:149:28
	ldr	r1, __arm_cp.0_7
	movs	r0, #0
	str	r0, [r1]
	.loc	2 150 9                         @ ../../../../Library/StdDriver/src/lcd.c:150:9
	b	.LBB0_12
.Ltmp15:
.LBB0_11:
	.loc	2 0 9 is_stmt 0                 @ ../../../../Library/StdDriver/src/lcd.c:0:9
	ldr	r1, __arm_cp.0_1
.Ltmp16:
	.loc	2 154 13 is_stmt 1              @ ../../../../Library/StdDriver/src/lcd.c:154:13
	ldr	r0, [r1]
	ldr	r2, __arm_cp.0_6
	ands	r0, r2
	ldr	r2, [sp]
	lsls	r2, r2, #8
	movw	r3, #256
	subs	r2, r2, r3
	orrs	r0, r2
	str	r0, [r1]
	.loc	2 157 30                        @ ../../../../Library/StdDriver/src/lcd.c:157:30
	ldr	r0, [sp, #12]
	.loc	2 157 39 is_stmt 0              @ ../../../../Library/StdDriver/src/lcd.c:157:39
	ldr	r0, [r0]
	.loc	2 157 53                        @ ../../../../Library/StdDriver/src/lcd.c:157:53
	ldr	r2, [sp, #8]
	.loc	2 157 65                        @ ../../../../Library/StdDriver/src/lcd.c:157:65
	ldr	r1, [sp]
	.loc	2 157 63                        @ ../../../../Library/StdDriver/src/lcd.c:157:63
	muls	r1, r2, r1
	.loc	2 157 50                        @ ../../../../Library/StdDriver/src/lcd.c:157:50
	udiv	r0, r0, r1
	.loc	2 157 28                        @ ../../../../Library/StdDriver/src/lcd.c:157:28
	ldr	r1, __arm_cp.0_7
	str	r0, [r1]
	b	.LBB0_12
.Ltmp17:
.LBB0_12:
	.loc	2 159 5 is_stmt 1               @ ../../../../Library/StdDriver/src/lcd.c:159:5
	b	.LBB0_17
.Ltmp18:
.LBB0_13:
	.loc	2 165 23                        @ ../../../../Library/StdDriver/src/lcd.c:165:23
	ldr	r0, [sp, #12]
	.loc	2 165 32 is_stmt 0              @ ../../../../Library/StdDriver/src/lcd.c:165:32
	ldr	r1, [r0, #12]
	.loc	2 165 47                        @ ../../../../Library/StdDriver/src/lcd.c:165:47
	ldr	r0, [sp, #8]
	.loc	2 165 45                        @ ../../../../Library/StdDriver/src/lcd.c:165:45
	muls	r0, r1, r0
	.loc	2 165 58                        @ ../../../../Library/StdDriver/src/lcd.c:165:58
	lsls	r0, r0, #1
	.loc	2 165 20                        @ ../../../../Library/StdDriver/src/lcd.c:165:20
	str	r0, [sp, #4]
	.loc	2 168 23 is_stmt 1              @ ../../../../Library/StdDriver/src/lcd.c:168:23
	ldr	r0, [sp, #12]
	.loc	2 168 32 is_stmt 0              @ ../../../../Library/StdDriver/src/lcd.c:168:32
	ldr	r0, [r0]
	.loc	2 168 46                        @ ../../../../Library/StdDriver/src/lcd.c:168:46
	ldr	r1, [sp, #4]
	.loc	2 168 44                        @ ../../../../Library/StdDriver/src/lcd.c:168:44
	udiv	r0, r0, r1
	.loc	2 168 20                        @ ../../../../Library/StdDriver/src/lcd.c:168:20
	str	r0, [sp]
.Ltmp19:
	.loc	2 170 13 is_stmt 1              @ ../../../../Library/StdDriver/src/lcd.c:170:13
	ldr	r0, [sp]
	ldr	r1, __arm_cp.0_5
.Ltmp20:
	.loc	2 170 13 is_stmt 0              @ ../../../../Library/StdDriver/src/lcd.c:170:13
	cmp	r0, r1
	blo	.LBB0_15
	b	.LBB0_14
.LBB0_14:
.Ltmp21:
	.loc	2 173 28 is_stmt 1              @ ../../../../Library/StdDriver/src/lcd.c:173:28
	ldr	r1, __arm_cp.0_7
	movs	r0, #0
	str	r0, [r1]
	.loc	2 174 9                         @ ../../../../Library/StdDriver/src/lcd.c:174:9
	b	.LBB0_16
.Ltmp22:
.LBB0_15:
	.loc	2 0 9 is_stmt 0                 @ ../../../../Library/StdDriver/src/lcd.c:0:9
	ldr	r1, __arm_cp.0_1
.Ltmp23:
	.loc	2 178 13 is_stmt 1              @ ../../../../Library/StdDriver/src/lcd.c:178:13
	ldr	r0, [r1]
	ldr	r2, __arm_cp.0_6
	ands	r0, r2
	ldr	r2, [sp]
	lsls	r2, r2, #8
	movw	r3, #256
	subs	r2, r2, r3
	orrs	r0, r2
	str	r0, [r1]
	.loc	2 181 31                        @ ../../../../Library/StdDriver/src/lcd.c:181:31
	ldr	r0, [sp, #12]
	.loc	2 181 40 is_stmt 0              @ ../../../../Library/StdDriver/src/lcd.c:181:40
	ldr	r0, [r0]
	.loc	2 181 55                        @ ../../../../Library/StdDriver/src/lcd.c:181:55
	ldr	r2, [sp, #8]
	.loc	2 181 67                        @ ../../../../Library/StdDriver/src/lcd.c:181:67
	ldr	r1, [sp]
	.loc	2 181 65                        @ ../../../../Library/StdDriver/src/lcd.c:181:65
	muls	r1, r2, r1
	.loc	2 181 52                        @ ../../../../Library/StdDriver/src/lcd.c:181:52
	udiv	r0, r0, r1
	.loc	2 181 80                        @ ../../../../Library/StdDriver/src/lcd.c:181:80
	lsrs	r0, r0, #1
	.loc	2 181 28                        @ ../../../../Library/StdDriver/src/lcd.c:181:28
	ldr	r1, __arm_cp.0_7
	str	r0, [r1]
	b	.LBB0_16
.Ltmp24:
.LBB0_16:
	.loc	2 0 28                          @ ../../../../Library/StdDriver/src/lcd.c:0:28
	b	.LBB0_17
.LBB0_17:
	.loc	2 185 12 is_stmt 1              @ ../../../../Library/StdDriver/src/lcd.c:185:12
	ldr	r0, __arm_cp.0_7
	ldr	r0, [r0]
	.loc	2 185 5 is_stmt 0               @ ../../../../Library/StdDriver/src/lcd.c:185:5
	add	sp, #16
	pop	{r7, pc}
.Ltmp25:
	.p2align	2
@ %bb.18:
	.loc	2 0 5                           @ ../../../../Library/StdDriver/src/lcd.c:0:5
__arm_cp.0_0:
	.long	1074507776                      @ 0x400bb000
.Lcpi_end0:
	.size	__arm_cp.0_0, .Lcpi_end0-__arm_cp.0_0
__arm_cp.0_1:
	.long	1074507780                      @ 0x400bb004
.Lcpi_end1:
	.size	__arm_cp.0_1, .Lcpi_end1-__arm_cp.0_1
__arm_cp.0_2:
	.long	1074507800                      @ 0x400bb018
.Lcpi_end2:
	.size	__arm_cp.0_2, .Lcpi_end2-__arm_cp.0_2
__arm_cp.0_3:
	.long	1074507788                      @ 0x400bb00c
.Lcpi_end3:
	.size	__arm_cp.0_3, .Lcpi_end3-__arm_cp.0_3
__arm_cp.0_4:
	.long	2744123407                      @ 0xa390000f
.Lcpi_end4:
	.size	__arm_cp.0_4, .Lcpi_end4-__arm_cp.0_4
__arm_cp.0_5:
	.long	1025                            @ 0x401
.Lcpi_end5:
	.size	__arm_cp.0_5, .Lcpi_end5-__arm_cp.0_5
__arm_cp.0_6:
	.long	4294705407                      @ 0xfffc00ff
.Lcpi_end6:
	.size	__arm_cp.0_6, .Lcpi_end6-__arm_cp.0_6
__arm_cp.0_7:
	.long	g_LCDFrameRate
.Lcpi_end7:
	.size	__arm_cp.0_7, .Lcpi_end7-__arm_cp.0_7
.Lfunc_end0:
	.size	LCD_Open, .Lfunc_end0-LCD_Open
	.cfi_endproc
	.cantunwind
	.fnend
                                        @ -- End function
	.section	.text.LCD_SetAllPixels,"ax",%progbits
	.hidden	LCD_SetAllPixels                @ -- Begin function LCD_SetAllPixels
	.globl	LCD_SetAllPixels
	.p2align	2
	.type	LCD_SetAllPixels,%function
	.code	16                              @ @LCD_SetAllPixels
	.thumb_func
LCD_SetAllPixels:
.Lfunc_begin1:
	.loc	2 237 0 is_stmt 1               @ ../../../../Library/StdDriver/src/lcd.c:237:0
	.fnstart
	.cfi_startproc
@ %bb.0:
	.pad	#12
	sub	sp, #12
	.cfi_def_cfa_offset 12
	str	r0, [sp, #8]
.Ltmp26:
	.loc	2 240 9 prologue_end            @ ../../../../Library/StdDriver/src/lcd.c:240:9
	ldr	r0, [sp, #8]
.Ltmp27:
	.loc	2 240 9 is_stmt 0               @ ../../../../Library/StdDriver/src/lcd.c:240:9
	cmp	r0, #1
	bne	.LBB1_2
	b	.LBB1_1
.LBB1_1:
	.loc	2 0 9                           @ ../../../../Library/StdDriver/src/lcd.c:0:9
	movs	r0, #0
	mvns	r0, r0
.Ltmp28:
	.loc	2 242 18 is_stmt 1              @ ../../../../Library/StdDriver/src/lcd.c:242:18
	str	r0, [sp]
	.loc	2 243 5                         @ ../../../../Library/StdDriver/src/lcd.c:243:5
	b	.LBB1_3
.Ltmp29:
.LBB1_2:
	.loc	2 0 5 is_stmt 0                 @ ../../../../Library/StdDriver/src/lcd.c:0:5
	movs	r0, #0
.Ltmp30:
	.loc	2 246 18 is_stmt 1              @ ../../../../Library/StdDriver/src/lcd.c:246:18
	str	r0, [sp]
	b	.LBB1_3
.Ltmp31:
.LBB1_3:
	.loc	2 0 18 is_stmt 0                @ ../../../../Library/StdDriver/src/lcd.c:0:18
	movs	r0, #0
.Ltmp32:
	.loc	2 249 12 is_stmt 1              @ ../../../../Library/StdDriver/src/lcd.c:249:12
	str	r0, [sp, #4]
	.loc	2 249 10 is_stmt 0              @ ../../../../Library/StdDriver/src/lcd.c:249:10
	b	.LBB1_4
.LBB1_4:                                @ =>This Inner Loop Header: Depth=1
.Ltmp33:
	.loc	2 249 17                        @ ../../../../Library/StdDriver/src/lcd.c:249:17
	ldr	r0, [sp, #4]
.Ltmp34:
	.loc	2 249 5                         @ ../../../../Library/StdDriver/src/lcd.c:249:5
	cmp	r0, #10
	bhi	.LBB1_7
	b	.LBB1_5
.LBB1_5:                                @   in Loop: Header=BB1_4 Depth=1
.Ltmp35:
	.loc	2 250 24 is_stmt 1              @ ../../../../Library/StdDriver/src/lcd.c:250:24
	ldr	r0, [sp]
	.loc	2 250 19 is_stmt 0              @ ../../../../Library/StdDriver/src/lcd.c:250:19
	ldr	r1, [sp, #4]
	.loc	2 250 9                         @ ../../../../Library/StdDriver/src/lcd.c:250:9
	lsls	r1, r1, #2
	ldr	r2, __arm_cp.1_0
	.loc	2 250 22                        @ ../../../../Library/StdDriver/src/lcd.c:250:22
	str	r0, [r1, r2]
	.loc	2 250 9                         @ ../../../../Library/StdDriver/src/lcd.c:250:9
	b	.LBB1_6
.LBB1_6:                                @   in Loop: Header=BB1_4 Depth=1
	.loc	2 249 26 is_stmt 1              @ ../../../../Library/StdDriver/src/lcd.c:249:26
	ldr	r0, [sp, #4]
	adds	r0, r0, #1
	str	r0, [sp, #4]
	.loc	2 249 5 is_stmt 0               @ ../../../../Library/StdDriver/src/lcd.c:249:5
	b	.LBB1_4
.Ltmp36:
.LBB1_7:
	.loc	2 251 1 is_stmt 1               @ ../../../../Library/StdDriver/src/lcd.c:251:1
	add	sp, #12
	bx	lr
.Ltmp37:
	.p2align	2
@ %bb.8:
	.loc	2 0 1 is_stmt 0                 @ ../../../../Library/StdDriver/src/lcd.c:0:1
__arm_cp.1_0:
	.long	1074507808                      @ 0x400bb020
.Lcpi_end8:
	.size	__arm_cp.1_0, .Lcpi_end8-__arm_cp.1_0
.Lfunc_end1:
	.size	LCD_SetAllPixels, .Lfunc_end1-LCD_SetAllPixels
	.cfi_endproc
	.cantunwind
	.fnend
                                        @ -- End function
	.section	.text.LCD_Close,"ax",%progbits
	.hidden	LCD_Close                       @ -- Begin function LCD_Close
	.globl	LCD_Close
	.p2align	2
	.type	LCD_Close,%function
	.code	16                              @ @LCD_Close
	.thumb_func
LCD_Close:
.Lfunc_begin2:
	.loc	2 194 0 is_stmt 1               @ ../../../../Library/StdDriver/src/lcd.c:194:0
	.fnstart
	.cfi_startproc
@ %bb.0:
	.loc	2 195 5 prologue_end            @ ../../../../Library/StdDriver/src/lcd.c:195:5
	b	.LBB2_1
.LBB2_1:
	.loc	2 0 5 is_stmt 0                 @ ../../../../Library/StdDriver/src/lcd.c:0:5
	ldr	r1, __arm_cp.2_0
.Ltmp38:
	.loc	2 195 5                         @ ../../../../Library/StdDriver/src/lcd.c:195:5
	ldr	r0, [r1]
	movs	r2, #1
	bics	r0, r2
	str	r0, [r1]
	b	.LBB2_2
.LBB2_2:                                @ =>This Inner Loop Header: Depth=1
	.loc	2 0 5                           @ ../../../../Library/StdDriver/src/lcd.c:0:5
	ldr	r0, __arm_cp.2_0
	.loc	2 195 5                         @ ../../../../Library/StdDriver/src/lcd.c:195:5
	ldr	r0, [r0]
	lsrs	r0, r0, #31
	cbz	r0, .LBB2_4
	b	.LBB2_3
.LBB2_3:                                @   in Loop: Header=BB2_2 Depth=1
	b	.LBB2_2
.LBB2_4:
	b	.LBB2_5
.Ltmp39:
.LBB2_5:
	.loc	2 196 1 is_stmt 1               @ ../../../../Library/StdDriver/src/lcd.c:196:1
	bx	lr
.Ltmp40:
	.p2align	2
@ %bb.6:
	.loc	2 0 1 is_stmt 0                 @ ../../../../Library/StdDriver/src/lcd.c:0:1
__arm_cp.2_0:
	.long	1074507776                      @ 0x400bb000
.Lcpi_end9:
	.size	__arm_cp.2_0, .Lcpi_end9-__arm_cp.2_0
.Lfunc_end2:
	.size	LCD_Close, .Lfunc_end2-LCD_Close
	.cfi_endproc
	.cantunwind
	.fnend
                                        @ -- End function
	.section	.text.LCD_SetPixel,"ax",%progbits
	.hidden	LCD_SetPixel                    @ -- Begin function LCD_SetPixel
	.globl	LCD_SetPixel
	.p2align	2
	.type	LCD_SetPixel,%function
	.code	16                              @ @LCD_SetPixel
	.thumb_func
LCD_SetPixel:
.Lfunc_begin3:
	.loc	2 210 0 is_stmt 1               @ ../../../../Library/StdDriver/src/lcd.c:210:0
	.fnstart
	.cfi_startproc
@ %bb.0:
	.pad	#20
	sub	sp, #20
	.cfi_def_cfa_offset 20
	str	r0, [sp, #16]
	str	r1, [sp, #12]
	str	r2, [sp, #8]
.Ltmp41:
	.loc	2 211 25 prologue_end           @ ../../../../Library/StdDriver/src/lcd.c:211:25
	ldr	r0, [sp, #12]
	.loc	2 211 32 is_stmt 0              @ ../../../../Library/StdDriver/src/lcd.c:211:32
	lsrs	r0, r0, #2
	.loc	2 211 14                        @ ../../../../Library/StdDriver/src/lcd.c:211:14
	str	r0, [sp, #4]
	.loc	2 212 32 is_stmt 1              @ ../../../../Library/StdDriver/src/lcd.c:212:32
	ldr	r0, [sp, #12]
	.loc	2 212 46 is_stmt 0              @ ../../../../Library/StdDriver/src/lcd.c:212:46
	ldr	r1, [sp, #4]
	.loc	2 212 44                        @ ../../../../Library/StdDriver/src/lcd.c:212:44
	lsls	r1, r1, #2
	.loc	2 212 39                        @ ../../../../Library/StdDriver/src/lcd.c:212:39
	subs	r0, r0, r1
	.loc	2 212 29                        @ ../../../../Library/StdDriver/src/lcd.c:212:29
	lsls	r0, r0, #3
	.loc	2 212 14                        @ ../../../../Library/StdDriver/src/lcd.c:212:14
	str	r0, [sp]
.Ltmp42:
	.loc	2 214 9 is_stmt 1               @ ../../../../Library/StdDriver/src/lcd.c:214:9
	ldr	r0, [sp, #4]
.Ltmp43:
	.loc	2 214 9 is_stmt 0               @ ../../../../Library/StdDriver/src/lcd.c:214:9
	cmp	r0, #10
	bhi	.LBB3_5
	b	.LBB3_1
.LBB3_1:
.Ltmp44:
	.loc	2 216 13 is_stmt 1              @ ../../../../Library/StdDriver/src/lcd.c:216:13
	ldr	r0, [sp, #8]
.Ltmp45:
	.loc	2 216 13 is_stmt 0              @ ../../../../Library/StdDriver/src/lcd.c:216:13
	cbz	r0, .LBB3_3
	b	.LBB3_2
.LBB3_2:
.Ltmp46:
	.loc	2 218 52 is_stmt 1              @ ../../../../Library/StdDriver/src/lcd.c:218:52
	ldr	r0, [sp, #16]
	movs	r3, #1
	.loc	2 218 49 is_stmt 0              @ ../../../../Library/StdDriver/src/lcd.c:218:49
	lsls	r3, r0
	.loc	2 218 63                        @ ../../../../Library/StdDriver/src/lcd.c:218:63
	ldr	r0, [sp]
	.loc	2 218 60                        @ ../../../../Library/StdDriver/src/lcd.c:218:60
	lsls	r3, r0
	.loc	2 218 23                        @ ../../../../Library/StdDriver/src/lcd.c:218:23
	ldr	r0, [sp, #4]
	.loc	2 218 13                        @ ../../../../Library/StdDriver/src/lcd.c:218:13
	lsls	r1, r0, #2
	ldr	r2, __arm_cp.3_0
	.loc	2 218 32                        @ ../../../../Library/StdDriver/src/lcd.c:218:32
	ldr	r0, [r1, r2]
	orrs	r0, r3
	str	r0, [r1, r2]
	.loc	2 219 9 is_stmt 1               @ ../../../../Library/StdDriver/src/lcd.c:219:9
	b	.LBB3_4
.Ltmp47:
.LBB3_3:
	.loc	2 222 54                        @ ../../../../Library/StdDriver/src/lcd.c:222:54
	ldr	r0, [sp, #16]
	movs	r3, #1
	.loc	2 222 51 is_stmt 0              @ ../../../../Library/StdDriver/src/lcd.c:222:51
	lsls	r3, r0
	.loc	2 222 65                        @ ../../../../Library/StdDriver/src/lcd.c:222:65
	ldr	r0, [sp]
	.loc	2 222 62                        @ ../../../../Library/StdDriver/src/lcd.c:222:62
	lsls	r3, r0
	.loc	2 222 23                        @ ../../../../Library/StdDriver/src/lcd.c:222:23
	ldr	r0, [sp, #4]
	.loc	2 222 13                        @ ../../../../Library/StdDriver/src/lcd.c:222:13
	lsls	r1, r0, #2
	ldr	r2, __arm_cp.3_0
	.loc	2 222 32                        @ ../../../../Library/StdDriver/src/lcd.c:222:32
	ldr	r0, [r1, r2]
	bics	r0, r3
	str	r0, [r1, r2]
	b	.LBB3_4
.Ltmp48:
.LBB3_4:
	.loc	2 224 5 is_stmt 1               @ ../../../../Library/StdDriver/src/lcd.c:224:5
	b	.LBB3_5
.Ltmp49:
.LBB3_5:
	.loc	2 225 1                         @ ../../../../Library/StdDriver/src/lcd.c:225:1
	add	sp, #20
	bx	lr
.Ltmp50:
	.p2align	2
@ %bb.6:
	.loc	2 0 1 is_stmt 0                 @ ../../../../Library/StdDriver/src/lcd.c:0:1
__arm_cp.3_0:
	.long	1074507808                      @ 0x400bb020
.Lcpi_end10:
	.size	__arm_cp.3_0, .Lcpi_end10-__arm_cp.3_0
.Lfunc_end3:
	.size	LCD_SetPixel, .Lfunc_end3-LCD_SetPixel
	.cfi_endproc
	.cantunwind
	.fnend
                                        @ -- End function
	.section	.text.LCD_EnableBlink,"ax",%progbits
	.hidden	LCD_EnableBlink                 @ -- Begin function LCD_EnableBlink
	.globl	LCD_EnableBlink
	.p2align	2
	.type	LCD_EnableBlink,%function
	.code	16                              @ @LCD_EnableBlink
	.thumb_func
LCD_EnableBlink:
.Lfunc_begin4:
	.loc	2 263 0 is_stmt 1               @ ../../../../Library/StdDriver/src/lcd.c:263:0
	.fnstart
	.cfi_startproc
@ %bb.0:
	.pad	#12
	sub	sp, #12
	.cfi_def_cfa_offset 12
	str	r0, [sp, #8]
	ldr	r0, __arm_cp.4_0
.Ltmp51:
	.loc	2 266 15 prologue_end           @ ../../../../Library/StdDriver/src/lcd.c:266:15
	ldr	r0, [r0]
.Ltmp52:
	.loc	2 266 9 is_stmt 0               @ ../../../../Library/StdDriver/src/lcd.c:266:9
	lsls	r0, r0, #26
	cmp	r0, #0
	bpl	.LBB4_2
	b	.LBB4_1
.LBB4_1:
.Ltmp53:
	.loc	2 269 42 is_stmt 1              @ ../../../../Library/StdDriver/src/lcd.c:269:42
	ldr	r0, __arm_cp.4_1
	ldr	r1, [r0]
	movw	r0, #2000
	.loc	2 269 40 is_stmt 0              @ ../../../../Library/StdDriver/src/lcd.c:269:40
	udiv	r0, r0, r1
	.loc	2 269 27                        @ ../../../../Library/StdDriver/src/lcd.c:269:27
	str	r0, [sp, #4]
	.loc	2 270 5 is_stmt 1               @ ../../../../Library/StdDriver/src/lcd.c:270:5
	b	.LBB4_3
.Ltmp54:
.LBB4_2:
	.loc	2 274 36                        @ ../../../../Library/StdDriver/src/lcd.c:274:36
	ldr	r0, __arm_cp.4_1
	ldr	r1, [r0]
	movw	r0, #1000
	.loc	2 274 34 is_stmt 0              @ ../../../../Library/StdDriver/src/lcd.c:274:34
	udiv	r0, r0, r1
	.loc	2 274 27                        @ ../../../../Library/StdDriver/src/lcd.c:274:27
	str	r0, [sp, #4]
	b	.LBB4_3
.Ltmp55:
.LBB4_3:
	.loc	2 277 24 is_stmt 1              @ ../../../../Library/StdDriver/src/lcd.c:277:24
	ldr	r0, [sp, #8]
	.loc	2 277 32 is_stmt 0              @ ../../../../Library/StdDriver/src/lcd.c:277:32
	ldr	r1, [sp, #4]
	.loc	2 277 30                        @ ../../../../Library/StdDriver/src/lcd.c:277:30
	udiv	r0, r0, r1
	.loc	2 277 21                        @ ../../../../Library/StdDriver/src/lcd.c:277:21
	str	r0, [sp]
.Ltmp56:
	.loc	2 279 9 is_stmt 1               @ ../../../../Library/StdDriver/src/lcd.c:279:9
	ldr	r0, [sp]
.Ltmp57:
	.loc	2 279 9 is_stmt 0               @ ../../../../Library/StdDriver/src/lcd.c:279:9
	cbnz	r0, .LBB4_5
	b	.LBB4_4
.LBB4_4:
	.loc	2 0 9                           @ ../../../../Library/StdDriver/src/lcd.c:0:9
	movs	r0, #1
.Ltmp58:
	.loc	2 280 25 is_stmt 1              @ ../../../../Library/StdDriver/src/lcd.c:280:25
	str	r0, [sp]
	.loc	2 280 9 is_stmt 0               @ ../../../../Library/StdDriver/src/lcd.c:280:9
	b	.LBB4_5
.Ltmp59:
.LBB4_5:
	.loc	2 282 9 is_stmt 1               @ ../../../../Library/StdDriver/src/lcd.c:282:9
	ldr	r0, [sp]
	ldr	r1, __arm_cp.4_2
.Ltmp60:
	.loc	2 282 9 is_stmt 0               @ ../../../../Library/StdDriver/src/lcd.c:282:9
	cmp	r0, r1
	blo	.LBB4_7
	b	.LBB4_6
.LBB4_6:
	.loc	2 0 9                           @ ../../../../Library/StdDriver/src/lcd.c:0:9
	movw	r0, #1024
.Ltmp61:
	.loc	2 283 25 is_stmt 1              @ ../../../../Library/StdDriver/src/lcd.c:283:25
	str	r0, [sp]
	.loc	2 283 9 is_stmt 0               @ ../../../../Library/StdDriver/src/lcd.c:283:9
	b	.LBB4_7
.Ltmp62:
.LBB4_7:
	.loc	2 0 9                           @ ../../../../Library/StdDriver/src/lcd.c:0:9
	ldr	r1, __arm_cp.4_3
	.loc	2 285 5 is_stmt 1               @ ../../../../Library/StdDriver/src/lcd.c:285:5
	ldr	r0, [r1]
	ldr	r2, __arm_cp.4_4
	ands	r0, r2
	ldr	r2, [sp]
	lsls	r2, r2, #8
	movw	r3, #256
	subs	r2, r2, r3
	orrs	r0, r2
	str	r0, [r1]
	.loc	2 288 5                         @ ../../../../Library/StdDriver/src/lcd.c:288:5
	ldr	r0, [r1]
	movs	r2, #1
	orrs	r0, r2
	str	r0, [r1]
	.loc	2 290 13                        @ ../../../../Library/StdDriver/src/lcd.c:290:13
	ldr	r1, [sp, #4]
	.loc	2 290 33 is_stmt 0              @ ../../../../Library/StdDriver/src/lcd.c:290:33
	ldr	r0, [sp]
	.loc	2 290 31                        @ ../../../../Library/StdDriver/src/lcd.c:290:31
	muls	r0, r1, r0
	.loc	2 290 5                         @ ../../../../Library/StdDriver/src/lcd.c:290:5
	add	sp, #12
	bx	lr
.Ltmp63:
	.p2align	2
@ %bb.8:
	.loc	2 0 5                           @ ../../../../Library/StdDriver/src/lcd.c:0:5
__arm_cp.4_0:
	.long	1074507780                      @ 0x400bb004
.Lcpi_end11:
	.size	__arm_cp.4_0, .Lcpi_end11-__arm_cp.4_0
__arm_cp.4_1:
	.long	g_LCDFrameRate
.Lcpi_end12:
	.size	__arm_cp.4_1, .Lcpi_end12-__arm_cp.4_1
__arm_cp.4_2:
	.long	1025                            @ 0x401
.Lcpi_end13:
	.size	__arm_cp.4_2, .Lcpi_end13-__arm_cp.4_2
__arm_cp.4_3:
	.long	1074507784                      @ 0x400bb008
.Lcpi_end14:
	.size	__arm_cp.4_3, .Lcpi_end14-__arm_cp.4_3
__arm_cp.4_4:
	.long	4294705407                      @ 0xfffc00ff
.Lcpi_end15:
	.size	__arm_cp.4_4, .Lcpi_end15-__arm_cp.4_4
.Lfunc_end4:
	.size	LCD_EnableBlink, .Lfunc_end4-LCD_EnableBlink
	.cfi_endproc
	.cantunwind
	.fnend
                                        @ -- End function
	.section	.text.LCD_DisableBlink,"ax",%progbits
	.hidden	LCD_DisableBlink                @ -- Begin function LCD_DisableBlink
	.globl	LCD_DisableBlink
	.p2align	2
	.type	LCD_DisableBlink,%function
	.code	16                              @ @LCD_DisableBlink
	.thumb_func
LCD_DisableBlink:
.Lfunc_begin5:
	.loc	2 299 0 is_stmt 1               @ ../../../../Library/StdDriver/src/lcd.c:299:0
	.fnstart
	.cfi_startproc
@ %bb.0:
	ldr	r1, __arm_cp.5_0
.Ltmp64:
	.loc	2 301 5 prologue_end            @ ../../../../Library/StdDriver/src/lcd.c:301:5
	ldr	r0, [r1]
	movs	r2, #1
	bics	r0, r2
	str	r0, [r1]
	.loc	2 302 1                         @ ../../../../Library/StdDriver/src/lcd.c:302:1
	bx	lr
.Ltmp65:
	.p2align	2
@ %bb.1:
	.loc	2 0 1 is_stmt 0                 @ ../../../../Library/StdDriver/src/lcd.c:0:1
__arm_cp.5_0:
	.long	1074507784                      @ 0x400bb008
.Lcpi_end16:
	.size	__arm_cp.5_0, .Lcpi_end16-__arm_cp.5_0
.Lfunc_end5:
	.size	LCD_DisableBlink, .Lfunc_end5-LCD_DisableBlink
	.cfi_endproc
	.cantunwind
	.fnend
                                        @ -- End function
	.section	.text.LCD_EnableInt,"ax",%progbits
	.hidden	LCD_EnableInt                   @ -- Begin function LCD_EnableInt
	.globl	LCD_EnableInt
	.p2align	2
	.type	LCD_EnableInt,%function
	.code	16                              @ @LCD_EnableInt
	.thumb_func
LCD_EnableInt:
.Lfunc_begin6:
	.loc	2 314 0 is_stmt 1               @ ../../../../Library/StdDriver/src/lcd.c:314:0
	.fnstart
	.cfi_startproc
@ %bb.0:
	.pad	#4
	sub	sp, #4
	.cfi_def_cfa_offset 4
	str	r0, [sp]
.Ltmp66:
	.loc	2 315 20 prologue_end           @ ../../../../Library/StdDriver/src/lcd.c:315:20
	ldr	r2, [sp]
	ldr	r1, __arm_cp.6_0
	.loc	2 315 16 is_stmt 0              @ ../../../../Library/StdDriver/src/lcd.c:315:16
	ldr	r0, [r1]
	orrs	r0, r2
	str	r0, [r1]
	.loc	2 316 1 is_stmt 1               @ ../../../../Library/StdDriver/src/lcd.c:316:1
	add	sp, #4
	bx	lr
.Ltmp67:
	.p2align	2
@ %bb.1:
	.loc	2 0 1 is_stmt 0                 @ ../../../../Library/StdDriver/src/lcd.c:0:1
__arm_cp.6_0:
	.long	1074507800                      @ 0x400bb018
.Lcpi_end17:
	.size	__arm_cp.6_0, .Lcpi_end17-__arm_cp.6_0
.Lfunc_end6:
	.size	LCD_EnableInt, .Lfunc_end6-LCD_EnableInt
	.cfi_endproc
	.cantunwind
	.fnend
                                        @ -- End function
	.section	.text.LCD_DisableInt,"ax",%progbits
	.hidden	LCD_DisableInt                  @ -- Begin function LCD_DisableInt
	.globl	LCD_DisableInt
	.p2align	2
	.type	LCD_DisableInt,%function
	.code	16                              @ @LCD_DisableInt
	.thumb_func
LCD_DisableInt:
.Lfunc_begin7:
	.loc	2 328 0 is_stmt 1               @ ../../../../Library/StdDriver/src/lcd.c:328:0
	.fnstart
	.cfi_startproc
@ %bb.0:
	.pad	#4
	sub	sp, #4
	.cfi_def_cfa_offset 4
	str	r0, [sp]
.Ltmp68:
	.loc	2 329 21 prologue_end           @ ../../../../Library/StdDriver/src/lcd.c:329:21
	ldr	r2, [sp]
	ldr	r1, __arm_cp.7_0
	.loc	2 329 16 is_stmt 0              @ ../../../../Library/StdDriver/src/lcd.c:329:16
	ldr	r0, [r1]
	bics	r0, r2
	str	r0, [r1]
	.loc	2 330 1 is_stmt 1               @ ../../../../Library/StdDriver/src/lcd.c:330:1
	add	sp, #4
	bx	lr
.Ltmp69:
	.p2align	2
@ %bb.1:
	.loc	2 0 1 is_stmt 0                 @ ../../../../Library/StdDriver/src/lcd.c:0:1
__arm_cp.7_0:
	.long	1074507800                      @ 0x400bb018
.Lcpi_end18:
	.size	__arm_cp.7_0, .Lcpi_end18-__arm_cp.7_0
.Lfunc_end7:
	.size	LCD_DisableInt, .Lfunc_end7-LCD_DisableInt
	.cfi_endproc
	.cantunwind
	.fnend
                                        @ -- End function
	.section	.text.LCD_SetSavingMode,"ax",%progbits
	.hidden	LCD_SetSavingMode               @ -- Begin function LCD_SetSavingMode
	.globl	LCD_SetSavingMode
	.p2align	2
	.type	LCD_SetSavingMode,%function
	.code	16                              @ @LCD_SetSavingMode
	.thumb_func
LCD_SetSavingMode:
.Lfunc_begin8:
	.loc	2 350 0 is_stmt 1               @ ../../../../Library/StdDriver/src/lcd.c:350:0
	.fnstart
	.cfi_startproc
@ %bb.0:
	.pad	#84
	sub	sp, #84
	.cfi_def_cfa_offset 84
	str	r0, [sp, #80]
	str	r1, [sp, #76]
	movs	r0, #50
.Ltmp70:
	.loc	2 352 14 prologue_end           @ ../../../../Library/StdDriver/src/lcd.c:352:14
	str	r0, [sp, #52]
	movs	r0, #1
	.loc	2 353 14                        @ ../../../../Library/StdDriver/src/lcd.c:353:14
	str	r0, [sp, #48]
	str	r0, [sp, #44]
	str	r0, [sp, #40]
	str	r0, [sp, #36]
	ldr	r0, __arm_cp.8_0
	.loc	2 355 24                        @ ../../../../Library/StdDriver/src/lcd.c:355:24
	ldr	r0, [r0]
	ldr	r1, __arm_cp.8_1
	.loc	2 355 29 is_stmt 0              @ ../../../../Library/StdDriver/src/lcd.c:355:29
	ands	r0, r1
	.loc	2 355 53                        @ ../../../../Library/StdDriver/src/lcd.c:355:53
	lsrs	r0, r0, #8
	.loc	2 355 16                        @ ../../../../Library/StdDriver/src/lcd.c:355:16
	str	r0, [sp, #64]
	ldr	r0, __arm_cp.8_2
.Ltmp71:
	.loc	2 358 16 is_stmt 1              @ ../../../../Library/StdDriver/src/lcd.c:358:16
	ldr	r0, [r0]
.Ltmp72:
	.loc	2 358 9 is_stmt 0               @ ../../../../Library/StdDriver/src/lcd.c:358:9
	lsls	r0, r0, #7
	cmp	r0, #0
	bmi	.LBB8_2
	b	.LBB8_1
.LBB8_1:
	.loc	2 0 9                           @ ../../../../Library/StdDriver/src/lcd.c:0:9
	movw	r0, #38400
.Ltmp73:
	.loc	2 360 21 is_stmt 1              @ ../../../../Library/StdDriver/src/lcd.c:360:21
	str	r0, [sp, #60]
	.loc	2 361 5                         @ ../../../../Library/StdDriver/src/lcd.c:361:5
	b	.LBB8_3
.Ltmp74:
.LBB8_2:
	.loc	2 0 5 is_stmt 0                 @ ../../../../Library/StdDriver/src/lcd.c:0:5
	movw	r0, #32768
.Ltmp75:
	.loc	2 364 21 is_stmt 1              @ ../../../../Library/StdDriver/src/lcd.c:364:21
	str	r0, [sp, #60]
	b	.LBB8_3
.Ltmp76:
.LBB8_3:
	.loc	2 368 18                        @ ../../../../Library/StdDriver/src/lcd.c:368:18
	ldr	r0, [sp, #60]
	.loc	2 368 33 is_stmt 0              @ ../../../../Library/StdDriver/src/lcd.c:368:33
	ldr	r1, [sp, #64]
	.loc	2 368 44                        @ ../../../../Library/StdDriver/src/lcd.c:368:44
	adds	r1, r1, #1
	.loc	2 368 30                        @ ../../../../Library/StdDriver/src/lcd.c:368:30
	udiv	r0, r0, r1
	.loc	2 368 16                        @ ../../../../Library/StdDriver/src/lcd.c:368:16
	str	r0, [sp, #68]
	.loc	2 371 32 is_stmt 1              @ ../../../../Library/StdDriver/src/lcd.c:371:32
	ldr	r1, [sp, #68]
	ldr	r0, __arm_cp.8_3
	.loc	2 371 30 is_stmt 0              @ ../../../../Library/StdDriver/src/lcd.c:371:30
	udiv	r0, r0, r1
	.loc	2 371 18                        @ ../../../../Library/StdDriver/src/lcd.c:371:18
	str	r0, [sp, #56]
.Ltmp77:
	.loc	2 374 9 is_stmt 1               @ ../../../../Library/StdDriver/src/lcd.c:374:9
	ldr	r0, [sp, #56]
	.loc	2 374 24 is_stmt 0              @ ../../../../Library/StdDriver/src/lcd.c:374:24
	ldr	r1, [sp, #52]
.Ltmp78:
	.loc	2 374 9                         @ ../../../../Library/StdDriver/src/lcd.c:374:9
	cmp	r0, r1
	bhs	.LBB8_5
	b	.LBB8_4
.LBB8_4:
.Ltmp79:
	.loc	2 377 5 is_stmt 1               @ ../../../../Library/StdDriver/src/lcd.c:377:5
	b	.LBB8_34
.Ltmp80:
.LBB8_5:
	.loc	2 381 13                        @ ../../../../Library/StdDriver/src/lcd.c:381:13
	ldr	r0, [sp, #56]
	.loc	2 381 29 is_stmt 0              @ ../../../../Library/StdDriver/src/lcd.c:381:29
	ldr	r1, [sp, #52]
	.loc	2 381 44                        @ ../../../../Library/StdDriver/src/lcd.c:381:44
	lsls	r1, r1, #4
.Ltmp81:
	.loc	2 381 13                        @ ../../../../Library/StdDriver/src/lcd.c:381:13
	cmp	r0, r1
	bls	.LBB8_7
	b	.LBB8_6
.LBB8_6:
	.loc	2 0 13                          @ ../../../../Library/StdDriver/src/lcd.c:0:13
	movs	r0, #16
.Ltmp82:
	.loc	2 384 32 is_stmt 1              @ ../../../../Library/StdDriver/src/lcd.c:384:32
	str	r0, [sp, #48]
	.loc	2 385 9                         @ ../../../../Library/StdDriver/src/lcd.c:385:9
	b	.LBB8_8
.Ltmp83:
.LBB8_7:
	.loc	2 389 34                        @ ../../../../Library/StdDriver/src/lcd.c:389:34
	ldr	r0, [sp, #56]
	.loc	2 389 49 is_stmt 0              @ ../../../../Library/StdDriver/src/lcd.c:389:49
	ldr	r1, [sp, #52]
	.loc	2 389 47                        @ ../../../../Library/StdDriver/src/lcd.c:389:47
	udiv	r0, r0, r1
	.loc	2 389 32                        @ ../../../../Library/StdDriver/src/lcd.c:389:32
	str	r0, [sp, #48]
	b	.LBB8_8
.Ltmp84:
.LBB8_8:
	.loc	2 392 30 is_stmt 1              @ ../../../../Library/StdDriver/src/lcd.c:392:30
	ldr	r1, [sp, #48]
	movs	r0, #3
	.loc	2 392 49 is_stmt 0              @ ../../../../Library/StdDriver/src/lcd.c:392:49
	muls	r0, r1, r0
	.loc	2 392 55                        @ ../../../../Library/StdDriver/src/lcd.c:392:55
	lsrs	r0, r0, #2
	.loc	2 392 28                        @ ../../../../Library/StdDriver/src/lcd.c:392:28
	str	r0, [sp, #44]
	.loc	2 393 30 is_stmt 1              @ ../../../../Library/StdDriver/src/lcd.c:393:30
	ldr	r0, [sp, #48]
	.loc	2 393 55 is_stmt 0              @ ../../../../Library/StdDriver/src/lcd.c:393:55
	lsls	r0, r0, #1
	lsrs	r0, r0, #2
	.loc	2 393 28                        @ ../../../../Library/StdDriver/src/lcd.c:393:28
	str	r0, [sp, #40]
	.loc	2 394 30 is_stmt 1              @ ../../../../Library/StdDriver/src/lcd.c:394:30
	ldr	r0, [sp, #48]
	.loc	2 394 55 is_stmt 0              @ ../../../../Library/StdDriver/src/lcd.c:394:55
	lsrs	r0, r0, #2
	.loc	2 394 28                        @ ../../../../Library/StdDriver/src/lcd.c:394:28
	str	r0, [sp, #36]
	movs	r0, #0
.Ltmp85:
	.loc	2 397 16 is_stmt 1              @ ../../../../Library/StdDriver/src/lcd.c:397:16
	str	r0, [sp, #72]
	.loc	2 397 14 is_stmt 0              @ ../../../../Library/StdDriver/src/lcd.c:397:14
	b	.LBB8_9
.LBB8_9:                                @ =>This Inner Loop Header: Depth=1
.Ltmp86:
	.loc	2 397 23                        @ ../../../../Library/StdDriver/src/lcd.c:397:23
	ldr	r0, [sp, #72]
.Ltmp87:
	.loc	2 397 9                         @ ../../../../Library/StdDriver/src/lcd.c:397:9
	cmp	r0, #3
	bhi	.LBB8_14
	b	.LBB8_10
.LBB8_10:                               @   in Loop: Header=BB8_9 Depth=1
.Ltmp88:
	.loc	2 399 33 is_stmt 1              @ ../../../../Library/StdDriver/src/lcd.c:399:33
	ldr	r0, [sp, #72]
	.loc	2 399 17 is_stmt 0              @ ../../../../Library/StdDriver/src/lcd.c:399:17
	lsls	r1, r0, #2
	add	r0, sp, #36
	ldr	r0, [r0, r1]
.Ltmp89:
	.loc	2 399 17                        @ ../../../../Library/StdDriver/src/lcd.c:399:17
	cbnz	r0, .LBB8_12
	b	.LBB8_11
.LBB8_11:                               @   in Loop: Header=BB8_9 Depth=1
.Ltmp90:
	.loc	2 401 33 is_stmt 1              @ ../../../../Library/StdDriver/src/lcd.c:401:33
	ldr	r0, [sp, #72]
	.loc	2 401 17 is_stmt 0              @ ../../../../Library/StdDriver/src/lcd.c:401:17
	lsls	r2, r0, #2
	add	r1, sp, #36
	movs	r0, #1
	.loc	2 401 36                        @ ../../../../Library/StdDriver/src/lcd.c:401:36
	str	r0, [r1, r2]
	.loc	2 402 13 is_stmt 1              @ ../../../../Library/StdDriver/src/lcd.c:402:13
	b	.LBB8_12
.Ltmp91:
.LBB8_12:                               @   in Loop: Header=BB8_9 Depth=1
	.loc	2 403 9                         @ ../../../../Library/StdDriver/src/lcd.c:403:9
	b	.LBB8_13
.Ltmp92:
.LBB8_13:                               @   in Loop: Header=BB8_9 Depth=1
	.loc	2 397 33                        @ ../../../../Library/StdDriver/src/lcd.c:397:33
	ldr	r0, [sp, #72]
	adds	r0, r0, #1
	str	r0, [sp, #72]
	.loc	2 397 9 is_stmt 0               @ ../../../../Library/StdDriver/src/lcd.c:397:9
	b	.LBB8_9
.Ltmp93:
.LBB8_14:
	.loc	2 405 13 is_stmt 1              @ ../../../../Library/StdDriver/src/lcd.c:405:13
	ldr	r0, [sp, #80]
.Ltmp94:
	.loc	2 405 13 is_stmt 0              @ ../../../../Library/StdDriver/src/lcd.c:405:13
	cbz	r0, .LBB8_15
	b	.LBB8_24
.LBB8_15:
.Ltmp95:
	.loc	2 408 21 is_stmt 1              @ ../../../../Library/StdDriver/src/lcd.c:408:21
	ldr	r0, [sp, #76]
	.loc	2 408 13 is_stmt 0              @ ../../../../Library/StdDriver/src/lcd.c:408:13
	str	r0, [sp, #32]                   @ 4-byte Spill
	cmp	r0, #3
	bls	.LBB8_16
	b	.LBB8_22
.LBB8_16:
	.loc	2 0 13                          @ ../../../../Library/StdDriver/src/lcd.c:0:13
	ldr	r1, [sp, #32]                   @ 4-byte Reload
	lsls	r2, r1, #2
	adr	r0, .LJTI8_1
	adds	r0, r0, r2
	mov	pc, r0
@ %bb.17:
	.p2align	2
.LJTI8_1:
	b.w	.LBB8_18
	b.w	.LBB8_19
	b.w	.LBB8_20
	b.w	.LBB8_21
.LBB8_18:
	ldr	r1, __arm_cp.8_4
.Ltmp96:
	.loc	2 411 21 is_stmt 1              @ ../../../../Library/StdDriver/src/lcd.c:411:21
	str	r1, [sp, #28]                   @ 4-byte Spill
	ldr	r0, [r1]
	movs	r2, #20
	orrs	r0, r2
	movs	r2, #8
	bics	r0, r2
	str	r0, [r1]
	.loc	2 412 21                        @ ../../../../Library/StdDriver/src/lcd.c:412:21
	ldr	r0, [r1]
	movs	r2, #32
	bics	r0, r2
	str	r0, [r1]
	.loc	2 413 21                        @ ../../../../Library/StdDriver/src/lcd.c:413:21
	ldr	r0, [r1]
	movw	r2, #3840
	bics	r0, r2
	ldr	r2, [sp, #36]
	lsls	r2, r2, #8
	movw	r3, #256
	subs	r2, r2, r3
	orrs	r0, r2
	str	r0, [r1]
	.loc	2 414 21                        @ ../../../../Library/StdDriver/src/lcd.c:414:21
	ldr	r0, [r1]
	movw	r2, #61440
	bics	r0, r2
	ldr	r2, [sp, #36]
	lsls	r2, r2, #12
	movw	r3, #4096
	subs	r2, r2, r3
	orrs	r0, r2
	str	r0, [r1]
	.loc	2 415 21                        @ ../../../../Library/StdDriver/src/lcd.c:415:21
	b	.LBB8_23
.LBB8_19:
	.loc	2 0 21 is_stmt 0                @ ../../../../Library/StdDriver/src/lcd.c:0:21
	ldr	r1, __arm_cp.8_4
	.loc	2 418 21 is_stmt 1              @ ../../../../Library/StdDriver/src/lcd.c:418:21
	str	r1, [sp, #24]                   @ 4-byte Spill
	ldr	r0, [r1]
	movs	r2, #20
	orrs	r0, r2
	movs	r2, #8
	bics	r0, r2
	str	r0, [r1]
	.loc	2 419 21                        @ ../../../../Library/StdDriver/src/lcd.c:419:21
	ldr	r0, [r1]
	movs	r2, #32
	bics	r0, r2
	str	r0, [r1]
	.loc	2 420 21                        @ ../../../../Library/StdDriver/src/lcd.c:420:21
	ldr	r0, [r1]
	movw	r2, #3840
	bics	r0, r2
	ldr	r2, [sp, #48]
	lsls	r2, r2, #8
	movw	r3, #256
	subs	r2, r2, r3
	orrs	r0, r2
	str	r0, [r1]
	.loc	2 421 21                        @ ../../../../Library/StdDriver/src/lcd.c:421:21
	ldr	r0, [r1]
	movw	r2, #61440
	bics	r0, r2
	ldr	r2, [sp, #48]
	lsls	r2, r2, #12
	movw	r3, #4096
	subs	r2, r2, r3
	orrs	r0, r2
	str	r0, [r1]
	.loc	2 422 21                        @ ../../../../Library/StdDriver/src/lcd.c:422:21
	b	.LBB8_23
.LBB8_20:
	.loc	2 0 21 is_stmt 0                @ ../../../../Library/StdDriver/src/lcd.c:0:21
	ldr	r1, __arm_cp.8_4
	.loc	2 425 21 is_stmt 1              @ ../../../../Library/StdDriver/src/lcd.c:425:21
	str	r1, [sp, #20]                   @ 4-byte Spill
	ldr	r0, [r1]
	movs	r2, #20
	orrs	r0, r2
	movs	r2, #8
	bics	r0, r2
	str	r0, [r1]
	.loc	2 426 21                        @ ../../../../Library/StdDriver/src/lcd.c:426:21
	ldr	r0, [r1]
	movs	r2, #32
	orrs	r0, r2
	str	r0, [r1]
	.loc	2 427 21                        @ ../../../../Library/StdDriver/src/lcd.c:427:21
	ldr	r0, [r1]
	movw	r2, #3840
	bics	r0, r2
	ldr	r2, [sp, #36]
	lsls	r2, r2, #8
	movw	r3, #256
	subs	r2, r2, r3
	orrs	r0, r2
	str	r0, [r1]
	.loc	2 428 21                        @ ../../../../Library/StdDriver/src/lcd.c:428:21
	ldr	r0, [r1]
	movw	r2, #61440
	bics	r0, r2
	ldr	r2, [sp, #36]
	lsls	r2, r2, #12
	movw	r3, #4096
	subs	r2, r2, r3
	orrs	r0, r2
	str	r0, [r1]
	.loc	2 429 21                        @ ../../../../Library/StdDriver/src/lcd.c:429:21
	b	.LBB8_23
.LBB8_21:
	.loc	2 0 21 is_stmt 0                @ ../../../../Library/StdDriver/src/lcd.c:0:21
	ldr	r1, __arm_cp.8_4
	.loc	2 432 21 is_stmt 1              @ ../../../../Library/StdDriver/src/lcd.c:432:21
	ldr	r0, [r1]
	movs	r2, #4
	orrs	r0, r2
	movs	r2, #24
	bics	r0, r2
	str	r0, [r1]
	.loc	2 433 21                        @ ../../../../Library/StdDriver/src/lcd.c:433:21
	ldr	r0, [r1]
	movs	r2, #32
	bics	r0, r2
	str	r0, [r1]
	.loc	2 434 21                        @ ../../../../Library/StdDriver/src/lcd.c:434:21
	b	.LBB8_23
.LBB8_22:
	.loc	2 437 21                        @ ../../../../Library/StdDriver/src/lcd.c:437:21
	b	.LBB8_23
.Ltmp97:
.LBB8_23:
	.loc	2 439 9                         @ ../../../../Library/StdDriver/src/lcd.c:439:9
	b	.LBB8_33
.Ltmp98:
.LBB8_24:
	.loc	2 443 21                        @ ../../../../Library/StdDriver/src/lcd.c:443:21
	ldr	r0, [sp, #76]
	.loc	2 443 13 is_stmt 0              @ ../../../../Library/StdDriver/src/lcd.c:443:13
	str	r0, [sp, #16]                   @ 4-byte Spill
	cmp	r0, #3
	bls	.LBB8_25
	b	.LBB8_31
.LBB8_25:
	.loc	2 0 13                          @ ../../../../Library/StdDriver/src/lcd.c:0:13
	ldr	r1, [sp, #16]                   @ 4-byte Reload
	lsls	r2, r1, #2
	adr	r0, .LJTI8_0
	adds	r0, r0, r2
	mov	pc, r0
@ %bb.26:
	.p2align	2
.LJTI8_0:
	b.w	.LBB8_27
	b.w	.LBB8_28
	b.w	.LBB8_29
	b.w	.LBB8_30
.LBB8_27:
	ldr	r1, __arm_cp.8_4
.Ltmp99:
	.loc	2 446 21 is_stmt 1              @ ../../../../Library/StdDriver/src/lcd.c:446:21
	str	r1, [sp, #12]                   @ 4-byte Spill
	ldr	r0, [r1]
	movs	r2, #24
	orrs	r0, r2
	movs	r2, #4
	bics	r0, r2
	str	r0, [r1]
	.loc	2 447 21                        @ ../../../../Library/StdDriver/src/lcd.c:447:21
	ldr	r0, [r1]
	movs	r2, #32
	orrs	r0, r2
	str	r0, [r1]
	.loc	2 448 21                        @ ../../../../Library/StdDriver/src/lcd.c:448:21
	ldr	r0, [r1]
	movw	r2, #3840
	bics	r0, r2
	ldr	r2, [sp, #48]
	lsls	r2, r2, #8
	movw	r3, #256
	subs	r2, r2, r3
	orrs	r0, r2
	str	r0, [r1]
	.loc	2 449 21                        @ ../../../../Library/StdDriver/src/lcd.c:449:21
	ldr	r0, [r1]
	movw	r2, #61440
	bics	r0, r2
	ldr	r2, [sp, #48]
	lsls	r2, r2, #12
	movw	r3, #4096
	subs	r2, r2, r3
	orrs	r0, r2
	str	r0, [r1]
	.loc	2 450 21                        @ ../../../../Library/StdDriver/src/lcd.c:450:21
	b	.LBB8_32
.LBB8_28:
	.loc	2 0 21 is_stmt 0                @ ../../../../Library/StdDriver/src/lcd.c:0:21
	ldr	r1, __arm_cp.8_4
	.loc	2 453 21 is_stmt 1              @ ../../../../Library/StdDriver/src/lcd.c:453:21
	str	r1, [sp, #8]                    @ 4-byte Spill
	ldr	r0, [r1]
	movs	r2, #24
	orrs	r0, r2
	movs	r2, #4
	bics	r0, r2
	str	r0, [r1]
	.loc	2 454 21                        @ ../../../../Library/StdDriver/src/lcd.c:454:21
	ldr	r0, [r1]
	movs	r2, #32
	orrs	r0, r2
	str	r0, [r1]
	.loc	2 455 21                        @ ../../../../Library/StdDriver/src/lcd.c:455:21
	ldr	r0, [r1]
	movw	r2, #3840
	bics	r0, r2
	ldr	r2, [sp, #44]
	lsls	r2, r2, #8
	movw	r3, #256
	subs	r2, r2, r3
	orrs	r0, r2
	str	r0, [r1]
	.loc	2 456 21                        @ ../../../../Library/StdDriver/src/lcd.c:456:21
	ldr	r0, [r1]
	movw	r2, #61440
	bics	r0, r2
	ldr	r2, [sp, #44]
	lsls	r2, r2, #12
	movw	r3, #4096
	subs	r2, r2, r3
	orrs	r0, r2
	str	r0, [r1]
	.loc	2 457 21                        @ ../../../../Library/StdDriver/src/lcd.c:457:21
	b	.LBB8_32
.LBB8_29:
	.loc	2 0 21 is_stmt 0                @ ../../../../Library/StdDriver/src/lcd.c:0:21
	ldr	r1, __arm_cp.8_4
	.loc	2 460 21 is_stmt 1              @ ../../../../Library/StdDriver/src/lcd.c:460:21
	str	r1, [sp, #4]                    @ 4-byte Spill
	ldr	r0, [r1]
	movs	r2, #24
	orrs	r0, r2
	movs	r2, #4
	bics	r0, r2
	str	r0, [r1]
	.loc	2 461 21                        @ ../../../../Library/StdDriver/src/lcd.c:461:21
	ldr	r0, [r1]
	movs	r2, #32
	orrs	r0, r2
	str	r0, [r1]
	.loc	2 462 21                        @ ../../../../Library/StdDriver/src/lcd.c:462:21
	ldr	r0, [r1]
	movw	r2, #3840
	bics	r0, r2
	ldr	r2, [sp, #40]
	lsls	r2, r2, #8
	movw	r3, #256
	subs	r2, r2, r3
	orrs	r0, r2
	str	r0, [r1]
	.loc	2 463 21                        @ ../../../../Library/StdDriver/src/lcd.c:463:21
	ldr	r0, [r1]
	movw	r2, #61440
	bics	r0, r2
	ldr	r2, [sp, #40]
	lsls	r2, r2, #12
	movw	r3, #4096
	subs	r2, r2, r3
	orrs	r0, r2
	str	r0, [r1]
	.loc	2 464 21                        @ ../../../../Library/StdDriver/src/lcd.c:464:21
	b	.LBB8_32
.LBB8_30:
	.loc	2 0 21 is_stmt 0                @ ../../../../Library/StdDriver/src/lcd.c:0:21
	ldr	r1, __arm_cp.8_4
	.loc	2 467 21 is_stmt 1              @ ../../../../Library/StdDriver/src/lcd.c:467:21
	str	r1, [sp]                        @ 4-byte Spill
	ldr	r0, [r1]
	movs	r2, #24
	orrs	r0, r2
	movs	r2, #4
	bics	r0, r2
	str	r0, [r1]
	.loc	2 468 21                        @ ../../../../Library/StdDriver/src/lcd.c:468:21
	ldr	r0, [r1]
	movs	r2, #32
	orrs	r0, r2
	str	r0, [r1]
	.loc	2 469 21                        @ ../../../../Library/StdDriver/src/lcd.c:469:21
	ldr	r0, [r1]
	movw	r2, #3840
	bics	r0, r2
	ldr	r2, [sp, #36]
	lsls	r2, r2, #8
	movw	r3, #256
	subs	r2, r2, r3
	orrs	r0, r2
	str	r0, [r1]
	.loc	2 470 21                        @ ../../../../Library/StdDriver/src/lcd.c:470:21
	ldr	r0, [r1]
	movw	r2, #61440
	bics	r0, r2
	ldr	r2, [sp, #36]
	lsls	r2, r2, #12
	movw	r3, #4096
	subs	r2, r2, r3
	orrs	r0, r2
	str	r0, [r1]
	.loc	2 471 21                        @ ../../../../Library/StdDriver/src/lcd.c:471:21
	b	.LBB8_32
.LBB8_31:
	.loc	2 474 21                        @ ../../../../Library/StdDriver/src/lcd.c:474:21
	b	.LBB8_32
.Ltmp100:
.LBB8_32:
	.loc	2 0 21 is_stmt 0                @ ../../../../Library/StdDriver/src/lcd.c:0:21
	b	.LBB8_33
.LBB8_33:
	b	.LBB8_34
.LBB8_34:
	.loc	2 478 1 is_stmt 1               @ ../../../../Library/StdDriver/src/lcd.c:478:1
	add	sp, #84
	bx	lr
.Ltmp101:
	.p2align	2
@ %bb.35:
	.loc	2 0 1 is_stmt 0                 @ ../../../../Library/StdDriver/src/lcd.c:0:1
__arm_cp.8_0:
	.long	1074507780                      @ 0x400bb004
.Lcpi_end19:
	.size	__arm_cp.8_0, .Lcpi_end19-__arm_cp.8_0
__arm_cp.8_1:
	.long	261888                          @ 0x3ff00
.Lcpi_end20:
	.size	__arm_cp.8_1, .Lcpi_end20-__arm_cp.8_1
__arm_cp.8_2:
	.long	1073742360                      @ 0x40000218
.Lcpi_end21:
	.size	__arm_cp.8_2, .Lcpi_end21-__arm_cp.8_2
__arm_cp.8_3:
	.long	1000000                         @ 0xf4240
.Lcpi_end22:
	.size	__arm_cp.8_3, .Lcpi_end22-__arm_cp.8_3
__arm_cp.8_4:
	.long	1074507788                      @ 0x400bb00c
.Lcpi_end23:
	.size	__arm_cp.8_4, .Lcpi_end23-__arm_cp.8_4
.Lfunc_end8:
	.size	LCD_SetSavingMode, .Lfunc_end8-LCD_SetSavingMode
	.cfi_endproc
	.cantunwind
	.fnend
                                        @ -- End function
	.type	g_LCDFrameRate,%object          @ @g_LCDFrameRate
	.section	.bss.g_LCDFrameRate,"aw",%nobits
	.p2align	2, 0x0
g_LCDFrameRate:
	.long	0                               @ 0x0
	.size	g_LCDFrameRate, 4

	.type	.L__const.LCD_SetSavingMode.u32PSVTBoundary,%object @ @__const.LCD_SetSavingMode.u32PSVTBoundary
	.section	.rodata.cst16,"aM",%progbits,16
	.p2align	2, 0x0
.L__const.LCD_SetSavingMode.u32PSVTBoundary:
	.long	1                               @ 0x1
	.long	1                               @ 0x1
	.long	1                               @ 0x1
	.long	1                               @ 0x1
	.size	.L__const.LCD_SetSavingMode.u32PSVTBoundary, 16

	.file	5 "E:\\ROBOCON2024\\01. Coding\\Nuvoton\\demo_robot_3wheel\\SampleCode\\NuCodeGen\\DemoCodeGen\\KEIL" "../../../../Library/StdDriver/inc\\lcd.h"
	.section	".note.GNU-stack","",%progbits
	.eabi_attribute	30, 6	@ Tag_ABI_optimization_goals
	.ARM_attribute	16, 1	@ Tag_AV_eba