	.text
	.syntax unified
	.eabi_attribute	67, "2.09"	@ Tag_conformance
	.cpu	cortex-m23
	.eabi_attribute	6, 16	@ Tag_CPU_arch
	.eabi_attribute	7, 77	@ Tag_CPU_arch_profile
	.eabi_attribute	8, 0	@ Tag_ARM_ISA_use
	.eabi_attribute	9, 3	@ Tag_THUMB_ISA_use
	.eabi_attribute	34, 0	@ Tag_CPU_unaligned_access
	.eabi_attribute	17, 1	@ Tag_ABI_PCS_GOT_use
	.eabi_attribute	20, 2	@ Tag_ABI_FP_denormal
	.eabi_attribute	21, 0	@ Tag_ABI_FP_exceptions
	.eabi_attribute	23, 1	@ Tag_ABI_FP_number_model
	.eabi_attribute	24, 1	@ Tag_ABI_align_needed
	.eabi_attribute	25, 1	@ Tag_ABI_align_preserved
	.eabi_attribute	38, 1	@ Tag_ABI_FP_16bit_format
	.eabi_attribute	18, 2	@ Tag_ABI_PCS_wchar_t
	.eabi_attribute	26, 1	@ Tag_ABI_enum_size
	.eabi_attribute	14, 0	@ Tag_ABI_PCS_R9_use
	.file	"main.c"
	.file	1 "C:\\Keil_v5\\ARM\\ARMCLANG\\Bin\\..\\include" "stdint.h"
	.file	2 "C:\\Users\\ADMIN\\Documents\\GitHub\\Training-Nuvoton-ABU-Robocon-2024\\SampleCode\\NuCodeGen\\DemoCodeGen\\KEIL" "../modbus_func.c"
	.file	3 "C:\\Users\\ADMIN\\Documents\\GitHub\\Training-Nuvoton-ABU-Robocon-2024\\SampleCode\\NuCodeGen\\DemoCodeGen\\KEIL" "../imu_func.c"
	.file	4 "C:\\Users\\ADMIN\\Documents\\GitHub\\Training-Nuvoton-ABU-Robocon-2024\\SampleCode\\NuCodeGen\\DemoCodeGen\\KEIL" "../../../../Library/Device/Nuvoton/M251/Include/timer_reg.h"
	.file	5 "C:\\Users\\ADMIN\\Documents\\GitHub\\Training-Nuvoton-ABU-Robocon-2024\\SampleCode\\NuCodeGen\\DemoCodeGen\\KEIL" "../../../../Library/Device/Nuvoton/M251/Include/sys_reg.h"
	.file	6 "C:\\Users\\ADMIN\\Documents\\GitHub\\Training-Nuvoton-ABU-Robocon-2024\\SampleCode\\NuCodeGen\\DemoCodeGen\\KEIL" "../../../../Library/Device/Nuvoton/M251/Include/uart_reg.h"
	.section	.text.System_Init,"ax",%progbits
	.hidden	System_Init                     @ -- Begin function System_Init
	.globl	System_Init
	.p2align	1
	.type	System_Init,%function
	.code	16                              @ @System_Init
	.thumb_func
System_Init:
.Lfunc_begin0:
	.file	7 "C:\\Users\\ADMIN\\Documents\\GitHub\\Training-Nuvoton-ABU-Robocon-2024\\SampleCode\\NuCodeGen\\DemoCodeGen\\KEIL" "../main.c"
	.loc	7 33 0                          @ ../main.c:33:0
	.fnstart
	.cfi_sections .debug_frame
	.cfi_startproc
@ %bb.0:
	.save	{r7, lr}
	push	{r7, lr}
	.cfi_def_cfa_offset 8
	.cfi_offset lr, -4
	.cfi_offset r7, -8
.Ltmp0:
	.loc	7 35 5 prologue_end             @ ../main.c:35:5
	bl	SYS_UnlockReg
	.loc	7 37 5                          @ ../main.c:37:5
	bl	Clock_Init
	.loc	7 38 5                          @ ../main.c:38:5
	bl	Pin_Init
	.loc	7 39 5                          @ ../main.c:39:5
	bl	Periph_Init
	.loc	7 42 5                          @ ../main.c:42:5
	bl	SYS_LockReg
	.loc	7 43 1                          @ ../main.c:43:1
	pop	{r7, pc}
.Ltmp1:
.Lfunc_end0:
	.size	System_Init, .Lfunc_end0-System_Init
	.cfi_endproc
	.cantunwind
	.fnend
                                        @ -- End function
	.section	.text.SYS_UnlockReg,"ax",%progbits
	.p2align	2                               @ -- Begin function SYS_UnlockReg
	.type	SYS_UnlockReg,%function
	.code	16                              @ @SYS_UnlockReg
	.thumb_func
SYS_UnlockReg:
.Lfunc_begin1:
	.file	8 "C:\\Users\\ADMIN\\Documents\\GitHub\\Training-Nuvoton-ABU-Robocon-2024\\SampleCode\\NuCodeGen\\DemoCodeGen\\KEIL" "../../../../Library/StdDriver/inc\\sys.h"
	.loc	8 1313 0                        @ ../../../../Library/StdDriver/inc\sys.h:1313:0
	.fnstart
	.cfi_startproc
@ %bb.0:
	.loc	8 1314 5 prologue_end           @ ../../../../Library/StdDriver/inc\sys.h:1314:5
	b	.LBB1_1
.LBB1_1:                                @ =>This Inner Loop Header: Depth=1
	.loc	8 0 5 is_stmt 0                 @ ../../../../Library/StdDriver/inc\sys.h:0:5
	ldr	r1, __arm_cp.1_0
	movs	r0, #89
.Ltmp2:
	.loc	8 1316 22 is_stmt 1             @ ../../../../Library/StdDriver/inc\sys.h:1316:22
	str	r0, [r1]
	movs	r0, #22
	.loc	8 1317 22                       @ ../../../../Library/StdDriver/inc\sys.h:1317:22
	str	r0, [r1]
	movs	r0, #136
	.loc	8 1318 22                       @ ../../../../Library/StdDriver/inc\sys.h:1318:22
	str	r0, [r1]
	.loc	8 1319 5                        @ ../../../../Library/StdDriver/inc\sys.h:1319:5
	b	.LBB1_2
.Ltmp3:
.LBB1_2:                                @   in Loop: Header=BB1_1 Depth=1
	.loc	8 0 5 is_stmt 0                 @ ../../../../Library/StdDriver/inc\sys.h:0:5
	ldr	r0, __arm_cp.1_0
	.loc	8 1319 19                       @ ../../../../Library/StdDriver/inc\sys.h:1319:19
	ldr	r0, [r0]
.Ltmp4:
	.loc	8 1319 5                        @ ../../../../Library/StdDriver/inc\sys.h:1319:5
	cmp	r0, #0
	beq	.LBB1_1
	b	.LBB1_3
.Ltmp5:
.LBB1_3:
	.loc	8 1320 1 is_stmt 1              @ ../../../../Library/StdDriver/inc\sys.h:1320:1
	bx	lr
.Ltmp6:
	.p2align	2
@ %bb.4:
	.loc	8 0 1 is_stmt 0                 @ ../../../../Library/StdDriver/inc\sys.h:0:1
__arm_cp.1_0:
	.long	1073742080                      @ 0x40000100
.Lcpi_end0:
	.size	__arm_cp.1_0, .Lcpi_end0-__arm_cp.1_0
.Lfunc_end1:
	.size	SYS_UnlockReg, .Lfunc_end1-SYS_UnlockReg
	.cfi_endproc
	.cantunwind
	.fnend
                                        @ -- End function
	.section	.text.SYS_LockReg,"ax",%progbits
	.p2align	2                               @ -- Begin function SYS_LockReg
	.type	SYS_LockReg,%function
	.code	16                              @ @SYS_LockReg
	.thumb_func
SYS_LockReg:
.Lfunc_begin2:
	.loc	8 1328 0 is_stmt 1              @ ../../../../Library/StdDriver/inc\sys.h:1328:0
	.fnstart
	.cfi_startproc
@ %bb.0:
	ldr	r1, __arm_cp.2_0
	movs	r0, #0
.Ltmp7:
	.loc	8 1329 18 prologue_end          @ ../../../../Library/StdDriver/inc\sys.h:1329:18
	str	r0, [r1]
	.loc	8 1330 1                        @ ../../../../Library/StdDriver/inc\sys.h:1330:1
	bx	lr
.Ltmp8:
	.p2align	2
@ %bb.1:
	.loc	8 0 1 is_stmt 0                 @ ../../../../Library/StdDriver/inc\sys.h:0:1
__arm_cp.2_0:
	.long	1073742080                      @ 0x40000100
.Lcpi_end1:
	.size	__arm_cp.2_0, .Lcpi_end1-__arm_cp.2_0
.Lfunc_end2:
	.size	SYS_LockReg, .Lfunc_end2-SYS_LockReg
	.cfi_endproc
	.cantunwind
	.fnend
                                        @ -- End function
	.section	.text.main,"ax",%progbits
	.hidden	main                            @ -- Begin function main
	.globl	main
	.p2align	2
	.type	main,%function
	.code	16                              @ @main
	.thumb_func
main:
.Lfunc_begin3:
	.loc	7 48 0 is_stmt 1                @ ../main.c:48:0
	.fnstart
	.cfi_startproc
@ %bb.0:
	.save	{r7, lr}
	push	{r7, lr}
	.cfi_def_cfa_offset 8
	.cfi_offset lr, -4
	.cfi_offset r7, -8
	.pad	#40
	sub	sp, #40
	.cfi_def_cfa_offset 48
	movs	r0, #0
	str	r0, [sp, #32]                   @ 4-byte Spill
	str	r0, [sp, #36]
.Ltmp9:
	.loc	7 52 3 prologue_end             @ ../main.c:52:3
	bl	System_Init
	.loc	7 53 37                         @ ../main.c:53:37
	ldr	r0, __arm_cp.3_0
	str	r0, [sp, #8]                    @ 4-byte Spill
	ldrh	r1, [r0]
	movs	r0, #1
	str	r0, [sp, #24]                   @ 4-byte Spill
	movs	r2, #5
	.loc	7 53 3 is_stmt 0                @ ../main.c:53:3
	str	r2, [sp, #12]                   @ 4-byte Spill
	bl	Write_Data_Modbus
	ldr	r2, [sp, #24]                   @ 4-byte Reload
	.loc	7 54 37 is_stmt 1               @ ../main.c:54:37
	ldr	r0, __arm_cp.3_1
	str	r0, [sp, #16]                   @ 4-byte Spill
	ldrh	r1, [r0]
	.loc	7 54 3 is_stmt 0                @ ../main.c:54:3
	mov	r0, r2
	bl	Write_Data_Modbus
	ldr	r2, [sp, #24]                   @ 4-byte Reload
	.loc	7 55 37 is_stmt 1               @ ../main.c:55:37
	ldr	r0, __arm_cp.3_2
	str	r0, [sp, #20]                   @ 4-byte Spill
	ldrh	r1, [r0]
	.loc	7 55 3 is_stmt 0                @ ../main.c:55:3
	mov	r0, r2
	bl	Write_Data_Modbus
                                        @ kill: def $r1 killed $r0
	.loc	7 56 3 is_stmt 1                @ ../main.c:56:3
	ldr	r0, [sp, #24]                   @ 4-byte Reload
	bl	delay
	ldr	r0, [sp, #8]                    @ 4-byte Reload
	ldr	r2, [sp, #12]                   @ 4-byte Reload
	.loc	7 57 36                         @ ../main.c:57:36
	ldrh	r1, [r0]
	movs	r0, #2
	.loc	7 57 3 is_stmt 0                @ ../main.c:57:3
	str	r0, [sp, #4]                    @ 4-byte Spill
	bl	Write_Data_Modbus
	ldr	r1, [sp, #16]                   @ 4-byte Reload
	ldr	r2, [sp, #24]                   @ 4-byte Reload
                                        @ kill: def $r3 killed $r0
	.loc	7 58 36 is_stmt 1               @ ../main.c:58:36
	ldr	r0, [sp, #4]                    @ 4-byte Reload
	ldrh	r1, [r1]
	.loc	7 58 3 is_stmt 0                @ ../main.c:58:3
	bl	Write_Data_Modbus
	ldr	r1, [sp, #20]                   @ 4-byte Reload
	ldr	r2, [sp, #24]                   @ 4-byte Reload
                                        @ kill: def $r3 killed $r0
	.loc	7 59 36 is_stmt 1               @ ../main.c:59:36
	ldr	r0, [sp, #4]                    @ 4-byte Reload
	ldrh	r1, [r1]
	.loc	7 59 3 is_stmt 0                @ ../main.c:59:3
	bl	Write_Data_Modbus
                                        @ kill: def $r1 killed $r0
	.loc	7 60 3 is_stmt 1                @ ../main.c:60:3
	ldr	r0, [sp, #24]                   @ 4-byte Reload
	bl	delay
	ldr	r0, [sp, #8]                    @ 4-byte Reload
	ldr	r2, [sp, #12]                   @ 4-byte Reload
	.loc	7 61 37                         @ ../main.c:61:37
	ldrh	r1, [r0]
	movs	r0, #3
	.loc	7 61 3 is_stmt 0                @ ../main.c:61:3
	str	r0, [sp, #28]                   @ 4-byte Spill
	bl	Write_Data_Modbus
	ldr	r1, [sp, #16]                   @ 4-byte Reload
	ldr	r2, [sp, #24]                   @ 4-byte Reload
                                        @ kill: def $r3 killed $r0
	.loc	7 62 37 is_stmt 1               @ ../main.c:62:37
	ldr	r0, [sp, #28]                   @ 4-byte Reload
	ldrh	r1, [r1]
	.loc	7 62 3 is_stmt 0                @ ../main.c:62:3
	bl	Write_Data_Modbus
	ldr	r1, [sp, #20]                   @ 4-byte Reload
	ldr	r2, [sp, #24]                   @ 4-byte Reload
                                        @ kill: def $r3 killed $r0
	.loc	7 63 37 is_stmt 1               @ ../main.c:63:37
	ldr	r0, [sp, #28]                   @ 4-byte Reload
	ldrh	r1, [r1]
	.loc	7 63 3 is_stmt 0                @ ../main.c:63:3
	bl	Write_Data_Modbus
	movw	r0, #1000
	.loc	7 64 3 is_stmt 1                @ ../main.c:64:3
	bl	delay
	ldr	r0, [sp, #32]                   @ 4-byte Reload
	movs	r1, #80
	.loc	7 65 3                          @ ../main.c:65:3
	bl	WitInit
	.loc	7 66 3                          @ ../main.c:66:3
	ldr	r0, __arm_cp.3_3
	bl	WitSerialWriteRegister
	.loc	7 67 3                          @ ../main.c:67:3
	ldr	r0, __arm_cp.3_4
	bl	WitRegisterCallBack
	.loc	7 68 3                          @ ../main.c:68:3
	ldr	r0, __arm_cp.3_5
	bl	WitDelayMsRegister
	.loc	7 87 2                          @ ../main.c:87:2
	b	.LBB3_1
.LBB3_1:                                @ =>This Inner Loop Header: Depth=1
	.loc	7 0 2 is_stmt 0                 @ ../main.c:0:2
	ldr	r0, __arm_cp.3_6
	ldr	r1, __arm_cp.3_7
.Ltmp10:
	.loc	7 89 13 is_stmt 1               @ ../main.c:89:13
	bl	TIMER_Delay
.Ltmp11:
	.loc	7 87 2                          @ ../main.c:87:2
	b	.LBB3_1
.Ltmp12:
	.p2align	2
@ %bb.2:
	.loc	7 0 2 is_stmt 0                 @ ../main.c:0:2
__arm_cp.3_0:
	.long	CTRL_CMD
.Lcpi_end2:
	.size	__arm_cp.3_0, .Lcpi_end2-__arm_cp.3_0
__arm_cp.3_1:
	.long	ACC_ADDR
.Lcpi_end3:
	.size	__arm_cp.3_1, .Lcpi_end3-__arm_cp.3_1
__arm_cp.3_2:
	.long	DEC_ADDR
.Lcpi_end4:
	.size	__arm_cp.3_2, .Lcpi_end4-__arm_cp.3_2
__arm_cp.3_3:
	.long	SensorUartSend
.Lcpi_end5:
	.size	__arm_cp.3_3, .Lcpi_end5-__arm_cp.3_3
__arm_cp.3_4:
	.long	SensorDataUpdata
.Lcpi_end6:
	.size	__arm_cp.3_4, .Lcpi_end6-__arm_cp.3_4
__arm_cp.3_5:
	.long	Delayms
.Lcpi_end7:
	.size	__arm_cp.3_5, .Lcpi_end7-__arm_cp.3_5
__arm_cp.3_6:
	.long	1074069504                      @ 0x40050000
.Lcpi_end8:
	.size	__arm_cp.3_6, .Lcpi_end8-__arm_cp.3_6
__arm_cp.3_7:
	.long	10000000                        @ 0x989680
.Lcpi_end9:
	.size	__arm_cp.3_7, .Lcpi_end9-__arm_cp.3_7
.Lfunc_end3:
	.size	main, .Lfunc_end3-main
	.cfi_endproc
	.cantunwind
	.fnend
                                        @ -- End function
	.section	.text.Write_Data_Modbus,"ax",%progbits
	.p2align	2                               @ -- Begin function Write_Data_Modbus
	.type	Write_Data_Modbus,%function
	.code	16                              @ @Write_Data_Modbus
	.thumb_func
Write_Data_Modbus:
.Lfunc_begin4:
	.loc	2 109 0 is_stmt 1               @ ../modbus_func.c:109:0
	.fnstart
	.cfi_startproc
@ %bb.0:
	.save	{r7, lr}
	push	{r7, lr}
	.cfi_def_cfa_offset 8
	.cfi_offset lr, -4
	.cfi_offset r7, -8
	.pad	#40
	sub	sp, #40
	.cfi_def_cfa_offset 48
                                        @ kill: def $r3 killed $r0
	add	r3, sp, #36
	strb	r0, [r3]
	str	r1, [sp, #32]
	str	r2, [sp, #28]
	movs	r1, #6
.Ltmp13:
	.loc	2 111 9 prologue_end            @ ../modbus_func.c:111:9
	str	r1, [sp, #24]
	.loc	2 113 14                        @ ../modbus_func.c:113:14
	ldr	r2, [sp, #36]
	add	r0, sp, #12
	.loc	2 113 12 is_stmt 0              @ ../modbus_func.c:113:12
	str	r0, [sp, #4]                    @ 4-byte Spill
	strb	r2, [r0]
	.loc	2 114 12 is_stmt 1              @ ../modbus_func.c:114:12
	strb	r1, [r0, #1]
	.loc	2 115 14                        @ ../modbus_func.c:115:14
	ldr	r1, [sp, #32]
	.loc	2 115 19 is_stmt 0              @ ../modbus_func.c:115:19
	lsrs	r1, r1, #8
	.loc	2 115 12                        @ ../modbus_func.c:115:12
	strb	r1, [r0, #2]
	.loc	2 116 14 is_stmt 1              @ ../modbus_func.c:116:14
	ldr	r1, [sp, #32]
	.loc	2 116 12 is_stmt 0              @ ../modbus_func.c:116:12
	strb	r1, [r0, #3]
	.loc	2 117 14 is_stmt 1              @ ../modbus_func.c:117:14
	ldr	r1, [sp, #28]
	.loc	2 117 20 is_stmt 0              @ ../modbus_func.c:117:20
	lsrs	r1, r1, #8
	.loc	2 117 12                        @ ../modbus_func.c:117:12
	strb	r1, [r0, #4]
	.loc	2 118 14 is_stmt 1              @ ../modbus_func.c:118:14
	ldr	r1, [sp, #28]
	.loc	2 118 12 is_stmt 0              @ ../modbus_func.c:118:12
	strb	r1, [r0, #5]
	add	r1, sp, #24
	.loc	2 119 29 is_stmt 1              @ ../modbus_func.c:119:29
	ldrh	r1, [r1]
	.loc	2 119 18 is_stmt 0              @ ../modbus_func.c:119:18
	bl	crc16
	ldr	r1, [sp, #4]                    @ 4-byte Reload
	mov	r2, r0
	add	r0, sp, #8
	.loc	2 119 12                        @ ../modbus_func.c:119:12
	strh	r2, [r0]
	.loc	2 120 25 is_stmt 1              @ ../modbus_func.c:120:25
	ldrb	r0, [r0, #1]
	.loc	2 120 19 is_stmt 0              @ ../modbus_func.c:120:19
	ldr	r2, [sp, #24]
	adds	r3, r2, #1
	str	r3, [sp, #24]
	.loc	2 120 23                        @ ../modbus_func.c:120:23
	strb	r0, [r1, r2]
	.loc	2 121 25 is_stmt 1              @ ../modbus_func.c:121:25
	ldr	r0, [sp, #8]
	.loc	2 121 19 is_stmt 0              @ ../modbus_func.c:121:19
	ldr	r2, [sp, #24]
	adds	r3, r2, #1
	str	r3, [sp, #24]
	.loc	2 121 23                        @ ../modbus_func.c:121:23
	strb	r0, [r1, r2]
	.loc	2 124 39 is_stmt 1              @ ../modbus_func.c:124:39
	ldr	r2, [sp, #24]
	ldr	r0, __arm_cp.4_0
	.loc	2 124 5 is_stmt 0               @ ../modbus_func.c:124:5
	bl	UART_Write
	ldr	r0, __arm_cp.4_1
	ldr	r1, __arm_cp.4_2
	.loc	2 125 3 is_stmt 1               @ ../modbus_func.c:125:3
	bl	TIMER_Delay
	movs	r0, #1
	.loc	2 126 3                         @ ../modbus_func.c:126:3
	add	sp, #40
	pop	{r7, pc}
.Ltmp14:
	.p2align	2
@ %bb.1:
	.loc	2 0 3 is_stmt 0                 @ ../modbus_func.c:0:3
__arm_cp.4_0:
	.long	1074204672                      @ 0x40071000
.Lcpi_end10:
	.size	__arm_cp.4_0, .Lcpi_end10-__arm_cp.4_0
__arm_cp.4_1:
	.long	1074069504                      @ 0x40050000
.Lcpi_end11:
	.size	__arm_cp.4_1, .Lcpi_end11-__arm_cp.4_1
__arm_cp.4_2:
	.long	100000                          @ 0x186a0
.Lcpi_end12:
	.size	__arm_cp.4_2, .Lcpi_end12-__arm_cp.4_2
.Lfunc_end4:
	.size	Write_Data_Modbus, .Lfunc_end4-Write_Data_Modbus
	.cfi_endproc
	.cantunwind
	.fnend
                                        @ -- End function
	.section	.text.delay,"ax",%progbits
	.p2align	2                               @ -- Begin function delay
	.type	delay,%function
	.code	16                              @ @delay
	.thumb_func
delay:
.Lfunc_begin5:
	.loc	7 25 0 is_stmt 1                @ ../main.c:25:0
	.fnstart
	.cfi_startproc
@ %bb.0:
	.save	{r7, lr}
	push	{r7, lr}
	.cfi_def_cfa_offset 8
	.cfi_offset lr, -4
	.cfi_offset r7, -8
	.pad	#8
	sub	sp, #8
	.cfi_def_cfa_offset 16
	str	r0, [sp, #4]
.Ltmp15:
	.loc	7 26 24 prologue_end            @ ../main.c:26:24
	ldr	r1, [sp, #4]
	ldr	r0, __arm_cp.5_0
	.loc	7 26 4 is_stmt 0                @ ../main.c:26:4
	bl	TIMER_Delay
	.loc	7 27 1 is_stmt 1                @ ../main.c:27:1
	add	sp, #8
	pop	{r7, pc}
.Ltmp16:
	.p2align	2
@ %bb.1:
	.loc	7 0 1 is_stmt 0                 @ ../main.c:0:1
__arm_cp.5_0:
	.long	1074069504                      @ 0x40050000
.Lcpi_end13:
	.size	__arm_cp.5_0, .Lcpi_end13-__arm_cp.5_0
.Lfunc_end5:
	.size	delay, .Lfunc_end5-delay
	.cfi_endproc
	.cantunwind
	.fnend
                                        @ -- End function
	.section	.text.SensorUartSend,"ax",%progbits
	.p2align	2                               @ -- Begin function SensorUartSend
	.type	SensorUartSend,%function
	.code	16                              @ @SensorUartSend
	.thumb_func
SensorUartSend:
.Lfunc_begin6:
	.loc	3 61 0 is_stmt 1                @ ../imu_func.c:61:0
	.fnstart
	.cfi_startproc
@ %bb.0:
	.save	{r7, lr}
	push	{r7, lr}
	.cfi_def_cfa_offset 8
	.cfi_offset lr, -4
	.cfi_offset r7, -8
	.pad	#8
	sub	sp, #8
	.cfi_def_cfa_offset 16
	str	r0, [sp, #4]
	str	r1, [sp]
.Ltmp17:
	.loc	3 62 20 prologue_end            @ ../imu_func.c:62:20
	ldr	r1, [sp, #4]
	.loc	3 62 28 is_stmt 0               @ ../imu_func.c:62:28
	ldr	r2, [sp]
	ldr	r0, __arm_cp.6_0
	.loc	3 62 2                          @ ../imu_func.c:62:2
	bl	UART_Write
	.loc	3 63 1 is_stmt 1                @ ../imu_func.c:63:1
	add	sp, #8
	pop	{r7, pc}
.Ltmp18:
	.p2align	2
@ %bb.1:
	.loc	3 0 1 is_stmt 0                 @ ../imu_func.c:0:1
__arm_cp.6_0:
	.long	1074208768                      @ 0x40072000
.Lcpi_end14:
	.size	__arm_cp.6_0, .Lcpi_end14-__arm_cp.6_0
.Lfunc_end6:
	.size	SensorUartSend, .Lfunc_end6-SensorUartSend
	.cfi_endproc
	.cantunwind
	.fnend
                                        @ -- End function
	.section	.text.SensorDataUpdata,"ax",%progbits
	.p2align	2                               @ -- Begin function SensorDataUpdata
	.type	SensorDataUpdata,%function
	.code	16                              @ @SensorDataUpdata
	.thumb_func
SensorDataUpdata:
.Lfunc_begin7:
	.loc	3 27 0 is_stmt 1                @ ../imu_func.c:27:0
	.fnstart
	.cfi_startproc
@ %bb.0:
	.pad	#16
	sub	sp, #16
	.cfi_def_cfa_offset 16
	str	r0, [sp, #12]
	str	r1, [sp, #8]
	movs	r0, #0
.Ltmp19:
	.loc	3 29 11 prologue_end            @ ../imu_func.c:29:11
	str	r0, [sp, #4]
	.loc	3 29 9 is_stmt 0                @ ../imu_func.c:29:9
	b	.LBB7_1
.LBB7_1:                                @ =>This Inner Loop Header: Depth=1
.Ltmp20:
	.loc	3 29 16                         @ ../imu_func.c:29:16
	ldr	r0, [sp, #4]
	.loc	3 29 20                         @ ../imu_func.c:29:20
	ldr	r1, [sp, #8]
.Ltmp21:
	.loc	3 29 5                          @ ../imu_func.c:29:5
	cmp	r0, r1
	bhs	.LBB7_12
	b	.LBB7_2
.LBB7_2:                                @   in Loop: Header=BB7_1 Depth=1
.Ltmp22:
	.loc	3 31 16 is_stmt 1               @ ../imu_func.c:31:16
	ldr	r0, [sp, #12]
	.loc	3 31 9 is_stmt 0                @ ../imu_func.c:31:9
	subs	r0, #54
	str	r0, [sp]                        @ 4-byte Spill
	cmp	r0, #9
	bhi	.LBB7_9
@ %bb.3:                                @   in Loop: Header=BB7_1 Depth=1
	.loc	3 0 9                           @ ../imu_func.c:0:9
	ldr	r1, [sp]                        @ 4-byte Reload
	lsls	r2, r1, #2
	adr	r0, .LJTI7_0
	adds	r0, r0, r2
	mov	pc, r0
@ %bb.4:
	.p2align	2
.LJTI7_0:
	b.w	.LBB7_5
	b.w	.LBB7_9
	b.w	.LBB7_9
	b.w	.LBB7_6
	b.w	.LBB7_9
	b.w	.LBB7_9
	b.w	.LBB7_7
	b.w	.LBB7_9
	b.w	.LBB7_9
	b.w	.LBB7_8
.LBB7_5:                                @   in Loop: Header=BB7_1 Depth=1
.Ltmp23:
	.loc	3 36 19 is_stmt 1               @ ../imu_func.c:36:19
	ldr	r1, __arm_cp.7_0
	ldrb	r0, [r1]
	movs	r2, #1
	orrs	r0, r2
	strb	r0, [r1]
	.loc	3 37 13                         @ ../imu_func.c:37:13
	b	.LBB7_10
.LBB7_6:                                @   in Loop: Header=BB7_1 Depth=1
	.loc	3 41 19                         @ ../imu_func.c:41:19
	ldr	r1, __arm_cp.7_0
	ldrb	r0, [r1]
	movs	r2, #2
	orrs	r0, r2
	strb	r0, [r1]
	.loc	3 42 13                         @ ../imu_func.c:42:13
	b	.LBB7_10
.LBB7_7:                                @   in Loop: Header=BB7_1 Depth=1
	.loc	3 46 19                         @ ../imu_func.c:46:19
	ldr	r1, __arm_cp.7_0
	ldrb	r0, [r1]
	movs	r2, #8
	orrs	r0, r2
	strb	r0, [r1]
	.loc	3 47 13                         @ ../imu_func.c:47:13
	b	.LBB7_10
.LBB7_8:                                @   in Loop: Header=BB7_1 Depth=1
	.loc	3 51 19                         @ ../imu_func.c:51:19
	ldr	r1, __arm_cp.7_0
	ldrb	r0, [r1]
	movs	r2, #4
	orrs	r0, r2
	strb	r0, [r1]
	.loc	3 52 13                         @ ../imu_func.c:52:13
	b	.LBB7_10
.LBB7_9:                                @   in Loop: Header=BB7_1 Depth=1
	.loc	3 54 19                         @ ../imu_func.c:54:19
	ldr	r1, __arm_cp.7_0
	ldrb	r0, [r1]
	movs	r2, #128
	orrs	r0, r2
	strb	r0, [r1]
	.loc	3 55 4                          @ ../imu_func.c:55:4
	b	.LBB7_10
.Ltmp24:
.LBB7_10:                               @   in Loop: Header=BB7_1 Depth=1
	.loc	3 57 8                          @ ../imu_func.c:57:8
	ldr	r0, [sp, #12]
	adds	r0, r0, #1
	str	r0, [sp, #12]
	.loc	3 58 5                          @ ../imu_func.c:58:5
	b	.LBB7_11
.Ltmp25:
.LBB7_11:                               @   in Loop: Header=BB7_1 Depth=1
	.loc	3 29 31                         @ ../imu_func.c:29:31
	ldr	r0, [sp, #4]
	adds	r0, r0, #1
	str	r0, [sp, #4]
	.loc	3 29 5 is_stmt 0                @ ../imu_func.c:29:5
	b	.LBB7_1
.Ltmp26:
.LBB7_12:
	.loc	3 59 1 is_stmt 1                @ ../imu_func.c:59:1
	add	sp, #16
	bx	lr
.Ltmp27:
	.p2align	2
@ %bb.13:
	.loc	3 0 1 is_stmt 0                 @ ../imu_func.c:0:1
__arm_cp.7_0:
	.long	s_cDataUpdate
.Lcpi_end15:
	.size	__arm_cp.7_0, .Lcpi_end15-__arm_cp.7_0
.Lfunc_end7:
	.size	SensorDataUpdata, .Lfunc_end7-SensorDataUpdata
	.cfi_endproc
	.cantunwind
	.fnend
                                        @ -- End function
	.section	.text.Delayms,"ax",%progbits
	.p2align	2                               @ -- Begin function Delayms
	.type	Delayms,%function
	.code	16                              @ @Delayms
	.thumb_func
Delayms:
.Lfunc_begin8:
	.loc	3 66 0 is_stmt 1                @ ../imu_func.c:66:0
	.fnstart
	.cfi_startproc
@ %bb.0:
	.save	{r7, lr}
	push	{r7, lr}
	.cfi_def_cfa_offset 8
	.cfi_offset lr, -4
	.cfi_offset r7, -8
	.pad	#8
	sub	sp, #8
	.cfi_def_cfa_offset 16
	mov	r1, r0
                                        @ kill: def $r0 killed $r1
	add	r0, sp, #4
	strh	r1, [r0]
.Ltmp28:
	.loc	3 67 22 prologue_end            @ ../imu_func.c:67:22
	ldrh	r1, [r0]
	ldr	r0, __arm_cp.8_0
	.loc	3 67 2 is_stmt 0                @ ../imu_func.c:67:2
	bl	TIMER_Delay
	.loc	3 68 1 is_stmt 1                @ ../imu_func.c:68:1
	add	sp, #8
	pop	{r7, pc}
.Ltmp29:
	.p2align	2
@ %bb.1:
	.loc	3 0 1 is_stmt 0                 @ ../imu_func.c:0:1
__arm_cp.8_0:
	.long	1074069504                      @ 0x40050000
.Lcpi_end16:
	.size	__arm_cp.8_0, .Lcpi_end16-__arm_cp.8_0
.Lfunc_end8:
	.size	Delayms, .Lfunc_end8-Delayms
	.cfi_endproc
	.cantunwind
	.fnend
                                        @ -- End function
	.section	.text.crc16,"ax",%progbits
	.p2align	2                               @ -- Begin function crc16
	.type	crc16,%function
	.code	16                              @ @crc16
	.thumb_func
crc16:
.Lfunc_begin9:
	.loc	2 91 0 is_stmt 1                @ ../modbus_func.c:91:0
	.fnstart
	.cfi_startproc
@ %bb.0:
	.pad	#20
	sub	sp, #20
	.cfi_def_cfa_offset 20
                                        @ kill: def $r2 killed $r1
	str	r0, [sp, #16]
	add	r0, sp, #12
	strh	r1, [r0]
	add	r1, sp, #8
	movs	r0, #255
.Ltmp30:
	.loc	2 92 13 prologue_end            @ ../modbus_func.c:92:13
	strb	r0, [r1]
	add	r1, sp, #4
	.loc	2 93 13                         @ ../modbus_func.c:93:13
	strb	r0, [r1]
	.loc	2 97 5                          @ ../modbus_func.c:97:5
	b	.LBB9_1
.LBB9_1:                                @ =>This Inner Loop Header: Depth=1
	.loc	2 0 5 is_stmt 0                 @ ../modbus_func.c:0:5
	add	r2, sp, #12
	.loc	2 97 25                         @ ../modbus_func.c:97:25
	ldrh	r0, [r2]
	subs	r1, r0, #1
	strh	r1, [r2]
	.loc	2 97 5                          @ ../modbus_func.c:97:5
	cbz	r0, .LBB9_3
	b	.LBB9_2
.LBB9_2:                                @   in Loop: Header=BB9_1 Depth=1
	.loc	2 0 5                           @ ../modbus_func.c:0:5
	add	r1, sp, #8
.Ltmp31:
	.loc	2 98 13 is_stmt 1               @ ../modbus_func.c:98:13
	ldrb	r0, [r1]
	.loc	2 98 29 is_stmt 0               @ ../modbus_func.c:98:29
	ldr	r2, [sp, #16]
	adds	r3, r2, #1
	str	r3, [sp, #16]
	.loc	2 98 22                         @ ../modbus_func.c:98:22
	ldrb	r2, [r2]
	.loc	2 98 20                         @ ../modbus_func.c:98:20
	eors	r0, r2
	.loc	2 98 11                         @ ../modbus_func.c:98:11
	str	r0, [sp]
	.loc	2 100 18 is_stmt 1              @ ../modbus_func.c:100:18
	ldr	r0, [sp, #4]
	.loc	2 100 40 is_stmt 0              @ ../modbus_func.c:100:40
	ldr	r3, [sp]
	.loc	2 100 27                        @ ../modbus_func.c:100:27
	ldr	r2, __arm_cp.9_0
	ldrb	r2, [r2, r3]
	.loc	2 100 25                        @ ../modbus_func.c:100:25
	eors	r0, r2
	.loc	2 100 16                        @ ../modbus_func.c:100:16
	strb	r0, [r1]
	.loc	2 101 31 is_stmt 1              @ ../modbus_func.c:101:31
	ldr	r1, [sp]
	.loc	2 101 18 is_stmt 0              @ ../modbus_func.c:101:18
	ldr	r0, __arm_cp.9_1
	ldrb	r0, [r0, r1]
	add	r1, sp, #4
	.loc	2 101 16                        @ ../modbus_func.c:101:16
	strb	r0, [r1]
.Ltmp32:
	.loc	2 97 5 is_stmt 1                @ ../modbus_func.c:97:5
	b	.LBB9_1
.LBB9_3:
	.loc	2 0 5 is_stmt 0                 @ ../modbus_func.c:0:5
	add	r0, sp, #8
	.loc	2 104 13 is_stmt 1              @ ../modbus_func.c:104:13
	ldrb	r0, [r0]
	.loc	2 104 20 is_stmt 0              @ ../modbus_func.c:104:20
	lsls	r0, r0, #8
	add	r1, sp, #4
	.loc	2 104 27                        @ ../modbus_func.c:104:27
	ldrb	r1, [r1]
	.loc	2 104 25                        @ ../modbus_func.c:104:25
	adds	r0, r0, r1
	.loc	2 104 5                         @ ../modbus_func.c:104:5
	add	sp, #20
	bx	lr
.Ltmp33:
	.p2align	2
@ %bb.4:
	.loc	2 0 5                           @ ../modbus_func.c:0:5
__arm_cp.9_0:
	.long	table_crc_hi
.Lcpi_end17:
	.size	__arm_cp.9_0, .Lcpi_end17-__arm_cp.9_0
__arm_cp.9_1:
	.long	table_crc_lo
.Lcpi_end18:
	.size	__arm_cp.9_1, .Lcpi_end18-__arm_cp.9_1
.Lfunc_end9:
	.size	crc16, .Lfunc_end9-crc16
	.cfi_endproc
	.cantunwind
	.fnend
                                        @ -- End function
	.type	CTRL_CMD,%object                @ @CTRL_CMD
	.section	.data.CTRL_CMD,"aw",%progbits
	.p2align	1, 0x0
CTRL_CMD:
	.short	8192                            @ 0x2000
	.size	CTRL_CMD, 2

	.type	ACC_ADDR,%object                @ @ACC_ADDR
	.section	.data.ACC_ADDR,"aw",%progbits
	.p2align	1, 0x0
ACC_ADDR:
	.short	8195                            @ 0x2003
	.size	ACC_ADDR, 2

	.type	DEC_ADDR,%object                @ @DEC_ADDR
	.section	.data.DEC_ADDR,"aw",%progbits
	.p2align	1, 0x0
DEC_ADDR:
	.short	8196                            @ 0x2004
	.size	DEC_ADDR, 2

	.type	table_crc_hi,%object            @ @table_crc_hi
	.section	.rodata.table_crc_hi,"a",%progbits
table_crc_hi:
	.ascii	"\000\301\201@\001\300\200A\001\300\200A\000\301\201@\001\300\200A\000\301\201@\000\301\201@\001\300\200A\001\300\200A\000\301\201@\000\301\201@\001\300\200A\000\301\201@\001\300\200A\001\300\200A\000\301\201@\001\300\200A\000\301\201@\000\301\201@\001\300\200A\000\301\201@\001\300\200A\001\300\200A\000\301\201@\000\301\201@\001\300\200A\001\300\200A\000\301\201@\001\300\200A\000\301\201@\000\301\201@\001\300\200A\001\300\200A\000\301\201@\000\301\201@\001\300\200A\000\301\201@\001\300\200A\001\300\200A\000\301\201@\000\301\201@\001\300\200A\001\300\200A\000\301\201@\001\300\200A\000\301\201@\000\301\201@\001\300\200A\000\301\201@\001\300\200A\001\300\200A\000\301\201@\001\300\200A\000\301\201@\000\301\201@\001\300\200A\001\300\200A\000\301\201@\000\301\201@\001\300\200A\000\301\201@\001\300\200A\001\300\200A\000\301\201@"
	.size	table_crc_hi, 256

	.type	table_crc_lo,%object            @ @table_crc_lo
	.section	.rodata.table_crc_lo,"a",%progbits
table_crc_lo:
	.ascii	"\000\300\301\001\303\003\002\302\306\006\007\307\005\305\304\004\314\f\r\315\017\317\316\016\n\312\313\013\311\t\b\310\330\030\031\331\033\333\332\032\036\336\337\037\335\035\034\334\024\324\325\025\327\027\026\326\322\022\023\323\021\321\320\020\36001\3613\363\36226\366\3677\36554\364<\374\375=\377?>\376\372:;\3739\371\3708(\350\351)\353+*\352\356./\357-\355\354,\344$%\345'\347\346&\"\342\343#\341! \340\240`a\241c\243\242bf\246\247g\245ed\244l\254\255m\257on\256\252jk\253i\251\250hx\270\271y\273{z\272\276~\177\277}\275\274|\264tu\265w\267\266vr\262\263s\261qp\260P\220\221Q\223SR\222\226VW\227U\225\224T\234\\]\235_\237\236^Z\232\233[\231YX\230\210HI\211K\213\212JN\216\217O\215ML\214D\204\205E\207GF\206\202BC\203A\201\200@"
	.size	table_crc_lo, 256

	.type	s_cDataUpdate,%object           @ @s_cDataUpdate
	.section	.bss.s_cDataUpdate,"aw",%nobits
s_cDataUpdate:
	.byte	0                               @ 0x0
	.size	s_cDataUpdate, 1

	.type	__ARM_use_no_argv,%object       @ @__ARM_use_no_argv
	.section	.ARM.use_no_argv,"awR",%progbits,unique,1
	.globl	__ARM_use_no_argv
	.p2align	2, 0x0
__ARM_use_no_argv:
	.long	1                               @ 0x1
	.size	__ARM_use_no_argv, 4

	.section	".note.GNU-stack","",%progbits
	.eabi_attribute	30, 6	@ Tag_ABI_optimization_goals
	.ARM_attribute	16, 1	@ Tag_AV_eba