	.text
	.syntax unified
	.eabi_attribute	67, "2.09"	@ Tag_conformance
	.cpu	cortex-m23
	.eabi_attribute	6, 16	@ Tag_CPU_arch
	.eabi_attribute	7, 77	@ Tag_CPU_arch_profile
	.eabi_attribute	8, 0	@ Tag_ARM_ISA_use
	.eabi_attribute	9, 3	@ Tag_THUMB_ISA_use
	.eabi_attribute	34, 0	@ Tag_CPU_unaligned_access
	.eabi_attribute	17, 1	@ Tag_ABI_PCS_GOT_use
	.eabi_attribute	20, 2	@ Tag_ABI_FP_denormal
	.eabi_attribute	21, 0	@ Tag_ABI_FP_exceptions
	.eabi_attribute	23, 1	@ Tag_ABI_FP_number_model
	.eabi_attribute	24, 1	@ Tag_ABI_align_needed
	.eabi_attribute	25, 1	@ Tag_ABI_align_preserved
	.eabi_attribute	38, 1	@ Tag_ABI_FP_16bit_format
	.eabi_attribute	18, 2	@ Tag_ABI_PCS_wchar_t
	.eabi_attribute	26, 1	@ Tag_ABI_enum_size
	.eabi_attribute	14, 0	@ Tag_ABI_PCS_R9_use
	.file	"periph_conf.c"
	.file	1 "E:\\ROBOCON2024\\01. Coding\\Nuvoton\\demo_robot_3wheel\\SampleCode\\NuCodeGen\\DemoCodeGen\\KEIL" "../../../../Library/Device/Nuvoton/M251/Include/M251.h"
	.file	2 "C:\\Keil_v5\\ARM\\ARMCLANG\\Bin\\..\\include" "stdint.h"
	.file	3 "E:\\ROBOCON2024\\01. Coding\\Nuvoton\\demo_robot_3wheel\\SampleCode\\NuCodeGen\\DemoCodeGen\\KEIL" "../../../../Library/Device/Nuvoton/M251/Include/gpio_reg.h"
	.file	4 "E:\\ROBOCON2024\\01. Coding\\Nuvoton\\demo_robot_3wheel\\SampleCode\\NuCodeGen\\DemoCodeGen\\KEIL" "../../../../Library/Device/Nuvoton/M251/Include/uart_reg.h"
	.file	5 "E:\\ROBOCON2024\\01. Coding\\Nuvoton\\demo_robot_3wheel\\SampleCode\\NuCodeGen\\DemoCodeGen\\KEIL" "../../../../Library/CMSIS/Include\\core_cm23.h"
	.section	.text.GPIO_Init,"ax",%progbits
	.hidden	GPIO_Init                       @ -- Begin function GPIO_Init
	.globl	GPIO_Init
	.p2align	2
	.type	GPIO_Init,%function
	.code	16                              @ @GPIO_Init
	.thumb_func
GPIO_Init:
.Lfunc_begin0:
	.file	6 "E:\\ROBOCON2024\\01. Coding\\Nuvoton\\demo_robot_3wheel\\SampleCode\\NuCodeGen\\DemoCodeGen\\KEIL" "../periph_conf.c"
	.loc	6 16 0                          @ ../periph_conf.c:16:0
	.fnstart
	.cfi_sections .debug_frame
	.cfi_startproc
@ %bb.0:
	.pad	#4
	sub	sp, #4
	.cfi_def_cfa_offset 4
	movs	r0, #0
.Ltmp0:
	.loc	6 17 20 prologue_end            @ ../periph_conf.c:17:20
	str	r0, [sp]
	ldr	r1, __arm_cp.0_0
	.loc	6 20 16                         @ ../periph_conf.c:20:16
	str	r0, [r1]
	ldr	r2, __arm_cp.0_1
	movw	r1, #16384
	.loc	6 27 14                         @ ../periph_conf.c:27:14
	str	r1, [r2]
	ldr	r1, __arm_cp.0_2
	.loc	6 34 16                         @ ../periph_conf.c:34:16
	str	r0, [r1]
	movs	r1, #1
	lsls	r1, r1, #28
	ldr	r2, __arm_cp.0_3
	.loc	6 41 14                         @ ../periph_conf.c:41:14
	str	r1, [r2]
	ldr	r1, __arm_cp.0_4
	.loc	6 48 14                         @ ../periph_conf.c:48:14
	str	r0, [r1]
	ldr	r1, __arm_cp.0_5
	.loc	6 55 17                         @ ../periph_conf.c:55:17
	str	r0, [r1]
	ldr	r2, __arm_cp.0_6
	.loc	6 62 15                         @ ../periph_conf.c:62:15
	str	r0, [r2]
	.loc	6 69 15                         @ ../periph_conf.c:69:15
	ldr	r1, [r2]
	str	r1, [r2]
	ldr	r1, __arm_cp.0_7
	.loc	6 76 17                         @ ../periph_conf.c:76:17
	str	r0, [r1]
	ldr	r1, __arm_cp.0_8
	.loc	6 83 15                         @ ../periph_conf.c:83:15
	str	r0, [r1]
	.loc	6 89 1                          @ ../periph_conf.c:89:1
	add	sp, #4
	bx	lr
.Ltmp1:
	.p2align	2
@ %bb.1:
	.loc	6 0 1 is_stmt 0                 @ ../periph_conf.c:0:1
__arm_cp.0_0:
	.long	1073758276                      @ 0x40004044
.Lcpi_end0:
	.size	__arm_cp.0_0, .Lcpi_end0-__arm_cp.0_0
__arm_cp.0_1:
	.long	1073758280                      @ 0x40004048
.Lcpi_end1:
	.size	__arm_cp.0_1, .Lcpi_end1-__arm_cp.0_1
__arm_cp.0_2:
	.long	1073758284                      @ 0x4000404c
.Lcpi_end2:
	.size	__arm_cp.0_2, .Lcpi_end2-__arm_cp.0_2
__arm_cp.0_3:
	.long	1073758272                      @ 0x40004040
.Lcpi_end3:
	.size	__arm_cp.0_3, .Lcpi_end3-__arm_cp.0_3
__arm_cp.0_4:
	.long	1073758292                      @ 0x40004054
.Lcpi_end4:
	.size	__arm_cp.0_4, .Lcpi_end4-__arm_cp.0_4
__arm_cp.0_5:
	.long	1073758296                      @ 0x40004058
.Lcpi_end5:
	.size	__arm_cp.0_5, .Lcpi_end5-__arm_cp.0_5
__arm_cp.0_6:
	.long	1073758300                      @ 0x4000405c
.Lcpi_end6:
	.size	__arm_cp.0_6, .Lcpi_end6-__arm_cp.0_6
__arm_cp.0_7:
	.long	1073758312                      @ 0x40004068
.Lcpi_end7:
	.size	__arm_cp.0_7, .Lcpi_end7-__arm_cp.0_7
__arm_cp.0_8:
	.long	1073758320                      @ 0x40004070
.Lcpi_end8:
	.size	__arm_cp.0_8, .Lcpi_end8-__arm_cp.0_8
.Lfunc_end0:
	.size	GPIO_Init, .Lfunc_end0-GPIO_Init
	.cfi_endproc
	.cantunwind
	.fnend
                                        @ -- End function
	.section	.text.UART0_Init,"ax",%progbits
	.hidden	UART0_Init                      @ -- Begin function UART0_Init
	.globl	UART0_Init
	.p2align	2
	.type	UART0_Init,%function
	.code	16                              @ @UART0_Init
	.thumb_func
UART0_Init:
.Lfunc_begin1:
	.loc	6 91 0 is_stmt 1                @ ../periph_conf.c:91:0
	.fnstart
	.cfi_startproc
@ %bb.0:
	.save	{r7, lr}
	push	{r7, lr}
	.cfi_def_cfa_offset 8
	.cfi_offset lr, -4
	.cfi_offset r7, -8
	.pad	#8
	sub	sp, #8
	.cfi_def_cfa_offset 16
	ldr	r0, __arm_cp.1_0
	str	r0, [sp, #4]                    @ 4-byte Spill
	movw	r1, #9600
.Ltmp2:
	.loc	6 94 5 prologue_end             @ ../periph_conf.c:94:5
	bl	UART_Open
	ldr	r0, [sp, #4]                    @ 4-byte Reload
	ldr	r2, __arm_cp.1_1
	.loc	6 97 27                         @ ../periph_conf.c:97:27
	ldr	r1, [r2]
	movs	r3, #240
	.loc	6 97 32 is_stmt 0               @ ../periph_conf.c:97:32
	bics	r1, r3
	.loc	6 97 17                         @ ../periph_conf.c:97:17
	str	r1, [r2]
	movs	r1, #1
	.loc	6 100 5 is_stmt 1               @ ../periph_conf.c:100:5
	bl	UART_EnableInt
	movs	r0, #36
	.loc	6 102 5                         @ ../periph_conf.c:102:5
	bl	__NVIC_EnableIRQ
	.loc	6 104 1                         @ ../periph_conf.c:104:1
	add	sp, #8
	pop	{r7, pc}
.Ltmp3:
	.p2align	2
@ %bb.1:
	.loc	6 0 1 is_stmt 0                 @ ../periph_conf.c:0:1
__arm_cp.1_0:
	.long	1074200576                      @ 0x40070000
.Lcpi_end9:
	.size	__arm_cp.1_0, .Lcpi_end9-__arm_cp.1_0
__arm_cp.1_1:
	.long	1074200584                      @ 0x40070008
.Lcpi_end10:
	.size	__arm_cp.1_1, .Lcpi_end10-__arm_cp.1_1
.Lfunc_end1:
	.size	UART0_Init, .Lfunc_end1-UART0_Init
	.cfi_endproc
	.cantunwind
	.fnend
                                        @ -- End function
	.section	.text.__NVIC_EnableIRQ,"ax",%progbits
	.p2align	2                               @ -- Begin function __NVIC_EnableIRQ
	.type	__NVIC_EnableIRQ,%function
	.code	16                              @ @__NVIC_EnableIRQ
	.thumb_func
__NVIC_EnableIRQ:
.Lfunc_begin2:
	.loc	5 1276 0 is_stmt 1              @ ../../../../Library/CMSIS/Include\core_cm23.h:1276:0
	.fnstart
	.cfi_startproc
@ %bb.0:
	.pad	#4
	sub	sp, #4
	.cfi_def_cfa_offset 4
	mov	r1, r0
                                        @ kill: def $r0 killed $r1
	mov	r0, sp
	strb	r1, [r0]
.Ltmp4:
	.loc	5 1277 17 prologue_end          @ ../../../../Library/CMSIS/Include\core_cm23.h:1277:17
	movs	r1, #0
	ldrsb	r0, [r0, r1]
.Ltmp5:
	.loc	5 1277 7 is_stmt 0              @ ../../../../Library/CMSIS/Include\core_cm23.h:1277:7
	cmp	r0, #0
	bmi	.LBB2_2
	b	.LBB2_1
.LBB2_1:
.Ltmp6:
	.loc	5 1279 93 is_stmt 1             @ ../../../../Library/CMSIS/Include\core_cm23.h:1279:93
	movs	r1, #0
	mov	r0, sp
	ldrsb	r1, [r0, r1]
	movs	r0, #31
	.loc	5 1279 99 is_stmt 0             @ ../../../../Library/CMSIS/Include\core_cm23.h:1279:99
	mov	r2, r1
	ands	r2, r0
	movs	r0, #1
	.loc	5 1279 69                       @ ../../../../Library/CMSIS/Include\core_cm23.h:1279:69
	lsls	r0, r2
	.loc	5 1279 5                        @ ../../../../Library/CMSIS/Include\core_cm23.h:1279:5
	lsrs	r1, r1, #5
	lsls	r1, r1, #2
	ldr	r2, __arm_cp.2_0
	.loc	5 1279 52                       @ ../../../../Library/CMSIS/Include\core_cm23.h:1279:52
	str	r0, [r1, r2]
	.loc	5 1280 3 is_stmt 1              @ ../../../../Library/CMSIS/Include\core_cm23.h:1280:3
	b	.LBB2_2
.Ltmp7:
.LBB2_2:
	.loc	5 1281 1                        @ ../../../../Library/CMSIS/Include\core_cm23.h:1281:1
	add	sp, #4
	bx	lr
.Ltmp8:
	.p2align	2
@ %bb.3:
	.loc	5 0 1 is_stmt 0                 @ ../../../../Library/CMSIS/Include\core_cm23.h:0:1
__arm_cp.2_0:
	.long	3758153984                      @ 0xe000e100
.Lcpi_end11:
	.size	__arm_cp.2_0, .Lcpi_end11-__arm_cp.2_0
.Lfunc_end2:
	.size	__NVIC_EnableIRQ, .Lfunc_end2-__NVIC_EnableIRQ
	.cfi_endproc
	.cantunwind
	.fnend
                                        @ -- End function
	.section	.text.UART1_Init,"ax",%progbits
	.hidden	UART1_Init                      @ -- Begin function UART1_Init
	.globl	UART1_Init
	.p2align	2
	.type	UART1_Init,%function
	.code	16                              @ @UART1_Init
	.thumb_func
UART1_Init:
.Lfunc_begin3:
	.loc	6 107 0 is_stmt 1               @ ../periph_conf.c:107:0
	.fnstart
	.cfi_startproc
@ %bb.0:
	.save	{r7, lr}
	push	{r7, lr}
	.cfi_def_cfa_offset 8
	.cfi_offset lr, -4
	.cfi_offset r7, -8
	ldr	r0, __arm_cp.3_0
	movw	r1, #57600
.Ltmp9:
	.loc	6 110 5 prologue_end            @ ../periph_conf.c:110:5
	bl	UART_Open
	ldr	r1, __arm_cp.3_1
	.loc	6 113 27                        @ ../periph_conf.c:113:27
	ldr	r0, [r1]
	movs	r2, #240
	.loc	6 113 32 is_stmt 0              @ ../periph_conf.c:113:32
	bics	r0, r2
	.loc	6 113 17                        @ ../periph_conf.c:113:17
	str	r0, [r1]
	.loc	6 115 1 is_stmt 1               @ ../periph_conf.c:115:1
	pop	{r7, pc}
.Ltmp10:
	.p2align	2
@ %bb.1:
	.loc	6 0 1 is_stmt 0                 @ ../periph_conf.c:0:1
__arm_cp.3_0:
	.long	1074204672                      @ 0x40071000
.Lcpi_end12:
	.size	__arm_cp.3_0, .Lcpi_end12-__arm_cp.3_0
__arm_cp.3_1:
	.long	1074204680                      @ 0x40071008
.Lcpi_end13:
	.size	__arm_cp.3_1, .Lcpi_end13-__arm_cp.3_1
.Lfunc_end3:
	.size	UART1_Init, .Lfunc_end3-UART1_Init
	.cfi_endproc
	.cantunwind
	.fnend
                                        @ -- End function
	.section	.text.UART2_Init,"ax",%progbits
	.hidden	UART2_Init                      @ -- Begin function UART2_Init
	.globl	UART2_Init
	.p2align	2
	.type	UART2_Init,%function
	.code	16                              @ @UART2_Init
	.thumb_func
UART2_Init:
.Lfunc_begin4:
	.loc	6 118 0 is_stmt 1               @ ../periph_conf.c:118:0
	.fnstart
	.cfi_startproc
@ %bb.0:
	.save	{r7, lr}
	push	{r7, lr}
	.cfi_def_cfa_offset 8
	.cfi_offset lr, -4
	.cfi_offset r7, -8
	.pad	#8
	sub	sp, #8
	.cfi_def_cfa_offset 16
	movs	r0, #225
	lsls	r1, r0, #9
	ldr	r0, __arm_cp.4_0
.Ltmp11:
	.loc	6 121 5 prologue_end            @ ../periph_conf.c:121:5
	str	r0, [sp, #4]                    @ 4-byte Spill
	bl	UART_Open
	ldr	r0, [sp, #4]                    @ 4-byte Reload
	ldr	r2, __arm_cp.4_1
	.loc	6 124 27                        @ ../periph_conf.c:124:27
	ldr	r1, [r2]
	movs	r3, #240
	.loc	6 124 32 is_stmt 0              @ ../periph_conf.c:124:32
	bics	r1, r3
	.loc	6 124 17                        @ ../periph_conf.c:124:17
	str	r1, [r2]
	movs	r1, #1
	.loc	6 127 5 is_stmt 1               @ ../periph_conf.c:127:5
	bl	UART_EnableInt
	movs	r0, #48
	.loc	6 129 5                         @ ../periph_conf.c:129:5
	bl	__NVIC_EnableIRQ
	.loc	6 131 1                         @ ../periph_conf.c:131:1
	add	sp, #8
	pop	{r7, pc}
.Ltmp12:
	.p2align	2
@ %bb.1:
	.loc	6 0 1 is_stmt 0                 @ ../periph_conf.c:0:1
__arm_cp.4_0:
	.long	1074208768                      @ 0x40072000
.Lcpi_end14:
	.size	__arm_cp.4_0, .Lcpi_end14-__arm_cp.4_0
__arm_cp.4_1:
	.long	1074208776                      @ 0x40072008
.Lcpi_end15:
	.size	__arm_cp.4_1, .Lcpi_end15-__arm_cp.4_1
.Lfunc_end4:
	.size	UART2_Init, .Lfunc_end4-UART2_Init
	.cfi_endproc
	.cantunwind
	.fnend
                                        @ -- End function
	.section	.text.Periph_Init,"ax",%progbits
	.hidden	Periph_Init                     @ -- Begin function Periph_Init
	.globl	Periph_Init
	.p2align	1
	.type	Periph_Init,%function
	.code	16                              @ @Periph_Init
	.thumb_func
Periph_Init:
.Lfunc_begin5:
	.loc	6 134 0 is_stmt 1               @ ../periph_conf.c:134:0
	.fnstart
	.cfi_startproc
@ %bb.0:
	.save	{r7, lr}
	push	{r7, lr}
	.cfi_def_cfa_offset 8
	.cfi_offset lr, -4
	.cfi_offset r7, -8
.Ltmp13:
	.loc	6 136 5 prologue_end            @ ../periph_conf.c:136:5
	bl	UART0_Init
	.loc	6 138 5                         @ ../periph_conf.c:138:5
	bl	UART1_Init
	.loc	6 140 5                         @ ../periph_conf.c:140:5
	bl	UART2_Init
	.loc	6 142 5                         @ ../periph_conf.c:142:5
	bl	GPIO_Init
	.loc	6 144 1                         @ ../periph_conf.c:144:1
	pop	{r7, pc}
.Ltmp14:
.Lfunc_end5:
	.size	Periph_Init, .Lfunc_end5-Periph_Init
	.cfi_endproc
	.cantunwind
	.fnend
                                        @ -- End function
	.section	".note.GNU-stack","",%progbits
	.eabi_attribute	30, 6	@ Tag_ABI_optimization_goals
	.ARM_attribute	16, 1	@ Tag_AV_eba