	.text
	.syntax unified
	.eabi_attribute	67, "2.09"	@ Tag_conformance
	.cpu	cortex-m23
	.eabi_attribute	6, 16	@ Tag_CPU_arch
	.eabi_attribute	7, 77	@ Tag_CPU_arch_profile
	.eabi_attribute	8, 0	@ Tag_ARM_ISA_use
	.eabi_attribute	9, 3	@ Tag_THUMB_ISA_use
	.eabi_attribute	34, 0	@ Tag_CPU_unaligned_access
	.eabi_attribute	17, 1	@ Tag_ABI_PCS_GOT_use
	.eabi_attribute	20, 2	@ Tag_ABI_FP_denormal
	.eabi_attribute	21, 0	@ Tag_ABI_FP_exceptions
	.eabi_attribute	23, 1	@ Tag_ABI_FP_number_model
	.eabi_attribute	24, 1	@ Tag_ABI_align_needed
	.eabi_attribute	25, 1	@ Tag_ABI_align_preserved
	.eabi_attribute	38, 1	@ Tag_ABI_FP_16bit_format
	.eabi_attribute	18, 2	@ Tag_ABI_PCS_wchar_t
	.eabi_attribute	26, 1	@ Tag_ABI_enum_size
	.eabi_attribute	14, 0	@ Tag_ABI_PCS_R9_use
	.file	"pwm.c"
	.file	1 "C:\\Keil_v5\\ARM\\ARMCLANG\\Bin\\..\\include" "stdint.h"
	.file	2 "E:\\ROBOCON2024\\01. Coding\\Nuvoton\\demo_robot_3wheel\\SampleCode\\NuCodeGen\\DemoCodeGen\\KEIL" "../../../../Library/Device/Nuvoton/M251/Include/sys_reg.h"
	.file	3 "E:\\ROBOCON2024\\01. Coding\\Nuvoton\\demo_robot_3wheel\\SampleCode\\NuCodeGen\\DemoCodeGen\\KEIL" "../../../../Library/Device/Nuvoton/M251/Include/pwm_reg.h"
	.file	4 "E:\\ROBOCON2024\\01. Coding\\Nuvoton\\demo_robot_3wheel\\SampleCode\\NuCodeGen\\DemoCodeGen\\KEIL" "../../../../Library/Device/Nuvoton/M251/Include/clk_reg.h"
	.section	.text.PWM_ConfigCaptureChannel,"ax",%progbits
	.hidden	PWM_ConfigCaptureChannel        @ -- Begin function PWM_ConfigCaptureChannel
	.globl	PWM_ConfigCaptureChannel
	.p2align	2
	.type	PWM_ConfigCaptureChannel,%function
	.code	16                              @ @PWM_ConfigCaptureChannel
	.thumb_func
PWM_ConfigCaptureChannel:
.Lfunc_begin0:
	.file	5 "E:\\ROBOCON2024\\01. Coding\\Nuvoton\\demo_robot_3wheel\\SampleCode\\NuCodeGen\\DemoCodeGen\\KEIL" "../../../../Library/StdDriver/src/pwm.c"
	.loc	5 36 0                          @ ../../../../Library/StdDriver/src/pwm.c:36:0
	.fnstart
	.cfi_sections .debug_frame
	.cfi_startproc
@ %bb.0:
	.save	{r7, lr}
	push	{r7, lr}
	.cfi_def_cfa_offset 8
	.cfi_offset lr, -4
	.cfi_offset r7, -8
	.pad	#40
	sub	sp, #40
	.cfi_def_cfa_offset 48
	str	r0, [sp, #36]
	str	r1, [sp, #32]
	str	r2, [sp, #28]
	str	r3, [sp, #24]
	add	r1, sp, #8
	movs	r0, #1
.Ltmp0:
	.loc	5 40 14 prologue_end            @ ../../../../Library/StdDriver/src/pwm.c:40:14
	strh	r0, [r1]
	add	r2, sp, #4
	ldr	r1, __arm_cp.0_0
	.loc	5 40 33 is_stmt 0               @ ../../../../Library/StdDriver/src/pwm.c:40:33
	strh	r1, [r2]
	mov	r2, sp
	movs	r1, #0
	.loc	5 41 13 is_stmt 1               @ ../../../../Library/StdDriver/src/pwm.c:41:13
	strb	r1, [r2]
	lsls	r0, r0, #30
.Ltmp1:
	.loc	5 44 15                         @ ../../../../Library/StdDriver/src/pwm.c:44:15
	ldr	r0, [r0]
	ldr	r1, __arm_cp.0_1
	.loc	5 44 20 is_stmt 0               @ ../../../../Library/StdDriver/src/pwm.c:44:20
	ands	r0, r1
	ldr	r1, __arm_cp.0_2
	.loc	5 44 40                         @ ../../../../Library/StdDriver/src/pwm.c:44:40
	cmp	r0, r1
	beq	.LBB0_6
	b	.LBB0_1
.LBB0_1:
	.loc	5 0 40                          @ ../../../../Library/StdDriver/src/pwm.c:0:40
	movs	r0, #1
	lsls	r0, r0, #30
	.loc	5 44 49                         @ ../../../../Library/StdDriver/src/pwm.c:44:49
	ldr	r0, [r0]
	ldr	r1, __arm_cp.0_1
	.loc	5 44 54                         @ ../../../../Library/StdDriver/src/pwm.c:44:54
	ands	r0, r1
	ldr	r1, __arm_cp.0_3
	.loc	5 44 74                         @ ../../../../Library/StdDriver/src/pwm.c:44:74
	cmp	r0, r1
	beq	.LBB0_6
	b	.LBB0_2
.LBB0_2:
	.loc	5 0 74                          @ ../../../../Library/StdDriver/src/pwm.c:0:74
	movs	r0, #1
	lsls	r0, r0, #30
	.loc	5 44 83                         @ ../../../../Library/StdDriver/src/pwm.c:44:83
	ldr	r0, [r0]
	ldr	r1, __arm_cp.0_1
	.loc	5 44 88                         @ ../../../../Library/StdDriver/src/pwm.c:44:88
	ands	r0, r1
	ldr	r1, __arm_cp.0_4
	.loc	5 44 108                        @ ../../../../Library/StdDriver/src/pwm.c:44:108
	cmp	r0, r1
	beq	.LBB0_6
	b	.LBB0_3
.LBB0_3:
	.loc	5 0 108                         @ ../../../../Library/StdDriver/src/pwm.c:0:108
	movs	r0, #1
	lsls	r0, r0, #30
	.loc	5 44 117                        @ ../../../../Library/StdDriver/src/pwm.c:44:117
	ldr	r0, [r0]
	ldr	r1, __arm_cp.0_1
	.loc	5 44 122                        @ ../../../../Library/StdDriver/src/pwm.c:44:122
	ands	r0, r1
	ldr	r1, __arm_cp.0_5
	.loc	5 44 142                        @ ../../../../Library/StdDriver/src/pwm.c:44:142
	cmp	r0, r1
	beq	.LBB0_6
	b	.LBB0_4
.LBB0_4:
	.loc	5 0 142                         @ ../../../../Library/StdDriver/src/pwm.c:0:142
	movs	r0, #1
	lsls	r0, r0, #30
	.loc	5 44 151                        @ ../../../../Library/StdDriver/src/pwm.c:44:151
	ldr	r0, [r0]
	ldr	r1, __arm_cp.0_1
	.loc	5 44 156                        @ ../../../../Library/StdDriver/src/pwm.c:44:156
	ands	r0, r1
	ldr	r1, __arm_cp.0_6
	.loc	5 45 13 is_stmt 1               @ ../../../../Library/StdDriver/src/pwm.c:45:13
	cmp	r0, r1
	beq	.LBB0_6
	b	.LBB0_5
.LBB0_5:
	.loc	5 0 13 is_stmt 0                @ ../../../../Library/StdDriver/src/pwm.c:0:13
	movs	r0, #1
	lsls	r0, r0, #30
	.loc	5 45 22                         @ ../../../../Library/StdDriver/src/pwm.c:45:22
	ldr	r0, [r0]
	ldr	r1, __arm_cp.0_1
	.loc	5 45 27                         @ ../../../../Library/StdDriver/src/pwm.c:45:27
	ands	r0, r1
	ldr	r1, __arm_cp.0_7
.Ltmp2:
	.loc	5 44 9 is_stmt 1                @ ../../../../Library/StdDriver/src/pwm.c:44:9
	cmp	r0, r1
	bne	.LBB0_10
	b	.LBB0_6
.LBB0_6:
.Ltmp3:
	.loc	5 47 13                         @ ../../../../Library/StdDriver/src/pwm.c:47:13
	ldr	r0, [sp, #36]
	ldr	r1, __arm_cp.0_8
.Ltmp4:
	.loc	5 47 13 is_stmt 0               @ ../../../../Library/StdDriver/src/pwm.c:47:13
	cmp	r0, r1
	bne	.LBB0_8
	b	.LBB0_7
.LBB0_7:
	.loc	5 0 13                          @ ../../../../Library/StdDriver/src/pwm.c:0:13
	movs	r0, #1
.Ltmp5:
	.loc	5 49 20 is_stmt 1               @ ../../../../Library/StdDriver/src/pwm.c:49:20
	str	r0, [sp, #20]
	.loc	5 50 9                          @ ../../../../Library/StdDriver/src/pwm.c:50:9
	b	.LBB0_9
.Ltmp6:
.LBB0_8:
	.loc	5 0 9 is_stmt 0                 @ ../../../../Library/StdDriver/src/pwm.c:0:9
	movs	r0, #2
.Ltmp7:
	.loc	5 53 20 is_stmt 1               @ ../../../../Library/StdDriver/src/pwm.c:53:20
	str	r0, [sp, #20]
	b	.LBB0_9
.Ltmp8:
.LBB0_9:
	.loc	5 55 5                          @ ../../../../Library/StdDriver/src/pwm.c:55:5
	b	.LBB0_14
.Ltmp9:
.LBB0_10:
	.loc	5 58 13                         @ ../../../../Library/StdDriver/src/pwm.c:58:13
	ldr	r0, [sp, #36]
	ldr	r1, __arm_cp.0_8
.Ltmp10:
	.loc	5 58 13 is_stmt 0               @ ../../../../Library/StdDriver/src/pwm.c:58:13
	cmp	r0, r1
	bne	.LBB0_12
	b	.LBB0_11
.LBB0_11:
	.loc	5 0 13                          @ ../../../../Library/StdDriver/src/pwm.c:0:13
	ldr	r0, __arm_cp.0_9
.Ltmp11:
	.loc	5 59 27 is_stmt 1               @ ../../../../Library/StdDriver/src/pwm.c:59:27
	ldr	r0, [r0]
	movs	r1, #1
	.loc	5 59 35 is_stmt 0               @ ../../../../Library/StdDriver/src/pwm.c:59:35
	ands	r0, r1
	.loc	5 59 20                         @ ../../../../Library/StdDriver/src/pwm.c:59:20
	str	r0, [sp, #20]
	.loc	5 59 13                         @ ../../../../Library/StdDriver/src/pwm.c:59:13
	b	.LBB0_13
.LBB0_12:
	.loc	5 0 13                          @ ../../../../Library/StdDriver/src/pwm.c:0:13
	ldr	r0, __arm_cp.0_9
	.loc	5 61 27 is_stmt 1               @ ../../../../Library/StdDriver/src/pwm.c:61:27
	ldr	r0, [r0]
	movs	r1, #2
	.loc	5 61 35 is_stmt 0               @ ../../../../Library/StdDriver/src/pwm.c:61:35
	ands	r0, r1
	.loc	5 61 20                         @ ../../../../Library/StdDriver/src/pwm.c:61:20
	str	r0, [sp, #20]
	b	.LBB0_13
.Ltmp12:
.LBB0_13:
	.loc	5 0 20                          @ ../../../../Library/StdDriver/src/pwm.c:0:20
	b	.LBB0_14
.LBB0_14:
.Ltmp13:
	.loc	5 64 9 is_stmt 1                @ ../../../../Library/StdDriver/src/pwm.c:64:9
	ldr	r0, [sp, #20]
.Ltmp14:
	.loc	5 64 9 is_stmt 0                @ ../../../../Library/StdDriver/src/pwm.c:64:9
	cbnz	r0, .LBB0_16
	b	.LBB0_15
.LBB0_15:
.Ltmp15:
	.loc	5 67 26 is_stmt 1               @ ../../../../Library/StdDriver/src/pwm.c:67:26
	bl	CLK_GetPLLClockFreq
	.loc	5 67 24 is_stmt 0               @ ../../../../Library/StdDriver/src/pwm.c:67:24
	str	r0, [sp, #16]
	.loc	5 68 5 is_stmt 1                @ ../../../../Library/StdDriver/src/pwm.c:68:5
	b	.LBB0_20
.Ltmp16:
.LBB0_16:
	.loc	5 72 9                          @ ../../../../Library/StdDriver/src/pwm.c:72:9
	bl	SystemCoreClockUpdate
.Ltmp17:
	.loc	5 74 13                         @ ../../../../Library/StdDriver/src/pwm.c:74:13
	ldr	r0, [sp, #36]
	ldr	r1, __arm_cp.0_8
.Ltmp18:
	.loc	5 74 13 is_stmt 0               @ ../../../../Library/StdDriver/src/pwm.c:74:13
	cmp	r0, r1
	bne	.LBB0_18
	b	.LBB0_17
.LBB0_17:
.Ltmp19:
	.loc	5 76 30 is_stmt 1               @ ../../../../Library/StdDriver/src/pwm.c:76:30
	bl	CLK_GetPCLK0Freq
	.loc	5 76 28 is_stmt 0               @ ../../../../Library/StdDriver/src/pwm.c:76:28
	str	r0, [sp, #16]
	.loc	5 77 9 is_stmt 1                @ ../../../../Library/StdDriver/src/pwm.c:77:9
	b	.LBB0_19
.Ltmp20:
.LBB0_18:
	.loc	5 80 30                         @ ../../../../Library/StdDriver/src/pwm.c:80:30
	bl	CLK_GetPCLK1Freq
	.loc	5 80 28 is_stmt 0               @ ../../../../Library/StdDriver/src/pwm.c:80:28
	str	r0, [sp, #16]
	b	.LBB0_19
.Ltmp21:
.LBB0_19:
	.loc	5 0 28                          @ ../../../../Library/StdDriver/src/pwm.c:0:28
	b	.LBB0_20
.LBB0_20:
	.loc	5 84 20 is_stmt 1               @ ../../../../Library/StdDriver/src/pwm.c:84:20
	ldr	r0, [sp, #16]
	movw	r1, #1000
	udiv	r0, r0, r1
	str	r0, [sp, #16]
	add	r1, sp, #8
	movs	r0, #1
.Ltmp22:
	.loc	5 86 22                         @ ../../../../Library/StdDriver/src/pwm.c:86:22
	strh	r0, [r1]
	.loc	5 86 10 is_stmt 0               @ ../../../../Library/StdDriver/src/pwm.c:86:10
	b	.LBB0_21
.LBB0_21:                               @ =>This Inner Loop Header: Depth=1
	.loc	5 0 10                          @ ../../../../Library/StdDriver/src/pwm.c:0:10
	add	r0, sp, #8
.Ltmp23:
	.loc	5 86 29                         @ ../../../../Library/StdDriver/src/pwm.c:86:29
	ldrh	r0, [r0]
	movw	r1, #4096
.Ltmp24:
	.loc	5 86 5                          @ ../../../../Library/StdDriver/src/pwm.c:86:5
	cmp	r0, r1
	bhi	.LBB0_33
	b	.LBB0_22
.LBB0_22:                               @   in Loop: Header=BB0_21 Depth=1
	.loc	5 0 5                           @ ../../../../Library/StdDriver/src/pwm.c:0:5
	add	r0, sp, #8
.Ltmp25:
	.loc	5 88 47 is_stmt 1               @ ../../../../Library/StdDriver/src/pwm.c:88:47
	ldrh	r1, [r0]
	ldr	r0, __arm_cp.0_10
	.loc	5 88 45 is_stmt 0               @ ../../../../Library/StdDriver/src/pwm.c:88:45
	muls	r0, r1, r0
	.loc	5 88 62                         @ ../../../../Library/StdDriver/src/pwm.c:88:62
	ldr	r1, [sp, #16]
	.loc	5 88 60                         @ ../../../../Library/StdDriver/src/pwm.c:88:60
	udiv	r0, r0, r1
	.loc	5 88 32                         @ ../../../../Library/StdDriver/src/pwm.c:88:32
	str	r0, [sp, #12]
.Ltmp26:
	.loc	5 90 13 is_stmt 1               @ ../../../../Library/StdDriver/src/pwm.c:90:13
	ldr	r0, [sp, #12]
	.loc	5 90 38 is_stmt 0               @ ../../../../Library/StdDriver/src/pwm.c:90:38
	ldr	r1, [sp, #28]
.Ltmp27:
	.loc	5 90 13                         @ ../../../../Library/StdDriver/src/pwm.c:90:13
	cmp	r0, r1
	bhs	.LBB0_28
	b	.LBB0_23
.LBB0_23:                               @   in Loop: Header=BB0_21 Depth=1
	.loc	5 0 13                          @ ../../../../Library/StdDriver/src/pwm.c:0:13
	add	r0, sp, #8
.Ltmp28:
	.loc	5 92 17 is_stmt 1               @ ../../../../Library/StdDriver/src/pwm.c:92:17
	ldrh	r0, [r0]
	movw	r1, #4096
.Ltmp29:
	.loc	5 92 17 is_stmt 0               @ ../../../../Library/StdDriver/src/pwm.c:92:17
	cmp	r0, r1
	bne	.LBB0_25
	b	.LBB0_24
.LBB0_24:                               @   in Loop: Header=BB0_21 Depth=1
	.loc	5 0 17                          @ ../../../../Library/StdDriver/src/pwm.c:0:17
	mov	r1, sp
	movs	r0, #1
.Ltmp30:
	.loc	5 95 29 is_stmt 1               @ ../../../../Library/StdDriver/src/pwm.c:95:29
	strb	r0, [r1]
	.loc	5 96 13                         @ ../../../../Library/StdDriver/src/pwm.c:96:13
	b	.LBB0_25
.Ltmp31:
.LBB0_25:                               @   in Loop: Header=BB0_21 Depth=1
	.loc	5 0 13 is_stmt 0                @ ../../../../Library/StdDriver/src/pwm.c:0:13
	add	r0, sp, #8
.Ltmp32:
	.loc	5 98 33 is_stmt 1               @ ../../../../Library/StdDriver/src/pwm.c:98:33
	ldrh	r0, [r0]
	.loc	5 98 45 is_stmt 0               @ ../../../../Library/StdDriver/src/pwm.c:98:45
	adds	r1, r0, #1
	ldr	r0, __arm_cp.0_10
	.loc	5 98 30                         @ ../../../../Library/StdDriver/src/pwm.c:98:30
	muls	r0, r1, r0
	.loc	5 98 55                         @ ../../../../Library/StdDriver/src/pwm.c:98:55
	ldr	r2, [sp, #12]
	.loc	5 98 80                         @ ../../../../Library/StdDriver/src/pwm.c:98:80
	ldr	r1, [sp, #16]
	.loc	5 98 78                         @ ../../../../Library/StdDriver/src/pwm.c:98:78
	muls	r1, r2, r1
.Ltmp33:
	.loc	5 98 17                         @ ../../../../Library/StdDriver/src/pwm.c:98:17
	cmp	r0, r1
	bhi	.LBB0_27
	b	.LBB0_26
.LBB0_26:                               @   in Loop: Header=BB0_21 Depth=1
	.loc	5 0 17                          @ ../../../../Library/StdDriver/src/pwm.c:0:17
	mov	r1, sp
	movs	r0, #1
.Ltmp34:
	.loc	5 100 29 is_stmt 1              @ ../../../../Library/StdDriver/src/pwm.c:100:29
	strb	r0, [r1]
	.loc	5 101 13                        @ ../../../../Library/StdDriver/src/pwm.c:101:13
	b	.LBB0_27
.Ltmp35:
.LBB0_27:                               @   in Loop: Header=BB0_21 Depth=1
	.loc	5 102 9                         @ ../../../../Library/StdDriver/src/pwm.c:102:9
	b	.LBB0_29
.Ltmp36:
.LBB0_28:                               @   in Loop: Header=BB0_21 Depth=1
	.loc	5 0 9 is_stmt 0                 @ ../../../../Library/StdDriver/src/pwm.c:0:9
	mov	r1, sp
	movs	r0, #1
.Ltmp37:
	.loc	5 105 25 is_stmt 1              @ ../../../../Library/StdDriver/src/pwm.c:105:25
	strb	r0, [r1]
	b	.LBB0_29
.Ltmp38:
.LBB0_29:                               @   in Loop: Header=BB0_21 Depth=1
	.loc	5 0 25 is_stmt 0                @ ../../../../Library/StdDriver/src/pwm.c:0:25
	mov	r0, sp
.Ltmp39:
	.loc	5 108 13 is_stmt 1              @ ../../../../Library/StdDriver/src/pwm.c:108:13
	ldrb	r0, [r0]
.Ltmp40:
	.loc	5 108 13 is_stmt 0              @ ../../../../Library/StdDriver/src/pwm.c:108:13
	cbz	r0, .LBB0_31
	b	.LBB0_30
.LBB0_30:
.Ltmp41:
	.loc	5 110 13 is_stmt 1              @ ../../../../Library/StdDriver/src/pwm.c:110:13
	b	.LBB0_33
.Ltmp42:
.LBB0_31:                               @   in Loop: Header=BB0_21 Depth=1
	.loc	5 112 5                         @ ../../../../Library/StdDriver/src/pwm.c:112:5
	b	.LBB0_32
.Ltmp43:
.LBB0_32:                               @   in Loop: Header=BB0_21 Depth=1
	.loc	5 86 65                         @ ../../../../Library/StdDriver/src/pwm.c:86:65
	ldr	r0, [sp, #8]
	adds	r0, r0, #1
	add	r1, sp, #8
	strh	r0, [r1]
	.loc	5 86 5 is_stmt 0                @ ../../../../Library/StdDriver/src/pwm.c:86:5
	b	.LBB0_21
.Ltmp44:
.LBB0_33:
	.loc	5 115 19 is_stmt 1              @ ../../../../Library/StdDriver/src/pwm.c:115:19
	ldr	r0, [sp, #8]
	.loc	5 115 31 is_stmt 0              @ ../../../../Library/StdDriver/src/pwm.c:115:31
	subs	r1, r0, #1
	add	r0, sp, #8
	.loc	5 115 17                        @ ../../../../Library/StdDriver/src/pwm.c:115:17
	strh	r1, [r0]
	.loc	5 117 5 is_stmt 1               @ ../../../../Library/StdDriver/src/pwm.c:117:5
	ldrh	r0, [r0]
	ldr	r1, [sp, #36]
	ldr	r2, [sp, #32]
	lsrs	r2, r2, #1
	lsls	r2, r2, #2
	adds	r1, r1, r2
	str	r0, [r1, #20]
	.loc	5 120 21                        @ ../../../../Library/StdDriver/src/pwm.c:120:21
	ldr	r0, [sp, #36]
	.loc	5 120 27 is_stmt 0              @ ../../../../Library/StdDriver/src/pwm.c:120:27
	ldr	r0, [r0, #4]
	.loc	5 120 63                        @ ../../../../Library/StdDriver/src/pwm.c:120:63
	ldr	r1, [sp, #32]
	.loc	5 120 85                        @ ../../../../Library/StdDriver/src/pwm.c:120:85
	lsrs	r1, r1, #1
	lsls	r2, r1, #2
	movs	r1, #3
	.loc	5 120 58                        @ ../../../../Library/StdDriver/src/pwm.c:120:58
	lsls	r1, r2
	.loc	5 120 32                        @ ../../../../Library/StdDriver/src/pwm.c:120:32
	bics	r0, r1
	movs	r1, #1
	.loc	5 120 102                       @ ../../../../Library/StdDriver/src/pwm.c:120:102
	lsls	r1, r2
	.loc	5 120 95                        @ ../../../../Library/StdDriver/src/pwm.c:120:95
	orrs	r0, r1
	.loc	5 120 6                         @ ../../../../Library/StdDriver/src/pwm.c:120:6
	ldr	r1, [sp, #36]
	.loc	5 120 17                        @ ../../../../Library/StdDriver/src/pwm.c:120:17
	str	r0, [r1, #4]
	add	r0, sp, #4
	.loc	5 122 5 is_stmt 1               @ ../../../../Library/StdDriver/src/pwm.c:122:5
	ldrh	r0, [r0]
	ldr	r1, [sp, #36]
	ldr	r2, [sp, #32]
	lsrs	r2, r2, #1
	lsls	r2, r2, #3
	adds	r1, r1, r2
	str	r0, [r1, #48]
	.loc	5 124 13                        @ ../../../../Library/StdDriver/src/pwm.c:124:13
	ldr	r0, [sp, #12]
	.loc	5 124 5 is_stmt 0               @ ../../../../Library/StdDriver/src/pwm.c:124:5
	add	sp, #40
	pop	{r7, pc}
.Ltmp45:
	.p2align	2
@ %bb.34:
	.loc	5 0 5                           @ ../../../../Library/StdDriver/src/pwm.c:0:5
__arm_cp.0_0:
	.long	65535                           @ 0xffff
.Lcpi_end0:
	.size	__arm_cp.0_0, .Lcpi_end0-__arm_cp.0_0
__arm_cp.0_1:
	.long	65520                           @ 0xfff0
.Lcpi_end1:
	.size	__arm_cp.0_1, .Lcpi_end1-__arm_cp.0_1
__arm_cp.0_2:
	.long	21216                           @ 0x52e0
.Lcpi_end2:
	.size	__arm_cp.0_2, .Lcpi_end2-__arm_cp.0_2
__arm_cp.0_3:
	.long	21152                           @ 0x52a0
.Lcpi_end3:
	.size	__arm_cp.0_3, .Lcpi_end3-__arm_cp.0_3
__arm_cp.0_4:
	.long	21168                           @ 0x52b0
.Lcpi_end4:
	.size	__arm_cp.0_4, .Lcpi_end4-__arm_cp.0_4
__arm_cp.0_5:
	.long	20960                           @ 0x51e0
.Lcpi_end5:
	.size	__arm_cp.0_5, .Lcpi_end5-__arm_cp.0_5
__arm_cp.0_6:
	.long	20896                           @ 0x51a0
.Lcpi_end6:
	.size	__arm_cp.0_6, .Lcpi_end6-__arm_cp.0_6
__arm_cp.0_7:
	.long	20912                           @ 0x51b0
.Lcpi_end7:
	.size	__arm_cp.0_7, .Lcpi_end7-__arm_cp.0_7
__arm_cp.0_8:
	.long	1074102272                      @ 0x40058000
.Lcpi_end8:
	.size	__arm_cp.0_8, .Lcpi_end8-__arm_cp.0_8
__arm_cp.0_9:
	.long	1073742360                      @ 0x40000218
.Lcpi_end9:
	.size	__arm_cp.0_9, .Lcpi_end9-__arm_cp.0_9
__arm_cp.0_10:
	.long	1000000                         @ 0xf4240
.Lcpi_end10:
	.size	__arm_cp.0_10, .Lcpi_end10-__arm_cp.0_10
.Lfunc_end0:
	.size	PWM_ConfigCaptureChannel, .Lfunc_end0-PWM_ConfigCaptureChannel
	.cfi_endproc
	.cantunwind
	.fnend
                                        @ -- End function
	.section	.text.PWM_ConfigOutputChannel,"ax",%progbits
	.hidden	PWM_ConfigOutputChannel         @ -- Begin function PWM_ConfigOutputChannel
	.globl	PWM_ConfigOutputChannel
	.p2align	2
	.type	PWM_ConfigOutputChannel,%function
	.code	16                              @ @PWM_ConfigOutputChannel
	.thumb_func
PWM_ConfigOutputChannel:
.Lfunc_begin1:
	.loc	5 140 0 is_stmt 1               @ ../../../../Library/StdDriver/src/pwm.c:140:0
	.fnstart
	.cfi_startproc
@ %bb.0:
	.save	{r4, lr}
	push	{r4, lr}
	.cfi_def_cfa_offset 8
	.cfi_offset lr, -4
	.cfi_offset r4, -8
	.pad	#40
	sub	sp, #40
	.cfi_def_cfa_offset 48
	str	r0, [sp, #36]
	str	r1, [sp, #32]
	str	r2, [sp, #28]
	str	r3, [sp, #24]
	add	r1, sp, #8
	movs	r0, #1
.Ltmp46:
	.loc	5 144 14 prologue_end           @ ../../../../Library/StdDriver/src/pwm.c:144:14
	strh	r0, [r1]
	add	r2, sp, #4
	ldr	r1, __arm_cp.1_0
	.loc	5 144 33 is_stmt 0              @ ../../../../Library/StdDriver/src/pwm.c:144:33
	strh	r1, [r2]
	lsls	r0, r0, #30
.Ltmp47:
	.loc	5 147 15 is_stmt 1              @ ../../../../Library/StdDriver/src/pwm.c:147:15
	ldr	r0, [r0]
	ldr	r1, __arm_cp.1_1
	.loc	5 147 20 is_stmt 0              @ ../../../../Library/StdDriver/src/pwm.c:147:20
	ands	r0, r1
	ldr	r1, __arm_cp.1_2
	.loc	5 147 40                        @ ../../../../Library/StdDriver/src/pwm.c:147:40
	cmp	r0, r1
	beq	.LBB1_6
	b	.LBB1_1
.LBB1_1:
	.loc	5 0 40                          @ ../../../../Library/StdDriver/src/pwm.c:0:40
	movs	r0, #1
	lsls	r0, r0, #30
	.loc	5 147 49                        @ ../../../../Library/StdDriver/src/pwm.c:147:49
	ldr	r0, [r0]
	ldr	r1, __arm_cp.1_1
	.loc	5 147 54                        @ ../../../../Library/StdDriver/src/pwm.c:147:54
	ands	r0, r1
	ldr	r1, __arm_cp.1_3
	.loc	5 147 74                        @ ../../../../Library/StdDriver/src/pwm.c:147:74
	cmp	r0, r1
	beq	.LBB1_6
	b	.LBB1_2
.LBB1_2:
	.loc	5 0 74                          @ ../../../../Library/StdDriver/src/pwm.c:0:74
	movs	r0, #1
	lsls	r0, r0, #30
	.loc	5 147 83                        @ ../../../../Library/StdDriver/src/pwm.c:147:83
	ldr	r0, [r0]
	ldr	r1, __arm_cp.1_1
	.loc	5 147 88                        @ ../../../../Library/StdDriver/src/pwm.c:147:88
	ands	r0, r1
	ldr	r1, __arm_cp.1_4
	.loc	5 147 108                       @ ../../../../Library/StdDriver/src/pwm.c:147:108
	cmp	r0, r1
	beq	.LBB1_6
	b	.LBB1_3
.LBB1_3:
	.loc	5 0 108                         @ ../../../../Library/StdDriver/src/pwm.c:0:108
	movs	r0, #1
	lsls	r0, r0, #30
	.loc	5 147 117                       @ ../../../../Library/StdDriver/src/pwm.c:147:117
	ldr	r0, [r0]
	ldr	r1, __arm_cp.1_1
	.loc	5 147 122                       @ ../../../../Library/StdDriver/src/pwm.c:147:122
	ands	r0, r1
	ldr	r1, __arm_cp.1_5
	.loc	5 147 142                       @ ../../../../Library/StdDriver/src/pwm.c:147:142
	cmp	r0, r1
	beq	.LBB1_6
	b	.LBB1_4
.LBB1_4:
	.loc	5 0 142                         @ ../../../../Library/StdDriver/src/pwm.c:0:142
	movs	r0, #1
	lsls	r0, r0, #30
	.loc	5 147 151                       @ ../../../../Library/StdDriver/src/pwm.c:147:151
	ldr	r0, [r0]
	ldr	r1, __arm_cp.1_1
	.loc	5 147 156                       @ ../../../../Library/StdDriver/src/pwm.c:147:156
	ands	r0, r1
	ldr	r1, __arm_cp.1_6
	.loc	5 148 13 is_stmt 1              @ ../../../../Library/StdDriver/src/pwm.c:148:13
	cmp	r0, r1
	beq	.LBB1_6
	b	.LBB1_5
.LBB1_5:
	.loc	5 0 13 is_stmt 0                @ ../../../../Library/StdDriver/src/pwm.c:0:13
	movs	r0, #1
	lsls	r0, r0, #30
	.loc	5 148 22                        @ ../../../../Library/StdDriver/src/pwm.c:148:22
	ldr	r0, [r0]
	ldr	r1, __arm_cp.1_1
	.loc	5 148 27                        @ ../../../../Library/StdDriver/src/pwm.c:148:27
	ands	r0, r1
	ldr	r1, __arm_cp.1_7
.Ltmp48:
	.loc	5 147 9 is_stmt 1               @ ../../../../Library/StdDriver/src/pwm.c:147:9
	cmp	r0, r1
	bne	.LBB1_10
	b	.LBB1_6
.LBB1_6:
.Ltmp49:
	.loc	5 150 13                        @ ../../../../Library/StdDriver/src/pwm.c:150:13
	ldr	r0, [sp, #36]
	ldr	r1, __arm_cp.1_8
.Ltmp50:
	.loc	5 150 13 is_stmt 0              @ ../../../../Library/StdDriver/src/pwm.c:150:13
	cmp	r0, r1
	bne	.LBB1_8
	b	.LBB1_7
.LBB1_7:
	.loc	5 0 13                          @ ../../../../Library/StdDriver/src/pwm.c:0:13
	movs	r0, #1
.Ltmp51:
	.loc	5 152 20 is_stmt 1              @ ../../../../Library/StdDriver/src/pwm.c:152:20
	str	r0, [sp, #20]
	.loc	5 153 9                         @ ../../../../Library/StdDriver/src/pwm.c:153:9
	b	.LBB1_9
.Ltmp52:
.LBB1_8:
	.loc	5 0 9 is_stmt 0                 @ ../../../../Library/StdDriver/src/pwm.c:0:9
	movs	r0, #2
.Ltmp53:
	.loc	5 156 20 is_stmt 1              @ ../../../../Library/StdDriver/src/pwm.c:156:20
	str	r0, [sp, #20]
	b	.LBB1_9
.Ltmp54:
.LBB1_9:
	.loc	5 158 5                         @ ../../../../Library/StdDriver/src/pwm.c:158:5
	b	.LBB1_14
.Ltmp55:
.LBB1_10:
	.loc	5 161 13                        @ ../../../../Library/StdDriver/src/pwm.c:161:13
	ldr	r0, [sp, #36]
	ldr	r1, __arm_cp.1_8
.Ltmp56:
	.loc	5 161 13 is_stmt 0              @ ../../../../Library/StdDriver/src/pwm.c:161:13
	cmp	r0, r1
	bne	.LBB1_12
	b	.LBB1_11
.LBB1_11:
	.loc	5 0 13                          @ ../../../../Library/StdDriver/src/pwm.c:0:13
	ldr	r0, __arm_cp.1_9
.Ltmp57:
	.loc	5 162 27 is_stmt 1              @ ../../../../Library/StdDriver/src/pwm.c:162:27
	ldr	r0, [r0]
	movs	r1, #1
	.loc	5 162 35 is_stmt 0              @ ../../../../Library/StdDriver/src/pwm.c:162:35
	ands	r0, r1
	.loc	5 162 20                        @ ../../../../Library/StdDriver/src/pwm.c:162:20
	str	r0, [sp, #20]
	.loc	5 162 13                        @ ../../../../Library/StdDriver/src/pwm.c:162:13
	b	.LBB1_13
.LBB1_12:
	.loc	5 0 13                          @ ../../../../Library/StdDriver/src/pwm.c:0:13
	ldr	r0, __arm_cp.1_9
	.loc	5 164 27 is_stmt 1              @ ../../../../Library/StdDriver/src/pwm.c:164:27
	ldr	r0, [r0]
	movs	r1, #2
	.loc	5 164 35 is_stmt 0              @ ../../../../Library/StdDriver/src/pwm.c:164:35
	ands	r0, r1
	.loc	5 164 20                        @ ../../../../Library/StdDriver/src/pwm.c:164:20
	str	r0, [sp, #20]
	b	.LBB1_13
.Ltmp58:
.LBB1_13:
	.loc	5 0 20                          @ ../../../../Library/StdDriver/src/pwm.c:0:20
	b	.LBB1_14
.LBB1_14:
.Ltmp59:
	.loc	5 167 9 is_stmt 1               @ ../../../../Library/StdDriver/src/pwm.c:167:9
	ldr	r0, [sp, #20]
.Ltmp60:
	.loc	5 167 9 is_stmt 0               @ ../../../../Library/StdDriver/src/pwm.c:167:9
	cbnz	r0, .LBB1_16
	b	.LBB1_15
.LBB1_15:
.Ltmp61:
	.loc	5 170 26 is_stmt 1              @ ../../../../Library/StdDriver/src/pwm.c:170:26
	bl	CLK_GetPLLClockFreq
	.loc	5 170 24 is_stmt 0              @ ../../../../Library/StdDriver/src/pwm.c:170:24
	str	r0, [sp, #16]
	.loc	5 171 5 is_stmt 1               @ ../../../../Library/StdDriver/src/pwm.c:171:5
	b	.LBB1_20
.Ltmp62:
.LBB1_16:
	.loc	5 175 9                         @ ../../../../Library/StdDriver/src/pwm.c:175:9
	bl	SystemCoreClockUpdate
.Ltmp63:
	.loc	5 177 13                        @ ../../../../Library/StdDriver/src/pwm.c:177:13
	ldr	r0, [sp, #36]
	ldr	r1, __arm_cp.1_8
.Ltmp64:
	.loc	5 177 13 is_stmt 0              @ ../../../../Library/StdDriver/src/pwm.c:177:13
	cmp	r0, r1
	bne	.LBB1_18
	b	.LBB1_17
.LBB1_17:
.Ltmp65:
	.loc	5 179 30 is_stmt 1              @ ../../../../Library/StdDriver/src/pwm.c:179:30
	bl	CLK_GetPCLK0Freq
	.loc	5 179 28 is_stmt 0              @ ../../../../Library/StdDriver/src/pwm.c:179:28
	str	r0, [sp, #16]
	.loc	5 180 9 is_stmt 1               @ ../../../../Library/StdDriver/src/pwm.c:180:9
	b	.LBB1_19
.Ltmp66:
.LBB1_18:
	.loc	5 183 30                        @ ../../../../Library/StdDriver/src/pwm.c:183:30
	bl	CLK_GetPCLK1Freq
	.loc	5 183 28 is_stmt 0              @ ../../../../Library/StdDriver/src/pwm.c:183:28
	str	r0, [sp, #16]
	b	.LBB1_19
.Ltmp67:
.LBB1_19:
	.loc	5 0 28                          @ ../../../../Library/StdDriver/src/pwm.c:0:28
	b	.LBB1_20
.LBB1_20:
	add	r1, sp, #8
	movs	r0, #1
.Ltmp68:
	.loc	5 187 22 is_stmt 1              @ ../../../../Library/StdDriver/src/pwm.c:187:22
	strh	r0, [r1]
	.loc	5 187 10 is_stmt 0              @ ../../../../Library/StdDriver/src/pwm.c:187:10
	b	.LBB1_21
.LBB1_21:                               @ =>This Inner Loop Header: Depth=1
	.loc	5 0 10                          @ ../../../../Library/StdDriver/src/pwm.c:0:10
	add	r0, sp, #8
.Ltmp69:
	.loc	5 187 29                        @ ../../../../Library/StdDriver/src/pwm.c:187:29
	ldrh	r0, [r0]
	ldr	r1, __arm_cp.1_10
.Ltmp70:
	.loc	5 187 5                         @ ../../../../Library/StdDriver/src/pwm.c:187:5
	cmp	r0, r1
	bhi	.LBB1_26
	b	.LBB1_22
.LBB1_22:                               @   in Loop: Header=BB1_21 Depth=1
.Ltmp71:
	.loc	5 189 14 is_stmt 1              @ ../../../../Library/StdDriver/src/pwm.c:189:14
	ldr	r0, [sp, #16]
	.loc	5 189 31 is_stmt 0              @ ../../../../Library/StdDriver/src/pwm.c:189:31
	ldr	r1, [sp, #28]
	.loc	5 189 29                        @ ../../../../Library/StdDriver/src/pwm.c:189:29
	udiv	r0, r0, r1
	add	r1, sp, #8
	.loc	5 189 47                        @ ../../../../Library/StdDriver/src/pwm.c:189:47
	ldrh	r1, [r1]
	.loc	5 189 45                        @ ../../../../Library/StdDriver/src/pwm.c:189:45
	udiv	r0, r0, r1
	.loc	5 189 11                        @ ../../../../Library/StdDriver/src/pwm.c:189:11
	str	r0, [sp, #12]
.Ltmp72:
	.loc	5 192 13 is_stmt 1              @ ../../../../Library/StdDriver/src/pwm.c:192:13
	ldr	r0, [sp, #12]
	movs	r1, #1
	lsls	r1, r1, #16
.Ltmp73:
	.loc	5 192 13 is_stmt 0              @ ../../../../Library/StdDriver/src/pwm.c:192:13
	cmp	r0, r1
	bhi	.LBB1_24
	b	.LBB1_23
.LBB1_23:
.Ltmp74:
	.loc	5 194 32 is_stmt 1              @ ../../../../Library/StdDriver/src/pwm.c:194:32
	ldr	r0, [sp, #12]
	add	r1, sp, #4
	.loc	5 194 20 is_stmt 0              @ ../../../../Library/StdDriver/src/pwm.c:194:20
	strh	r0, [r1]
	.loc	5 195 13 is_stmt 1              @ ../../../../Library/StdDriver/src/pwm.c:195:13
	b	.LBB1_26
.Ltmp75:
.LBB1_24:                               @   in Loop: Header=BB1_21 Depth=1
	.loc	5 197 5                         @ ../../../../Library/StdDriver/src/pwm.c:197:5
	b	.LBB1_25
.Ltmp76:
.LBB1_25:                               @   in Loop: Header=BB1_21 Depth=1
	.loc	5 187 63                        @ ../../../../Library/StdDriver/src/pwm.c:187:63
	ldr	r0, [sp, #8]
	adds	r0, r0, #1
	add	r1, sp, #8
	strh	r0, [r1]
	.loc	5 187 5 is_stmt 0               @ ../../../../Library/StdDriver/src/pwm.c:187:5
	b	.LBB1_21
.Ltmp77:
.LBB1_26:
	.loc	5 200 9 is_stmt 1               @ ../../../../Library/StdDriver/src/pwm.c:200:9
	ldr	r2, [sp, #16]
	add	r1, sp, #8
	.loc	5 200 37 is_stmt 0              @ ../../../../Library/StdDriver/src/pwm.c:200:37
	ldrh	r4, [r1]
	add	r0, sp, #4
	.loc	5 200 61                        @ ../../../../Library/StdDriver/src/pwm.c:200:61
	ldrh	r3, [r0]
	.loc	5 200 49                        @ ../../../../Library/StdDriver/src/pwm.c:200:49
	muls	r3, r4, r3
	.loc	5 200 24                        @ ../../../../Library/StdDriver/src/pwm.c:200:24
	udiv	r2, r2, r3
	.loc	5 200 7                         @ ../../../../Library/StdDriver/src/pwm.c:200:7
	str	r2, [sp, #12]
	.loc	5 203 19 is_stmt 1              @ ../../../../Library/StdDriver/src/pwm.c:203:19
	ldr	r2, [sp, #8]
	.loc	5 203 31 is_stmt 0              @ ../../../../Library/StdDriver/src/pwm.c:203:31
	subs	r2, r2, #1
	.loc	5 203 17                        @ ../../../../Library/StdDriver/src/pwm.c:203:17
	strh	r2, [r1]
	.loc	5 205 5 is_stmt 1               @ ../../../../Library/StdDriver/src/pwm.c:205:5
	ldrh	r1, [r1]
	ldr	r2, [sp, #36]
	ldr	r3, [sp, #32]
	lsrs	r3, r3, #1
	lsls	r3, r3, #2
	adds	r2, r2, r3
	str	r1, [r2, #20]
	.loc	5 207 21                        @ ../../../../Library/StdDriver/src/pwm.c:207:21
	ldr	r1, [sp, #36]
	.loc	5 207 27 is_stmt 0              @ ../../../../Library/StdDriver/src/pwm.c:207:27
	ldr	r1, [r1, #4]
	.loc	5 207 63                        @ ../../../../Library/StdDriver/src/pwm.c:207:63
	ldr	r2, [sp, #32]
	.loc	5 207 85                        @ ../../../../Library/StdDriver/src/pwm.c:207:85
	lsrs	r2, r2, #1
	lsls	r3, r2, #2
	movs	r2, #3
	.loc	5 207 58                        @ ../../../../Library/StdDriver/src/pwm.c:207:58
	lsls	r2, r3
	.loc	5 207 32                        @ ../../../../Library/StdDriver/src/pwm.c:207:32
	bics	r1, r2
	movs	r2, #1
	.loc	5 207 102                       @ ../../../../Library/StdDriver/src/pwm.c:207:102
	lsls	r2, r3
	.loc	5 207 95                        @ ../../../../Library/StdDriver/src/pwm.c:207:95
	orrs	r1, r2
	.loc	5 207 6                         @ ../../../../Library/StdDriver/src/pwm.c:207:6
	ldr	r2, [sp, #36]
	.loc	5 207 17                        @ ../../../../Library/StdDriver/src/pwm.c:207:17
	str	r1, [r2, #4]
	.loc	5 209 12 is_stmt 1              @ ../../../../Library/StdDriver/src/pwm.c:209:12
	ldr	r1, [sp, #4]
	subs	r1, r1, #1
	strh	r1, [r0]
	.loc	5 210 5                         @ ../../../../Library/StdDriver/src/pwm.c:210:5
	ldrh	r0, [r0]
	ldr	r1, [sp, #36]
	ldr	r2, [sp, #32]
	lsrs	r2, r2, #1
	lsls	r2, r2, #3
	adds	r1, r1, r2
	str	r0, [r1, #48]
.Ltmp78:
	.loc	5 212 9                         @ ../../../../Library/StdDriver/src/pwm.c:212:9
	ldr	r0, [sp, #24]
.Ltmp79:
	.loc	5 212 9 is_stmt 0               @ ../../../../Library/StdDriver/src/pwm.c:212:9
	cmp	r0, #0
	beq	.LBB1_31
	b	.LBB1_27
.LBB1_27:
.Ltmp80:
	.loc	5 214 13 is_stmt 1              @ ../../../../Library/StdDriver/src/pwm.c:214:13
	ldr	r0, [sp, #24]
.Ltmp81:
	.loc	5 214 13 is_stmt 0              @ ../../../../Library/StdDriver/src/pwm.c:214:13
	cmp	r0, #100
	blo	.LBB1_29
	b	.LBB1_28
.LBB1_28:
	.loc	5 0 13                          @ ../../../../Library/StdDriver/src/pwm.c:0:13
	add	r0, sp, #4
.Ltmp82:
	.loc	5 215 13 is_stmt 1              @ ../../../../Library/StdDriver/src/pwm.c:215:13
	ldrh	r0, [r0]
	ldr	r1, [sp, #36]
	ldr	r2, [sp, #32]
	lsls	r2, r2, #2
	adds	r1, r1, r2
	str	r0, [r1, #80]
	b	.LBB1_30
.LBB1_29:
	.loc	5 217 13                        @ ../../../../Library/StdDriver/src/pwm.c:217:13
	ldr	r1, [sp, #24]
	add	r0, sp, #4
	ldrh	r0, [r0]
	adds	r0, r0, #1
	muls	r0, r1, r0
	movs	r1, #100
	udiv	r0, r0, r1
	ldr	r1, [sp, #36]
	ldr	r2, [sp, #32]
	lsls	r2, r2, #2
	adds	r1, r1, r2
	str	r0, [r1, #80]
	b	.LBB1_30
.Ltmp83:
.LBB1_30:
	.loc	5 219 82                        @ ../../../../Library/StdDriver/src/pwm.c:219:82
	ldr	r0, [sp, #32]
	.loc	5 219 96 is_stmt 0              @ ../../../../Library/StdDriver/src/pwm.c:219:96
	lsls	r0, r0, #1
	ldr	r3, __arm_cp.1_11
	.loc	5 219 78                        @ ../../../../Library/StdDriver/src/pwm.c:219:78
	mov	r4, r3
	lsls	r4, r0
	.loc	5 219 10                        @ ../../../../Library/StdDriver/src/pwm.c:219:10
	ldr	r1, [sp, #36]
	movs	r2, #176
	.loc	5 219 23                        @ ../../../../Library/StdDriver/src/pwm.c:219:23
	ldr	r0, [r1, r2]
	bics	r0, r4
	str	r0, [r1, r2]
	.loc	5 220 47 is_stmt 1              @ ../../../../Library/StdDriver/src/pwm.c:220:47
	ldr	r0, [sp, #32]
	.loc	5 220 61 is_stmt 0              @ ../../../../Library/StdDriver/src/pwm.c:220:61
	lsls	r0, r0, #1
	.loc	5 220 69                        @ ../../../../Library/StdDriver/src/pwm.c:220:69
	adds	r0, #16
	movs	r4, #1
	.loc	5 220 42                        @ ../../../../Library/StdDriver/src/pwm.c:220:42
	lsls	r4, r0
	.loc	5 220 10                        @ ../../../../Library/StdDriver/src/pwm.c:220:10
	ldr	r1, [sp, #36]
	.loc	5 220 23                        @ ../../../../Library/StdDriver/src/pwm.c:220:23
	ldr	r0, [r1, r2]
	orrs	r0, r4
	str	r0, [r1, r2]
	.loc	5 221 84 is_stmt 1              @ ../../../../Library/StdDriver/src/pwm.c:221:84
	ldr	r0, [sp, #32]
	.loc	5 221 98 is_stmt 0              @ ../../../../Library/StdDriver/src/pwm.c:221:98
	lsls	r0, r0, #1
	.loc	5 221 80                        @ ../../../../Library/StdDriver/src/pwm.c:221:80
	lsls	r3, r0
	.loc	5 221 10                        @ ../../../../Library/StdDriver/src/pwm.c:221:10
	ldr	r1, [sp, #36]
	movs	r2, #180
	.loc	5 221 23                        @ ../../../../Library/StdDriver/src/pwm.c:221:23
	ldr	r0, [r1, r2]
	bics	r0, r3
	str	r0, [r1, r2]
	.loc	5 222 48 is_stmt 1              @ ../../../../Library/StdDriver/src/pwm.c:222:48
	ldr	r0, [sp, #32]
	.loc	5 222 62 is_stmt 0              @ ../../../../Library/StdDriver/src/pwm.c:222:62
	lsls	r0, r0, #1
	.loc	5 222 70                        @ ../../../../Library/StdDriver/src/pwm.c:222:70
	adds	r0, #16
	movs	r3, #2
	.loc	5 222 43                        @ ../../../../Library/StdDriver/src/pwm.c:222:43
	lsls	r3, r0
	.loc	5 222 10                        @ ../../../../Library/StdDriver/src/pwm.c:222:10
	ldr	r1, [sp, #36]
	.loc	5 222 23                        @ ../../../../Library/StdDriver/src/pwm.c:222:23
	ldr	r0, [r1, r2]
	orrs	r0, r3
	str	r0, [r1, r2]
	.loc	5 223 5 is_stmt 1               @ ../../../../Library/StdDriver/src/pwm.c:223:5
	b	.LBB1_32
.Ltmp84:
.LBB1_31:
	.loc	5 226 9                         @ ../../../../Library/StdDriver/src/pwm.c:226:9
	ldr	r0, [sp, #36]
	ldr	r1, [sp, #32]
	lsls	r1, r1, #2
	adds	r1, r0, r1
	movs	r0, #0
	str	r0, [r1, #80]
	.loc	5 227 82                        @ ../../../../Library/StdDriver/src/pwm.c:227:82
	ldr	r0, [sp, #32]
	.loc	5 227 96 is_stmt 0              @ ../../../../Library/StdDriver/src/pwm.c:227:96
	lsls	r0, r0, #1
	ldr	r3, __arm_cp.1_11
	.loc	5 227 78                        @ ../../../../Library/StdDriver/src/pwm.c:227:78
	mov	r4, r3
	lsls	r4, r0
	.loc	5 227 10                        @ ../../../../Library/StdDriver/src/pwm.c:227:10
	ldr	r1, [sp, #36]
	movs	r2, #176
	.loc	5 227 23                        @ ../../../../Library/StdDriver/src/pwm.c:227:23
	ldr	r0, [r1, r2]
	bics	r0, r4
	str	r0, [r1, r2]
	.loc	5 228 47 is_stmt 1              @ ../../../../Library/StdDriver/src/pwm.c:228:47
	ldr	r0, [sp, #32]
	.loc	5 228 61 is_stmt 0              @ ../../../../Library/StdDriver/src/pwm.c:228:61
	lsls	r0, r0, #1
	movs	r4, #1
	.loc	5 228 42                        @ ../../../../Library/StdDriver/src/pwm.c:228:42
	lsls	r4, r0
	.loc	5 228 10                        @ ../../../../Library/StdDriver/src/pwm.c:228:10
	ldr	r1, [sp, #36]
	.loc	5 228 23                        @ ../../../../Library/StdDriver/src/pwm.c:228:23
	ldr	r0, [r1, r2]
	orrs	r0, r4
	str	r0, [r1, r2]
	.loc	5 229 84 is_stmt 1              @ ../../../../Library/StdDriver/src/pwm.c:229:84
	ldr	r0, [sp, #32]
	.loc	5 229 98 is_stmt 0              @ ../../../../Library/StdDriver/src/pwm.c:229:98
	lsls	r0, r0, #1
	.loc	5 229 80                        @ ../../../../Library/StdDriver/src/pwm.c:229:80
	lsls	r3, r0
	.loc	5 229 10                        @ ../../../../Library/StdDriver/src/pwm.c:229:10
	ldr	r1, [sp, #36]
	movs	r2, #180
	.loc	5 229 23                        @ ../../../../Library/StdDriver/src/pwm.c:229:23
	ldr	r0, [r1, r2]
	bics	r0, r3
	str	r0, [r1, r2]
	.loc	5 230 48 is_stmt 1              @ ../../../../Library/StdDriver/src/pwm.c:230:48
	ldr	r0, [sp, #32]
	.loc	5 230 62 is_stmt 0              @ ../../../../Library/StdDriver/src/pwm.c:230:62
	lsls	r0, r0, #1
	.loc	5 230 70                        @ ../../../../Library/StdDriver/src/pwm.c:230:70
	adds	r0, #16
	movs	r3, #2
	.loc	5 230 43                        @ ../../../../Library/StdDriver/src/pwm.c:230:43
	lsls	r3, r0
	.loc	5 230 10                        @ ../../../../Library/StdDriver/src/pwm.c:230:10
	ldr	r1, [sp, #36]
	.loc	5 230 23                        @ ../../../../Library/StdDriver/src/pwm.c:230:23
	ldr	r0, [r1, r2]
	orrs	r0, r3
	str	r0, [r1, r2]
	b	.LBB1_32
.Ltmp85:
.LBB1_32:
	.loc	5 233 13 is_stmt 1              @ ../../../../Library/StdDriver/src/pwm.c:233:13
	ldr	r0, [sp, #12]
	.loc	5 233 5 is_stmt 0               @ ../../../../Library/StdDriver/src/pwm.c:233:5
	add	sp, #40
	pop	{r4, pc}
.Ltmp86:
	.p2align	2
@ %bb.33:
	.loc	5 0 5                           @ ../../../../Library/StdDriver/src/pwm.c:0:5
__arm_cp.1_0:
	.long	65535                           @ 0xffff
.Lcpi_end11:
	.size	__arm_cp.1_0, .Lcpi_end11-__arm_cp.1_0
__arm_cp.1_1:
	.long	65520                           @ 0xfff0
.Lcpi_end12:
	.size	__arm_cp.1_1, .Lcpi_end12-__arm_cp.1_1
__arm_cp.1_2:
	.long	21216                           @ 0x52e0
.Lcpi_end13:
	.size	__arm_cp.1_2, .Lcpi_end13-__arm_cp.1_2
__arm_cp.1_3:
	.long	21152                           @ 0x52a0
.Lcpi_end14:
	.size	__arm_cp.1_3, .Lcpi_end14-__arm_cp.1_3
__arm_cp.1_4:
	.long	21168                           @ 0x52b0
.Lcpi_end15:
	.size	__arm_cp.1_4, .Lcpi_end15-__arm_cp.1_4
__arm_cp.1_5:
	.long	20960                           @ 0x51e0
.Lcpi_end16:
	.size	__arm_cp.1_5, .Lcpi_end16-__arm_cp.1_5
__arm_cp.1_6:
	.long	20896                           @ 0x51a0
.Lcpi_end17:
	.size	__arm_cp.1_6, .Lcpi_end17-__arm_cp.1_6
__arm_cp.1_7:
	.long	20912                           @ 0x51b0
.Lcpi_end18:
	.size	__arm_cp.1_7, .Lcpi_end18-__arm_cp.1_7
__arm_cp.1_8:
	.long	1074102272                      @ 0x40058000
.Lcpi_end19:
	.size	__arm_cp.1_8, .Lcpi_end19-__arm_cp.1_8
__arm_cp.1_9:
	.long	1073742360                      @ 0x40000218
.Lcpi_end20:
	.size	__arm_cp.1_9, .Lcpi_end20-__arm_cp.1_9
__arm_cp.1_10:
	.long	4094                            @ 0xffe
.Lcpi_end21:
	.size	__arm_cp.1_10, .Lcpi_end21-__arm_cp.1_10
__arm_cp.1_11:
	.long	196611                          @ 0x30003
.Lcpi_end22:
	.size	__arm_cp.1_11, .Lcpi_end22-__arm_cp.1_11
.Lfunc_end1:
	.size	PWM_ConfigOutputChannel, .Lfunc_end1-PWM_ConfigOutputChannel
	.cfi_endproc
	.cantunwind
	.fnend
                                        @ -- End function
	.section	.text.PWM_Start,"ax",%progbits
	.hidden	PWM_Start                       @ -- Begin function PWM_Start
	.globl	PWM_Start
	.p2align	1
	.type	PWM_Start,%function
	.code	16                              @ @PWM_Start
	.thumb_func
PWM_Start:
.Lfunc_begin2:
	.loc	5 247 0 is_stmt 1               @ ../../../../Library/StdDriver/src/pwm.c:247:0
	.fnstart
	.cfi_startproc
@ %bb.0:
	.pad	#12
	sub	sp, #12
	.cfi_def_cfa_offset 12
	str	r0, [sp, #8]
	str	r1, [sp, #4]
	movs	r0, #0
.Ltmp87:
	.loc	5 250 12 prologue_end           @ ../../../../Library/StdDriver/src/pwm.c:250:12
	str	r0, [sp]
	.loc	5 250 10 is_stmt 0              @ ../../../../Library/StdDriver/src/pwm.c:250:10
	b	.LBB2_1
.LBB2_1:                                @ =>This Inner Loop Header: Depth=1
.Ltmp88:
	.loc	5 250 19                        @ ../../../../Library/StdDriver/src/pwm.c:250:19
	ldr	r0, [sp]
.Ltmp89:
	.loc	5 250 5                         @ ../../../../Library/StdDriver/src/pwm.c:250:5
	cmp	r0, #5
	bhi	.LBB2_6
	b	.LBB2_2
.LBB2_2:                                @   in Loop: Header=BB2_1 Depth=1
.Ltmp90:
	.loc	5 252 13 is_stmt 1              @ ../../../../Library/StdDriver/src/pwm.c:252:13
	ldr	r0, [sp, #4]
	.loc	5 252 38 is_stmt 0              @ ../../../../Library/StdDriver/src/pwm.c:252:38
	ldr	r1, [sp]
.Ltmp91:
	.loc	5 252 13                        @ ../../../../Library/StdDriver/src/pwm.c:252:13
	lsrs	r0, r1
	lsls	r0, r0, #31
	cbz	r0, .LBB2_4
	b	.LBB2_3
.LBB2_3:                                @   in Loop: Header=BB2_1 Depth=1
.Ltmp92:
	.loc	5 254 39 is_stmt 1              @ ../../../../Library/StdDriver/src/pwm.c:254:39
	ldr	r0, [sp]
	movs	r2, #1
	.loc	5 254 49 is_stmt 0              @ ../../../../Library/StdDriver/src/pwm.c:254:49
	bics	r0, r2
	.loc	5 254 34                        @ ../../../../Library/StdDriver/src/pwm.c:254:34
	lsls	r2, r0
	.loc	5 254 14                        @ ../../../../Library/StdDriver/src/pwm.c:254:14
	ldr	r1, [sp, #8]
	.loc	5 254 26                        @ ../../../../Library/StdDriver/src/pwm.c:254:26
	ldr	r0, [r1, #32]
	orrs	r0, r2
	str	r0, [r1, #32]
	.loc	5 255 9 is_stmt 1               @ ../../../../Library/StdDriver/src/pwm.c:255:9
	b	.LBB2_4
.Ltmp93:
.LBB2_4:                                @   in Loop: Header=BB2_1 Depth=1
	.loc	5 256 5                         @ ../../../../Library/StdDriver/src/pwm.c:256:5
	b	.LBB2_5
.Ltmp94:
.LBB2_5:                                @   in Loop: Header=BB2_1 Depth=1
	.loc	5 250 42                        @ ../../../../Library/StdDriver/src/pwm.c:250:42
	ldr	r0, [sp]
	adds	r0, r0, #1
	str	r0, [sp]
	.loc	5 250 5 is_stmt 0               @ ../../../../Library/StdDriver/src/pwm.c:250:5
	b	.LBB2_1
.Ltmp95:
.LBB2_6:
	.loc	5 257 1 is_stmt 1               @ ../../../../Library/StdDriver/src/pwm.c:257:1
	add	sp, #12
	bx	lr
.Ltmp96:
.Lfunc_end2:
	.size	PWM_Start, .Lfunc_end2-PWM_Start
	.cfi_endproc
	.cantunwind
	.fnend
                                        @ -- End function
	.section	.text.PWM_Stop,"ax",%progbits
	.hidden	PWM_Stop                        @ -- Begin function PWM_Stop
	.globl	PWM_Stop
	.p2align	1
	.type	PWM_Stop,%function
	.code	16                              @ @PWM_Stop
	.thumb_func
PWM_Stop:
.Lfunc_begin3:
	.loc	5 270 0                         @ ../../../../Library/StdDriver/src/pwm.c:270:0
	.fnstart
	.cfi_startproc
@ %bb.0:
	.pad	#12
	sub	sp, #12
	.cfi_def_cfa_offset 12
	str	r0, [sp, #8]
	str	r1, [sp, #4]
	movs	r0, #0
.Ltmp97:
	.loc	5 273 12 prologue_end           @ ../../../../Library/StdDriver/src/pwm.c:273:12
	str	r0, [sp]
	.loc	5 273 10 is_stmt 0              @ ../../../../Library/StdDriver/src/pwm.c:273:10
	b	.LBB3_1
.LBB3_1:                                @ =>This Inner Loop Header: Depth=1
.Ltmp98:
	.loc	5 273 19                        @ ../../../../Library/StdDriver/src/pwm.c:273:19
	ldr	r0, [sp]
.Ltmp99:
	.loc	5 273 5                         @ ../../../../Library/StdDriver/src/pwm.c:273:5
	cmp	r0, #5
	bhi	.LBB3_6
	b	.LBB3_2
.LBB3_2:                                @   in Loop: Header=BB3_1 Depth=1
.Ltmp100:
	.loc	5 275 13 is_stmt 1              @ ../../../../Library/StdDriver/src/pwm.c:275:13
	ldr	r0, [sp, #4]
	.loc	5 275 38 is_stmt 0              @ ../../../../Library/StdDriver/src/pwm.c:275:38
	ldr	r1, [sp]
.Ltmp101:
	.loc	5 275 13                        @ ../../../../Library/StdDriver/src/pwm.c:275:13
	lsrs	r0, r1
	lsls	r0, r0, #31
	cbz	r0, .LBB3_4
	b	.LBB3_3
.LBB3_3:                                @   in Loop: Header=BB3_1 Depth=1
.Ltmp102:
	.loc	5 277 14 is_stmt 1              @ ../../../../Library/StdDriver/src/pwm.c:277:14
	ldr	r0, [sp, #8]
	.loc	5 277 29 is_stmt 0              @ ../../../../Library/StdDriver/src/pwm.c:277:29
	ldr	r1, [sp]
	.loc	5 277 13                        @ ../../../../Library/StdDriver/src/pwm.c:277:13
	lsrs	r1, r1, #1
	lsls	r1, r1, #3
	.loc	5 277 20                        @ ../../../../Library/StdDriver/src/pwm.c:277:20
	adds	r1, r0, r1
	movs	r0, #0
	.loc	5 277 48                        @ ../../../../Library/StdDriver/src/pwm.c:277:48
	str	r0, [r1, #48]
	.loc	5 278 9 is_stmt 1               @ ../../../../Library/StdDriver/src/pwm.c:278:9
	b	.LBB3_4
.Ltmp103:
.LBB3_4:                                @   in Loop: Header=BB3_1 Depth=1
	.loc	5 279 5                         @ ../../../../Library/StdDriver/src/pwm.c:279:5
	b	.LBB3_5
.Ltmp104:
.LBB3_5:                                @   in Loop: Header=BB3_1 Depth=1
	.loc	5 273 42                        @ ../../../../Library/StdDriver/src/pwm.c:273:42
	ldr	r0, [sp]
	adds	r0, r0, #1
	str	r0, [sp]
	.loc	5 273 5 is_stmt 0               @ ../../../../Library/StdDriver/src/pwm.c:273:5
	b	.LBB3_1
.Ltmp105:
.LBB3_6:
	.loc	5 280 1 is_stmt 1               @ ../../../../Library/StdDriver/src/pwm.c:280:1
	add	sp, #12
	bx	lr
.Ltmp106:
.Lfunc_end3:
	.size	PWM_Stop, .Lfunc_end3-PWM_Stop
	.cfi_endproc
	.cantunwind
	.fnend
                                        @ -- End function
	.section	.text.PWM_ForceStop,"ax",%progbits
	.hidden	PWM_ForceStop                   @ -- Begin function PWM_ForceStop
	.globl	PWM_ForceStop
	.p2align	1
	.type	PWM_ForceStop,%function
	.code	16                              @ @PWM_ForceStop
	.thumb_func
PWM_ForceStop:
.Lfunc_begin4:
	.loc	5 293 0                         @ ../../../../Library/StdDriver/src/pwm.c:293:0
	.fnstart
	.cfi_startproc
@ %bb.0:
	.pad	#12
	sub	sp, #12
	.cfi_def_cfa_offset 12
	str	r0, [sp, #8]
	str	r1, [sp, #4]
	movs	r0, #0
.Ltmp107:
	.loc	5 296 12 prologue_end           @ ../../../../Library/StdDriver/src/pwm.c:296:12
	str	r0, [sp]
	.loc	5 296 10 is_stmt 0              @ ../../../../Library/StdDriver/src/pwm.c:296:10
	b	.LBB4_1
.LBB4_1:                                @ =>This Inner Loop Header: Depth=1
.Ltmp108:
	.loc	5 296 19                        @ ../../../../Library/StdDriver/src/pwm.c:296:19
	ldr	r0, [sp]
.Ltmp109:
	.loc	5 296 5                         @ ../../../../Library/StdDriver/src/pwm.c:296:5
	cmp	r0, #5
	bhi	.LBB4_6
	b	.LBB4_2
.LBB4_2:                                @   in Loop: Header=BB4_1 Depth=1
.Ltmp110:
	.loc	5 298 13 is_stmt 1              @ ../../../../Library/StdDriver/src/pwm.c:298:13
	ldr	r0, [sp, #4]
	.loc	5 298 38 is_stmt 0              @ ../../../../Library/StdDriver/src/pwm.c:298:38
	ldr	r1, [sp]
.Ltmp111:
	.loc	5 298 13                        @ ../../../../Library/StdDriver/src/pwm.c:298:13
	lsrs	r0, r1
	lsls	r0, r0, #31
	cbz	r0, .LBB4_4
	b	.LBB4_3
.LBB4_3:                                @   in Loop: Header=BB4_1 Depth=1
.Ltmp112:
	.loc	5 300 40 is_stmt 1              @ ../../../../Library/StdDriver/src/pwm.c:300:40
	ldr	r0, [sp]
	movs	r2, #1
	.loc	5 300 50 is_stmt 0              @ ../../../../Library/StdDriver/src/pwm.c:300:50
	bics	r0, r2
	.loc	5 300 35                        @ ../../../../Library/StdDriver/src/pwm.c:300:35
	lsls	r2, r0
	.loc	5 300 14                        @ ../../../../Library/StdDriver/src/pwm.c:300:14
	ldr	r1, [sp, #8]
	.loc	5 300 26                        @ ../../../../Library/StdDriver/src/pwm.c:300:26
	ldr	r0, [r1, #32]
	bics	r0, r2
	str	r0, [r1, #32]
	.loc	5 301 9 is_stmt 1               @ ../../../../Library/StdDriver/src/pwm.c:301:9
	b	.LBB4_4
.Ltmp113:
.LBB4_4:                                @   in Loop: Header=BB4_1 Depth=1
	.loc	5 302 5                         @ ../../../../Library/StdDriver/src/pwm.c:302:5
	b	.LBB4_5
.Ltmp114:
.LBB4_5:                                @   in Loop: Header=BB4_1 Depth=1
	.loc	5 296 42                        @ ../../../../Library/StdDriver/src/pwm.c:296:42
	ldr	r0, [sp]
	adds	r0, r0, #1
	str	r0, [sp]
	.loc	5 296 5 is_stmt 0               @ ../../../../Library/StdDriver/src/pwm.c:296:5
	b	.LBB4_1
.Ltmp115:
.LBB4_6:
	.loc	5 303 1 is_stmt 1               @ ../../../../Library/StdDriver/src/pwm.c:303:1
	add	sp, #12
	bx	lr
.Ltmp116:
.Lfunc_end4:
	.size	PWM_ForceStop, .Lfunc_end4-PWM_ForceStop
	.cfi_endproc
	.cantunwind
	.fnend
                                        @ -- End function
	.section	.text.PWM_EnableADCTrigger,"ax",%progbits
	.hidden	PWM_EnableADCTrigger            @ -- Begin function PWM_EnableADCTrigger
	.globl	PWM_EnableADCTrigger
	.p2align	1
	.type	PWM_EnableADCTrigger,%function
	.code	16                              @ @PWM_EnableADCTrigger
	.thumb_func
PWM_EnableADCTrigger:
.Lfunc_begin5:
	.loc	5 322 0                         @ ../../../../Library/StdDriver/src/pwm.c:322:0
	.fnstart
	.cfi_startproc
@ %bb.0:
	.pad	#12
	sub	sp, #12
	.cfi_def_cfa_offset 12
	str	r0, [sp, #8]
	str	r1, [sp, #4]
	str	r2, [sp]
.Ltmp117:
	.loc	5 323 9 prologue_end            @ ../../../../Library/StdDriver/src/pwm.c:323:9
	ldr	r0, [sp, #4]
.Ltmp118:
	.loc	5 323 9 is_stmt 0               @ ../../../../Library/StdDriver/src/pwm.c:323:9
	cmp	r0, #3
	bhi	.LBB5_2
	b	.LBB5_1
.LBB5_1:
.Ltmp119:
	.loc	5 325 59 is_stmt 1              @ ../../../../Library/StdDriver/src/pwm.c:325:59
	ldr	r0, [sp, #4]
	.loc	5 325 73 is_stmt 0              @ ../../../../Library/StdDriver/src/pwm.c:325:73
	lsls	r0, r0, #3
	movs	r3, #15
	.loc	5 325 55                        @ ../../../../Library/StdDriver/src/pwm.c:325:55
	lsls	r3, r0
	.loc	5 325 10                        @ ../../../../Library/StdDriver/src/pwm.c:325:10
	ldr	r1, [sp, #8]
	movs	r2, #248
	.loc	5 325 24                        @ ../../../../Library/StdDriver/src/pwm.c:325:24
	ldr	r0, [r1, r2]
	bics	r0, r3
	str	r0, [r1, r2]
	.loc	5 326 54 is_stmt 1              @ ../../../../Library/StdDriver/src/pwm.c:326:54
	ldr	r3, [sp]
	movs	r0, #128
	.loc	5 326 52 is_stmt 0              @ ../../../../Library/StdDriver/src/pwm.c:326:52
	orrs	r3, r0
	.loc	5 326 72                        @ ../../../../Library/StdDriver/src/pwm.c:326:72
	ldr	r0, [sp, #4]
	.loc	5 326 86                        @ ../../../../Library/StdDriver/src/pwm.c:326:86
	lsls	r0, r0, #3
	.loc	5 326 68                        @ ../../../../Library/StdDriver/src/pwm.c:326:68
	lsls	r3, r0
	.loc	5 326 10                        @ ../../../../Library/StdDriver/src/pwm.c:326:10
	ldr	r1, [sp, #8]
	.loc	5 326 24                        @ ../../../../Library/StdDriver/src/pwm.c:326:24
	ldr	r0, [r1, r2]
	orrs	r0, r3
	str	r0, [r1, r2]
	.loc	5 327 5 is_stmt 1               @ ../../../../Library/StdDriver/src/pwm.c:327:5
	b	.LBB5_3
.Ltmp120:
.LBB5_2:
	.loc	5 330 60                        @ ../../../../Library/StdDriver/src/pwm.c:330:60
	ldr	r0, [sp, #4]
	.loc	5 330 74 is_stmt 0              @ ../../../../Library/StdDriver/src/pwm.c:330:74
	lsls	r0, r0, #3
	.loc	5 330 81                        @ ../../../../Library/StdDriver/src/pwm.c:330:81
	subs	r0, #32
	movs	r3, #15
	.loc	5 330 55                        @ ../../../../Library/StdDriver/src/pwm.c:330:55
	lsls	r3, r0
	.loc	5 330 10                        @ ../../../../Library/StdDriver/src/pwm.c:330:10
	ldr	r1, [sp, #8]
	movs	r2, #252
	.loc	5 330 24                        @ ../../../../Library/StdDriver/src/pwm.c:330:24
	ldr	r0, [r1, r2]
	bics	r0, r3
	str	r0, [r1, r2]
	.loc	5 331 54 is_stmt 1              @ ../../../../Library/StdDriver/src/pwm.c:331:54
	ldr	r3, [sp]
	movs	r0, #128
	.loc	5 331 52 is_stmt 0              @ ../../../../Library/StdDriver/src/pwm.c:331:52
	orrs	r3, r0
	.loc	5 331 73                        @ ../../../../Library/StdDriver/src/pwm.c:331:73
	ldr	r0, [sp, #4]
	.loc	5 331 87                        @ ../../../../Library/StdDriver/src/pwm.c:331:87
	lsls	r0, r0, #3
	.loc	5 331 94                        @ ../../../../Library/StdDriver/src/pwm.c:331:94
	subs	r0, #32
	.loc	5 331 68                        @ ../../../../Library/StdDriver/src/pwm.c:331:68
	lsls	r3, r0
	.loc	5 331 10                        @ ../../../../Library/StdDriver/src/pwm.c:331:10
	ldr	r1, [sp, #8]
	.loc	5 331 24                        @ ../../../../Library/StdDriver/src/pwm.c:331:24
	ldr	r0, [r1, r2]
	orrs	r0, r3
	str	r0, [r1, r2]
	b	.LBB5_3
.Ltmp121:
.LBB5_3:
	.loc	5 333 1 is_stmt 1               @ ../../../../Library/StdDriver/src/pwm.c:333:1
	add	sp, #12
	bx	lr
.Ltmp122:
.Lfunc_end5:
	.size	PWM_EnableADCTrigger, .Lfunc_end5-PWM_EnableADCTrigger
	.cfi_endproc
	.cantunwind
	.fnend
                                        @ -- End function
	.section	.text.PWM_DisableADCTrigger,"ax",%progbits
	.hidden	PWM_DisableADCTrigger           @ -- Begin function PWM_DisableADCTrigger
	.globl	PWM_DisableADCTrigger
	.p2align	1
	.type	PWM_DisableADCTrigger,%function
	.code	16                              @ @PWM_DisableADCTrigger
	.thumb_func
PWM_DisableADCTrigger:
.Lfunc_begin6:
	.loc	5 344 0                         @ ../../../../Library/StdDriver/src/pwm.c:344:0
	.fnstart
	.cfi_startproc
@ %bb.0:
	.pad	#8
	sub	sp, #8
	.cfi_def_cfa_offset 8
	str	r0, [sp, #4]
	str	r1, [sp]
.Ltmp123:
	.loc	5 345 9 prologue_end            @ ../../../../Library/StdDriver/src/pwm.c:345:9
	ldr	r0, [sp]
.Ltmp124:
	.loc	5 345 9 is_stmt 0               @ ../../../../Library/StdDriver/src/pwm.c:345:9
	cmp	r0, #3
	bhi	.LBB6_2
	b	.LBB6_1
.LBB6_1:
.Ltmp125:
	.loc	5 347 56 is_stmt 1              @ ../../../../Library/StdDriver/src/pwm.c:347:56
	ldr	r0, [sp]
	.loc	5 347 70 is_stmt 0              @ ../../../../Library/StdDriver/src/pwm.c:347:70
	lsls	r0, r0, #3
	movs	r3, #128
	.loc	5 347 52                        @ ../../../../Library/StdDriver/src/pwm.c:347:52
	lsls	r3, r0
	.loc	5 347 10                        @ ../../../../Library/StdDriver/src/pwm.c:347:10
	ldr	r1, [sp, #4]
	movs	r2, #248
	.loc	5 347 24                        @ ../../../../Library/StdDriver/src/pwm.c:347:24
	ldr	r0, [r1, r2]
	bics	r0, r3
	str	r0, [r1, r2]
	.loc	5 348 5 is_stmt 1               @ ../../../../Library/StdDriver/src/pwm.c:348:5
	b	.LBB6_3
.Ltmp126:
.LBB6_2:
	.loc	5 351 57                        @ ../../../../Library/StdDriver/src/pwm.c:351:57
	ldr	r0, [sp]
	.loc	5 351 71 is_stmt 0              @ ../../../../Library/StdDriver/src/pwm.c:351:71
	lsls	r0, r0, #3
	.loc	5 351 78                        @ ../../../../Library/StdDriver/src/pwm.c:351:78
	subs	r0, #32
	movs	r3, #128
	.loc	5 351 52                        @ ../../../../Library/StdDriver/src/pwm.c:351:52
	lsls	r3, r0
	.loc	5 351 10                        @ ../../../../Library/StdDriver/src/pwm.c:351:10
	ldr	r1, [sp, #4]
	movs	r2, #252
	.loc	5 351 24                        @ ../../../../Library/StdDriver/src/pwm.c:351:24
	ldr	r0, [r1, r2]
	bics	r0, r3
	str	r0, [r1, r2]
	b	.LBB6_3
.Ltmp127:
.LBB6_3:
	.loc	5 353 1 is_stmt 1               @ ../../../../Library/StdDriver/src/pwm.c:353:1
	add	sp, #8
	bx	lr
.Ltmp128:
.Lfunc_end6:
	.size	PWM_DisableADCTrigger, .Lfunc_end6-PWM_DisableADCTrigger
	.cfi_endproc
	.cantunwind
	.fnend
                                        @ -- End function
	.section	.text.PWM_ClearADCTriggerFlag,"ax",%progbits
	.hidden	PWM_ClearADCTriggerFlag         @ -- Begin function PWM_ClearADCTriggerFlag
	.globl	PWM_ClearADCTriggerFlag
	.p2align	1
	.type	PWM_ClearADCTriggerFlag,%function
	.code	16                              @ @PWM_ClearADCTriggerFlag
	.thumb_func
PWM_ClearADCTriggerFlag:
.Lfunc_begin7:
	.loc	5 365 0                         @ ../../../../Library/StdDriver/src/pwm.c:365:0
	.fnstart
	.cfi_startproc
@ %bb.0:
	.pad	#12
	sub	sp, #12
	.cfi_def_cfa_offset 12
	str	r0, [sp, #8]
	str	r1, [sp, #4]
	str	r2, [sp]
.Ltmp129:
	.loc	5 366 49 prologue_end           @ ../../../../Library/StdDriver/src/pwm.c:366:49
	ldr	r1, [sp, #4]
	movs	r0, #1
	lsls	r0, r0, #16
	.loc	5 366 46 is_stmt 0              @ ../../../../Library/StdDriver/src/pwm.c:366:46
	lsls	r0, r1
	.loc	5 366 6                         @ ../../../../Library/StdDriver/src/pwm.c:366:6
	ldr	r1, [sp, #8]
	movw	r2, #288
	.loc	5 366 19                        @ ../../../../Library/StdDriver/src/pwm.c:366:19
	str	r0, [r1, r2]
	.loc	5 367 1 is_stmt 1               @ ../../../../Library/StdDriver/src/pwm.c:367:1
	add	sp, #12
	bx	lr
.Ltmp130:
.Lfunc_end7:
	.size	PWM_ClearADCTriggerFlag, .Lfunc_end7-PWM_ClearADCTriggerFlag
	.cfi_endproc
	.cantunwind
	.fnend
                                        @ -- End function
	.section	.text.PWM_GetADCTriggerFlag,"ax",%progbits
	.hidden	PWM_GetADCTriggerFlag           @ -- Begin function PWM_GetADCTriggerFlag
	.globl	PWM_GetADCTriggerFlag
	.p2align	1
	.type	PWM_GetADCTriggerFlag,%function
	.code	16                              @ @PWM_GetADCTriggerFlag
	.thumb_func
PWM_GetADCTriggerFlag:
.Lfunc_begin8:
	.loc	5 380 0                         @ ../../../../Library/StdDriver/src/pwm.c:380:0
	.fnstart
	.cfi_startproc
@ %bb.0:
	.pad	#8
	sub	sp, #8
	.cfi_def_cfa_offset 8
	str	r0, [sp, #4]
	str	r1, [sp]
.Ltmp131:
	.loc	5 381 15 prologue_end           @ ../../../../Library/StdDriver/src/pwm.c:381:15
	ldr	r0, [sp, #4]
	movw	r1, #288
	.loc	5 381 21 is_stmt 0              @ ../../../../Library/StdDriver/src/pwm.c:381:21
	ldr	r0, [r0, r1]
	.loc	5 381 58                        @ ../../../../Library/StdDriver/src/pwm.c:381:58
	ldr	r1, [sp]
	.loc	5 381 13                        @ ../../../../Library/StdDriver/src/pwm.c:381:13
	lsrs	r0, r1
	movs	r1, #1
	lsls	r1, r1, #16
	ands	r0, r1
	lsrs	r0, r0, #16
	.loc	5 381 5                         @ ../../../../Library/StdDriver/src/pwm.c:381:5
	add	sp, #8
	bx	lr
.Ltmp132:
.Lfunc_end8:
	.size	PWM_GetADCTriggerFlag, .Lfunc_end8-PWM_GetADCTriggerFlag
	.cfi_endproc
	.cantunwind
	.fnend
                                        @ -- End function
	.section	.text.PWM_EnableFaultBrake,"ax",%progbits
	.hidden	PWM_EnableFaultBrake            @ -- Begin function PWM_EnableFaultBrake
	.globl	PWM_EnableFaultBrake
	.p2align	2
	.type	PWM_EnableFaultBrake,%function
	.code	16                              @ @PWM_EnableFaultBrake
	.thumb_func
PWM_EnableFaultBrake:
.Lfunc_begin9:
	.loc	5 411 0 is_stmt 1               @ ../../../../Library/StdDriver/src/pwm.c:411:0
	.fnstart
	.cfi_startproc
@ %bb.0:
	.pad	#20
	sub	sp, #20
	.cfi_def_cfa_offset 20
	str	r0, [sp, #16]
	str	r1, [sp, #12]
	str	r2, [sp, #8]
	str	r3, [sp, #4]
	movs	r0, #0
.Ltmp133:
	.loc	5 414 12 prologue_end           @ ../../../../Library/StdDriver/src/pwm.c:414:12
	str	r0, [sp]
	.loc	5 414 10 is_stmt 0              @ ../../../../Library/StdDriver/src/pwm.c:414:10
	b	.LBB9_1
.LBB9_1:                                @ =>This Inner Loop Header: Depth=1
.Ltmp134:
	.loc	5 414 19                        @ ../../../../Library/StdDriver/src/pwm.c:414:19
	ldr	r0, [sp]
.Ltmp135:
	.loc	5 414 5                         @ ../../../../Library/StdDriver/src/pwm.c:414:5
	cmp	r0, #5
	bls	.LBB9_2
	b	.LBB9_23
.LBB9_2:                                @   in Loop: Header=BB9_1 Depth=1
.Ltmp136:
	.loc	5 416 13 is_stmt 1              @ ../../../../Library/StdDriver/src/pwm.c:416:13
	ldr	r0, [sp, #12]
	.loc	5 416 38 is_stmt 0              @ ../../../../Library/StdDriver/src/pwm.c:416:38
	ldr	r1, [sp]
.Ltmp137:
	.loc	5 416 13                        @ ../../../../Library/StdDriver/src/pwm.c:416:13
	lsrs	r0, r1
	lsls	r0, r0, #31
	cbz	r0, .LBB9_12
	b	.LBB9_3
.LBB9_3:                                @   in Loop: Header=BB9_1 Depth=1
.Ltmp138:
	.loc	5 418 18 is_stmt 1              @ ../../../../Library/StdDriver/src/pwm.c:418:18
	ldr	r0, [sp, #4]
	.loc	5 418 57 is_stmt 0              @ ../../../../Library/StdDriver/src/pwm.c:418:57
	cmp	r0, #129
	beq	.LBB9_9
	b	.LBB9_4
.LBB9_4:                                @   in Loop: Header=BB9_1 Depth=1
	.loc	5 418 61                        @ ../../../../Library/StdDriver/src/pwm.c:418:61
	ldr	r0, [sp, #4]
	.loc	5 418 100                       @ ../../../../Library/StdDriver/src/pwm.c:418:100
	cmp	r0, #130
	beq	.LBB9_9
	b	.LBB9_5
.LBB9_5:                                @   in Loop: Header=BB9_1 Depth=1
	.loc	5 419 22 is_stmt 1              @ ../../../../Library/StdDriver/src/pwm.c:419:22
	ldr	r0, [sp, #4]
	.loc	5 419 61 is_stmt 0              @ ../../../../Library/StdDriver/src/pwm.c:419:61
	cmp	r0, #136
	beq	.LBB9_9
	b	.LBB9_6
.LBB9_6:                                @   in Loop: Header=BB9_1 Depth=1
	.loc	5 420 22 is_stmt 1              @ ../../../../Library/StdDriver/src/pwm.c:420:22
	ldr	r0, [sp, #4]
	ldr	r1, __arm_cp.9_0
	.loc	5 420 62 is_stmt 0              @ ../../../../Library/StdDriver/src/pwm.c:420:62
	cmp	r0, r1
	beq	.LBB9_9
	b	.LBB9_7
.LBB9_7:                                @   in Loop: Header=BB9_1 Depth=1
	.loc	5 420 66                        @ ../../../../Library/StdDriver/src/pwm.c:420:66
	ldr	r0, [sp, #4]
	ldr	r1, __arm_cp.9_1
	.loc	5 420 106                       @ ../../../../Library/StdDriver/src/pwm.c:420:106
	cmp	r0, r1
	beq	.LBB9_9
	b	.LBB9_8
.LBB9_8:                                @   in Loop: Header=BB9_1 Depth=1
	.loc	5 421 22 is_stmt 1              @ ../../../../Library/StdDriver/src/pwm.c:421:22
	ldr	r0, [sp, #4]
	ldr	r1, __arm_cp.9_2
.Ltmp139:
	.loc	5 418 17                        @ ../../../../Library/StdDriver/src/pwm.c:418:17
	cmp	r0, r1
	bne	.LBB9_10
	b	.LBB9_9
.LBB9_9:                                @   in Loop: Header=BB9_1 Depth=1
.Ltmp140:
	.loc	5 423 45                        @ ../../../../Library/StdDriver/src/pwm.c:423:45
	ldr	r3, [sp, #4]
	ldr	r0, __arm_cp.9_3
	.loc	5 423 60 is_stmt 0              @ ../../../../Library/StdDriver/src/pwm.c:423:60
	ands	r3, r0
	.loc	5 423 18                        @ ../../../../Library/StdDriver/src/pwm.c:423:18
	ldr	r0, [sp, #16]
	.loc	5 423 31                        @ ../../../../Library/StdDriver/src/pwm.c:423:31
	ldr	r1, [sp]
	.loc	5 423 17                        @ ../../../../Library/StdDriver/src/pwm.c:423:17
	lsrs	r1, r1, #1
	lsls	r1, r1, #2
	.loc	5 423 24                        @ ../../../../Library/StdDriver/src/pwm.c:423:24
	adds	r1, r0, r1
	movs	r2, #200
	.loc	5 423 41                        @ ../../../../Library/StdDriver/src/pwm.c:423:41
	ldr	r0, [r1, r2]
	orrs	r0, r3
	str	r0, [r1, r2]
	.loc	5 424 36 is_stmt 1              @ ../../../../Library/StdDriver/src/pwm.c:424:36
	ldr	r3, [sp, #4]
	movs	r0, #11
	.loc	5 424 51 is_stmt 0              @ ../../../../Library/StdDriver/src/pwm.c:424:51
	ands	r3, r0
	.loc	5 424 18                        @ ../../../../Library/StdDriver/src/pwm.c:424:18
	ldr	r1, [sp, #16]
	movs	r2, #196
	.loc	5 424 32                        @ ../../../../Library/StdDriver/src/pwm.c:424:32
	ldr	r0, [r1, r2]
	orrs	r0, r3
	str	r0, [r1, r2]
	.loc	5 425 13 is_stmt 1              @ ../../../../Library/StdDriver/src/pwm.c:425:13
	b	.LBB9_11
.Ltmp141:
.LBB9_10:                               @   in Loop: Header=BB9_1 Depth=1
	.loc	5 428 44                        @ ../../../../Library/StdDriver/src/pwm.c:428:44
	ldr	r3, [sp, #4]
	.loc	5 428 18 is_stmt 0              @ ../../../../Library/StdDriver/src/pwm.c:428:18
	ldr	r0, [sp, #16]
	.loc	5 428 31                        @ ../../../../Library/StdDriver/src/pwm.c:428:31
	ldr	r1, [sp]
	.loc	5 428 17                        @ ../../../../Library/StdDriver/src/pwm.c:428:17
	lsrs	r1, r1, #1
	lsls	r1, r1, #2
	.loc	5 428 24                        @ ../../../../Library/StdDriver/src/pwm.c:428:24
	adds	r1, r0, r1
	movs	r2, #200
	.loc	5 428 41                        @ ../../../../Library/StdDriver/src/pwm.c:428:41
	ldr	r0, [r1, r2]
	orrs	r0, r3
	str	r0, [r1, r2]
	b	.LBB9_11
.Ltmp142:
.LBB9_11:                               @   in Loop: Header=BB9_1 Depth=1
	.loc	5 430 9 is_stmt 1               @ ../../../../Library/StdDriver/src/pwm.c:430:9
	b	.LBB9_12
.Ltmp143:
.LBB9_12:                               @   in Loop: Header=BB9_1 Depth=1
	.loc	5 432 13                        @ ../../../../Library/StdDriver/src/pwm.c:432:13
	ldr	r0, [sp, #8]
	.loc	5 432 36 is_stmt 0              @ ../../../../Library/StdDriver/src/pwm.c:432:36
	ldr	r1, [sp]
.Ltmp144:
	.loc	5 432 13                        @ ../../../../Library/StdDriver/src/pwm.c:432:13
	lsrs	r0, r1
	lsls	r0, r0, #31
	cbz	r0, .LBB9_17
	b	.LBB9_13
.LBB9_13:                               @   in Loop: Header=BB9_1 Depth=1
	.loc	5 0 13                          @ ../../../../Library/StdDriver/src/pwm.c:0:13
	mov	r0, sp
.Ltmp145:
	.loc	5 434 17 is_stmt 1              @ ../../../../Library/StdDriver/src/pwm.c:434:17
	ldrb	r0, [r0]
	lsls	r0, r0, #31
	cbnz	r0, .LBB9_15
	b	.LBB9_14
.LBB9_14:                               @   in Loop: Header=BB9_1 Depth=1
.Ltmp146:
	.loc	5 437 18                        @ ../../../../Library/StdDriver/src/pwm.c:437:18
	ldr	r0, [sp, #16]
	.loc	5 437 31 is_stmt 0              @ ../../../../Library/StdDriver/src/pwm.c:437:31
	ldr	r1, [sp]
	.loc	5 437 17                        @ ../../../../Library/StdDriver/src/pwm.c:437:17
	lsrs	r1, r1, #1
	lsls	r1, r1, #2
	.loc	5 437 24                        @ ../../../../Library/StdDriver/src/pwm.c:437:24
	adds	r1, r0, r1
	movs	r2, #200
	.loc	5 437 41                        @ ../../../../Library/StdDriver/src/pwm.c:437:41
	ldr	r0, [r1, r2]
	movs	r3, #3
	lsls	r3, r3, #16
	bics	r0, r3
	str	r0, [r1, r2]
	.loc	5 438 18 is_stmt 1              @ ../../../../Library/StdDriver/src/pwm.c:438:18
	ldr	r0, [sp, #16]
	.loc	5 438 31 is_stmt 0              @ ../../../../Library/StdDriver/src/pwm.c:438:31
	ldr	r1, [sp]
	.loc	5 438 17                        @ ../../../../Library/StdDriver/src/pwm.c:438:17
	lsrs	r1, r1, #1
	lsls	r1, r1, #2
	.loc	5 438 24                        @ ../../../../Library/StdDriver/src/pwm.c:438:24
	adds	r1, r0, r1
	.loc	5 438 41                        @ ../../../../Library/StdDriver/src/pwm.c:438:41
	ldr	r0, [r1, r2]
	orrs	r0, r3
	str	r0, [r1, r2]
	.loc	5 439 13 is_stmt 1              @ ../../../../Library/StdDriver/src/pwm.c:439:13
	b	.LBB9_16
.Ltmp147:
.LBB9_15:                               @   in Loop: Header=BB9_1 Depth=1
	.loc	5 443 18                        @ ../../../../Library/StdDriver/src/pwm.c:443:18
	ldr	r0, [sp, #16]
	.loc	5 443 31 is_stmt 0              @ ../../../../Library/StdDriver/src/pwm.c:443:31
	ldr	r1, [sp]
	.loc	5 443 17                        @ ../../../../Library/StdDriver/src/pwm.c:443:17
	lsrs	r1, r1, #1
	lsls	r1, r1, #2
	.loc	5 443 24                        @ ../../../../Library/StdDriver/src/pwm.c:443:24
	adds	r1, r0, r1
	movs	r2, #200
	.loc	5 443 41                        @ ../../../../Library/StdDriver/src/pwm.c:443:41
	ldr	r0, [r1, r2]
	movs	r3, #3
	lsls	r3, r3, #18
	bics	r0, r3
	str	r0, [r1, r2]
	.loc	5 444 18 is_stmt 1              @ ../../../../Library/StdDriver/src/pwm.c:444:18
	ldr	r0, [sp, #16]
	.loc	5 444 31 is_stmt 0              @ ../../../../Library/StdDriver/src/pwm.c:444:31
	ldr	r1, [sp]
	.loc	5 444 17                        @ ../../../../Library/StdDriver/src/pwm.c:444:17
	lsrs	r1, r1, #1
	lsls	r1, r1, #2
	.loc	5 444 24                        @ ../../../../Library/StdDriver/src/pwm.c:444:24
	adds	r1, r0, r1
	.loc	5 444 41                        @ ../../../../Library/StdDriver/src/pwm.c:444:41
	ldr	r0, [r1, r2]
	orrs	r0, r3
	str	r0, [r1, r2]
	b	.LBB9_16
.Ltmp148:
.LBB9_16:                               @   in Loop: Header=BB9_1 Depth=1
	.loc	5 446 9 is_stmt 1               @ ../../../../Library/StdDriver/src/pwm.c:446:9
	b	.LBB9_21
.Ltmp149:
.LBB9_17:                               @   in Loop: Header=BB9_1 Depth=1
	.loc	5 0 9 is_stmt 0                 @ ../../../../Library/StdDriver/src/pwm.c:0:9
	mov	r0, sp
.Ltmp150:
	.loc	5 449 17 is_stmt 1              @ ../../../../Library/StdDriver/src/pwm.c:449:17
	ldrb	r0, [r0]
	lsls	r0, r0, #31
	cbnz	r0, .LBB9_19
	b	.LBB9_18
.LBB9_18:                               @   in Loop: Header=BB9_1 Depth=1
.Ltmp151:
	.loc	5 452 18                        @ ../../../../Library/StdDriver/src/pwm.c:452:18
	ldr	r0, [sp, #16]
	.loc	5 452 31 is_stmt 0              @ ../../../../Library/StdDriver/src/pwm.c:452:31
	ldr	r1, [sp]
	.loc	5 452 17                        @ ../../../../Library/StdDriver/src/pwm.c:452:17
	lsrs	r1, r1, #1
	lsls	r1, r1, #2
	.loc	5 452 24                        @ ../../../../Library/StdDriver/src/pwm.c:452:24
	adds	r1, r0, r1
	movs	r2, #200
	.loc	5 452 41                        @ ../../../../Library/StdDriver/src/pwm.c:452:41
	ldr	r0, [r1, r2]
	movs	r3, #3
	lsls	r3, r3, #16
	bics	r0, r3
	str	r0, [r1, r2]
	.loc	5 453 18 is_stmt 1              @ ../../../../Library/StdDriver/src/pwm.c:453:18
	ldr	r0, [sp, #16]
	.loc	5 453 31 is_stmt 0              @ ../../../../Library/StdDriver/src/pwm.c:453:31
	ldr	r1, [sp]
	.loc	5 453 17                        @ ../../../../Library/StdDriver/src/pwm.c:453:17
	lsrs	r1, r1, #1
	lsls	r1, r1, #2
	.loc	5 453 24                        @ ../../../../Library/StdDriver/src/pwm.c:453:24
	adds	r1, r0, r1
	.loc	5 453 41                        @ ../../../../Library/StdDriver/src/pwm.c:453:41
	ldr	r0, [r1, r2]
	movs	r3, #1
	lsls	r3, r3, #17
	orrs	r0, r3
	str	r0, [r1, r2]
	.loc	5 454 13 is_stmt 1              @ ../../../../Library/StdDriver/src/pwm.c:454:13
	b	.LBB9_20
.Ltmp152:
.LBB9_19:                               @   in Loop: Header=BB9_1 Depth=1
	.loc	5 458 18                        @ ../../../../Library/StdDriver/src/pwm.c:458:18
	ldr	r0, [sp, #16]
	.loc	5 458 31 is_stmt 0              @ ../../../../Library/StdDriver/src/pwm.c:458:31
	ldr	r1, [sp]
	.loc	5 458 17                        @ ../../../../Library/StdDriver/src/pwm.c:458:17
	lsrs	r1, r1, #1
	lsls	r1, r1, #2
	.loc	5 458 24                        @ ../../../../Library/StdDriver/src/pwm.c:458:24
	adds	r1, r0, r1
	movs	r2, #200
	.loc	5 458 41                        @ ../../../../Library/StdDriver/src/pwm.c:458:41
	ldr	r0, [r1, r2]
	movs	r3, #3
	lsls	r3, r3, #18
	bics	r0, r3
	str	r0, [r1, r2]
	.loc	5 459 18 is_stmt 1              @ ../../../../Library/StdDriver/src/pwm.c:459:18
	ldr	r0, [sp, #16]
	.loc	5 459 31 is_stmt 0              @ ../../../../Library/StdDriver/src/pwm.c:459:31
	ldr	r1, [sp]
	.loc	5 459 17                        @ ../../../../Library/StdDriver/src/pwm.c:459:17
	lsrs	r1, r1, #1
	lsls	r1, r1, #2
	.loc	5 459 24                        @ ../../../../Library/StdDriver/src/pwm.c:459:24
	adds	r1, r0, r1
	.loc	5 459 41                        @ ../../../../Library/StdDriver/src/pwm.c:459:41
	ldr	r0, [r1, r2]
	movs	r3, #1
	lsls	r3, r3, #19
	orrs	r0, r3
	str	r0, [r1, r2]
	b	.LBB9_20
.Ltmp153:
.LBB9_20:                               @   in Loop: Header=BB9_1 Depth=1
	.loc	5 0 41                          @ ../../../../Library/StdDriver/src/pwm.c:0:41
	b	.LBB9_21
.LBB9_21:                               @   in Loop: Header=BB9_1 Depth=1
	.loc	5 462 5 is_stmt 1               @ ../../../../Library/StdDriver/src/pwm.c:462:5
	b	.LBB9_22
.Ltmp154:
.LBB9_22:                               @   in Loop: Header=BB9_1 Depth=1
	.loc	5 414 42                        @ ../../../../Library/StdDriver/src/pwm.c:414:42
	ldr	r0, [sp]
	adds	r0, r0, #1
	str	r0, [sp]
	.loc	5 414 5 is_stmt 0               @ ../../../../Library/StdDriver/src/pwm.c:414:5
	b	.LBB9_1
.Ltmp155:
.LBB9_23:
	.loc	5 464 1 is_stmt 1               @ ../../../../Library/StdDriver/src/pwm.c:464:1
	add	sp, #20
	bx	lr
.Ltmp156:
	.p2align	2
@ %bb.24:
	.loc	5 0 1 is_stmt 0                 @ ../../../../Library/StdDriver/src/pwm.c:0:1
__arm_cp.9_0:
	.long	32769                           @ 0x8001
.Lcpi_end23:
	.size	__arm_cp.9_0, .Lcpi_end23-__arm_cp.9_0
__arm_cp.9_1:
	.long	32770                           @ 0x8002
.Lcpi_end24:
	.size	__arm_cp.9_1, .Lcpi_end24-__arm_cp.9_1
__arm_cp.9_2:
	.long	32776                           @ 0x8008
.Lcpi_end25:
	.size	__arm_cp.9_2, .Lcpi_end25-__arm_cp.9_2
__arm_cp.9_3:
	.long	32896                           @ 0x8080
.Lcpi_end26:
	.size	__arm_cp.9_3, .Lcpi_end26-__arm_cp.9_3
.Lfunc_end9:
	.size	PWM_EnableFaultBrake, .Lfunc_end9-PWM_EnableFaultBrake
	.cfi_endproc
	.cantunwind
	.fnend
                                        @ -- End function
	.section	.text.PWM_EnableCapture,"ax",%progbits
	.hidden	PWM_EnableCapture               @ -- Begin function PWM_EnableCapture
	.globl	PWM_EnableCapture
	.p2align	1
	.type	PWM_EnableCapture,%function
	.code	16                              @ @PWM_EnableCapture
	.thumb_func
PWM_EnableCapture:
.Lfunc_begin10:
	.loc	5 476 0 is_stmt 1               @ ../../../../Library/StdDriver/src/pwm.c:476:0
	.fnstart
	.cfi_startproc
@ %bb.0:
	.pad	#8
	sub	sp, #8
	.cfi_def_cfa_offset 8
	str	r0, [sp, #4]
	str	r1, [sp]
.Ltmp157:
	.loc	5 477 23 prologue_end           @ ../../../../Library/StdDriver/src/pwm.c:477:23
	ldr	r3, [sp]
	.loc	5 477 6 is_stmt 0               @ ../../../../Library/StdDriver/src/pwm.c:477:6
	ldr	r1, [sp, #4]
	movw	r2, #512
	.loc	5 477 20                        @ ../../../../Library/StdDriver/src/pwm.c:477:20
	ldr	r0, [r1, r2]
	orrs	r0, r3
	str	r0, [r1, r2]
	.loc	5 478 22 is_stmt 1              @ ../../../../Library/StdDriver/src/pwm.c:478:22
	ldr	r3, [sp]
	.loc	5 478 6 is_stmt 0               @ ../../../../Library/StdDriver/src/pwm.c:478:6
	ldr	r1, [sp, #4]
	movw	r2, #516
	.loc	5 478 19                        @ ../../../../Library/StdDriver/src/pwm.c:478:19
	ldr	r0, [r1, r2]
	orrs	r0, r3
	str	r0, [r1, r2]
	.loc	5 479 1 is_stmt 1               @ ../../../../Library/StdDriver/src/pwm.c:479:1
	add	sp, #8
	bx	lr
.Ltmp158:
.Lfunc_end10:
	.size	PWM_EnableCapture, .Lfunc_end10-PWM_EnableCapture
	.cfi_endproc
	.cantunwind
	.fnend
                                        @ -- End function
	.section	.text.PWM_DisableCapture,"ax",%progbits
	.hidden	PWM_DisableCapture              @ -- Begin function PWM_DisableCapture
	.globl	PWM_DisableCapture
	.p2align	1
	.type	PWM_DisableCapture,%function
	.code	16                              @ @PWM_DisableCapture
	.thumb_func
PWM_DisableCapture:
.Lfunc_begin11:
	.loc	5 491 0                         @ ../../../../Library/StdDriver/src/pwm.c:491:0
	.fnstart
	.cfi_startproc
@ %bb.0:
	.pad	#8
	sub	sp, #8
	.cfi_def_cfa_offset 8
	str	r0, [sp, #4]
	str	r1, [sp]
.Ltmp159:
	.loc	5 492 24 prologue_end           @ ../../../../Library/StdDriver/src/pwm.c:492:24
	ldr	r3, [sp]
	.loc	5 492 6 is_stmt 0               @ ../../../../Library/StdDriver/src/pwm.c:492:6
	ldr	r1, [sp, #4]
	movw	r2, #512
	.loc	5 492 20                        @ ../../../../Library/StdDriver/src/pwm.c:492:20
	ldr	r0, [r1, r2]
	bics	r0, r3
	str	r0, [r1, r2]
	.loc	5 493 23 is_stmt 1              @ ../../../../Library/StdDriver/src/pwm.c:493:23
	ldr	r3, [sp]
	.loc	5 493 6 is_stmt 0               @ ../../../../Library/StdDriver/src/pwm.c:493:6
	ldr	r1, [sp, #4]
	movw	r2, #516
	.loc	5 493 19                        @ ../../../../Library/StdDriver/src/pwm.c:493:19
	ldr	r0, [r1, r2]
	bics	r0, r3
	str	r0, [r1, r2]
	.loc	5 494 1 is_stmt 1               @ ../../../../Library/StdDriver/src/pwm.c:494:1
	add	sp, #8
	bx	lr
.Ltmp160:
.Lfunc_end11:
	.size	PWM_DisableCapture, .Lfunc_end11-PWM_DisableCapture
	.cfi_endproc
	.cantunwind
	.fnend
                                        @ -- End function
	.section	.text.PWM_EnableOutput,"ax",%progbits
	.hidden	PWM_EnableOutput                @ -- Begin function PWM_EnableOutput
	.globl	PWM_EnableOutput
	.p2align	1
	.type	PWM_EnableOutput,%function
	.code	16                              @ @PWM_EnableOutput
	.thumb_func
PWM_EnableOutput:
.Lfunc_begin12:
	.loc	5 506 0                         @ ../../../../Library/StdDriver/src/pwm.c:506:0
	.fnstart
	.cfi_startproc
@ %bb.0:
	.pad	#8
	sub	sp, #8
	.cfi_def_cfa_offset 8
	str	r0, [sp, #4]
	str	r1, [sp]
.Ltmp161:
	.loc	5 507 20 prologue_end           @ ../../../../Library/StdDriver/src/pwm.c:507:20
	ldr	r3, [sp]
	.loc	5 507 6 is_stmt 0               @ ../../../../Library/StdDriver/src/pwm.c:507:6
	ldr	r1, [sp, #4]
	movs	r2, #216
	.loc	5 507 17                        @ ../../../../Library/StdDriver/src/pwm.c:507:17
	ldr	r0, [r1, r2]
	orrs	r0, r3
	str	r0, [r1, r2]
	.loc	5 508 1 is_stmt 1               @ ../../../../Library/StdDriver/src/pwm.c:508:1
	add	sp, #8
	bx	lr
.Ltmp162:
.Lfunc_end12:
	.size	PWM_EnableOutput, .Lfunc_end12-PWM_EnableOutput
	.cfi_endproc
	.cantunwind
	.fnend
                                        @ -- End function
	.section	.text.PWM_DisableOutput,"ax",%progbits
	.hidden	PWM_DisableOutput               @ -- Begin function PWM_DisableOutput
	.globl	PWM_DisableOutput
	.p2align	1
	.type	PWM_DisableOutput,%function
	.code	16                              @ @PWM_DisableOutput
	.thumb_func
PWM_DisableOutput:
.Lfunc_begin13:
	.loc	5 520 0                         @ ../../../../Library/StdDriver/src/pwm.c:520:0
	.fnstart
	.cfi_startproc
@ %bb.0:
	.pad	#8
	sub	sp, #8
	.cfi_def_cfa_offset 8
	str	r0, [sp, #4]
	str	r1, [sp]
.Ltmp163:
	.loc	5 521 21 prologue_end           @ ../../../../Library/StdDriver/src/pwm.c:521:21
	ldr	r3, [sp]
	.loc	5 521 6 is_stmt 0               @ ../../../../Library/StdDriver/src/pwm.c:521:6
	ldr	r1, [sp, #4]
	movs	r2, #216
	.loc	5 521 17                        @ ../../../../Library/StdDriver/src/pwm.c:521:17
	ldr	r0, [r1, r2]
	bics	r0, r3
	str	r0, [r1, r2]
	.loc	5 522 1 is_stmt 1               @ ../../../../Library/StdDriver/src/pwm.c:522:1
	add	sp, #8
	bx	lr
.Ltmp164:
.Lfunc_end13:
	.size	PWM_DisableOutput, .Lfunc_end13-PWM_DisableOutput
	.cfi_endproc
	.cantunwind
	.fnend
                                        @ -- End function
	.section	.text.PWM_EnableDeadZone,"ax",%progbits
	.hidden	PWM_EnableDeadZone              @ -- Begin function PWM_EnableDeadZone
	.globl	PWM_EnableDeadZone
	.p2align	2
	.type	PWM_EnableDeadZone,%function
	.code	16                              @ @PWM_EnableDeadZone
	.thumb_func
PWM_EnableDeadZone:
.Lfunc_begin14:
	.loc	5 536 0                         @ ../../../../Library/StdDriver/src/pwm.c:536:0
	.fnstart
	.cfi_startproc
@ %bb.0:
	.pad	#12
	sub	sp, #12
	.cfi_def_cfa_offset 12
	str	r0, [sp, #8]
	str	r1, [sp, #4]
	str	r2, [sp]
.Ltmp165:
	.loc	5 538 6 prologue_end            @ ../../../../Library/StdDriver/src/pwm.c:538:6
	ldr	r0, [sp, #8]
	.loc	5 538 19 is_stmt 0              @ ../../../../Library/StdDriver/src/pwm.c:538:19
	ldr	r1, [sp, #4]
	.loc	5 538 5                         @ ../../../../Library/StdDriver/src/pwm.c:538:5
	lsrs	r1, r1, #1
	lsls	r1, r1, #2
	.loc	5 538 12                        @ ../../../../Library/StdDriver/src/pwm.c:538:12
	adds	r1, r0, r1
	.loc	5 538 42                        @ ../../../../Library/StdDriver/src/pwm.c:538:42
	ldr	r0, [r1, #112]
	ldr	r2, __arm_cp.14_0
	ands	r0, r2
	str	r0, [r1, #112]
	.loc	5 539 69 is_stmt 1              @ ../../../../Library/StdDriver/src/pwm.c:539:69
	ldr	r0, [sp]
	.loc	5 539 6 is_stmt 0               @ ../../../../Library/StdDriver/src/pwm.c:539:6
	ldr	r1, [sp, #8]
	.loc	5 539 19                        @ ../../../../Library/StdDriver/src/pwm.c:539:19
	ldr	r2, [sp, #4]
	.loc	5 539 5                         @ ../../../../Library/StdDriver/src/pwm.c:539:5
	lsrs	r2, r2, #1
	lsls	r2, r2, #2
	.loc	5 539 12                        @ ../../../../Library/StdDriver/src/pwm.c:539:12
	adds	r1, r1, r2
	.loc	5 539 42                        @ ../../../../Library/StdDriver/src/pwm.c:539:42
	ldr	r2, [r1, #112]
	.loc	5 539 67                        @ ../../../../Library/StdDriver/src/pwm.c:539:67
	orrs	r0, r2
	movs	r2, #1
	lsls	r2, r2, #16
	.loc	5 539 42                        @ ../../../../Library/StdDriver/src/pwm.c:539:42
	orrs	r0, r2
	str	r0, [r1, #112]
	.loc	5 540 1 is_stmt 1               @ ../../../../Library/StdDriver/src/pwm.c:540:1
	add	sp, #12
	bx	lr
.Ltmp166:
	.p2align	2
@ %bb.1:
	.loc	5 0 1 is_stmt 0                 @ ../../../../Library/StdDriver/src/pwm.c:0:1
__arm_cp.14_0:
	.long	4294963200                      @ 0xfffff000
.Lcpi_end27:
	.size	__arm_cp.14_0, .Lcpi_end27-__arm_cp.14_0
.Lfunc_end14:
	.size	PWM_EnableDeadZone, .Lfunc_end14-PWM_EnableDeadZone
	.cfi_endproc
	.cantunwind
	.fnend
                                        @ -- End function
	.section	.text.PWM_DisableDeadZone,"ax",%progbits
	.hidden	PWM_DisableDeadZone             @ -- Begin function PWM_DisableDeadZone
	.globl	PWM_DisableDeadZone
	.p2align	1
	.type	PWM_DisableDeadZone,%function
	.code	16                              @ @PWM_DisableDeadZone
	.thumb_func
PWM_DisableDeadZone:
.Lfunc_begin15:
	.loc	5 552 0 is_stmt 1               @ ../../../../Library/StdDriver/src/pwm.c:552:0
	.fnstart
	.cfi_startproc
@ %bb.0:
	.pad	#8
	sub	sp, #8
	.cfi_def_cfa_offset 8
	str	r0, [sp, #4]
	str	r1, [sp]
.Ltmp167:
	.loc	5 554 6 prologue_end            @ ../../../../Library/StdDriver/src/pwm.c:554:6
	ldr	r0, [sp, #4]
	.loc	5 554 19 is_stmt 0              @ ../../../../Library/StdDriver/src/pwm.c:554:19
	ldr	r1, [sp]
	.loc	5 554 5                         @ ../../../../Library/StdDriver/src/pwm.c:554:5
	lsrs	r1, r1, #1
	lsls	r1, r1, #2
	.loc	5 554 12                        @ ../../../../Library/StdDriver/src/pwm.c:554:12
	adds	r1, r0, r1
	.loc	5 554 42                        @ ../../../../Library/StdDriver/src/pwm.c:554:42
	ldr	r0, [r1, #112]
	movs	r2, #1
	lsls	r2, r2, #16
	bics	r0, r2
	str	r0, [r1, #112]
	.loc	5 555 1 is_stmt 1               @ ../../../../Library/StdDriver/src/pwm.c:555:1
	add	sp, #8
	bx	lr
.Ltmp168:
.Lfunc_end15:
	.size	PWM_DisableDeadZone, .Lfunc_end15-PWM_DisableDeadZone
	.cfi_endproc
	.cantunwind
	.fnend
                                        @ -- End function
	.section	.text.PWM_EnableCaptureInt,"ax",%progbits
	.hidden	PWM_EnableCaptureInt            @ -- Begin function PWM_EnableCaptureInt
	.globl	PWM_EnableCaptureInt
	.p2align	1
	.type	PWM_EnableCaptureInt,%function
	.code	16                              @ @PWM_EnableCaptureInt
	.thumb_func
PWM_EnableCaptureInt:
.Lfunc_begin16:
	.loc	5 569 0                         @ ../../../../Library/StdDriver/src/pwm.c:569:0
	.fnstart
	.cfi_startproc
@ %bb.0:
	.pad	#12
	sub	sp, #12
	.cfi_def_cfa_offset 12
	str	r0, [sp, #8]
	str	r1, [sp, #4]
	str	r2, [sp]
.Ltmp169:
	.loc	5 570 23 prologue_end           @ ../../../../Library/StdDriver/src/pwm.c:570:23
	ldr	r3, [sp]
	.loc	5 570 34 is_stmt 0              @ ../../../../Library/StdDriver/src/pwm.c:570:34
	ldr	r0, [sp, #4]
	.loc	5 570 31                        @ ../../../../Library/StdDriver/src/pwm.c:570:31
	lsls	r3, r0
	.loc	5 570 6                         @ ../../../../Library/StdDriver/src/pwm.c:570:6
	ldr	r1, [sp, #8]
	movw	r2, #592
	.loc	5 570 19                        @ ../../../../Library/StdDriver/src/pwm.c:570:19
	ldr	r0, [r1, r2]
	orrs	r0, r3
	str	r0, [r1, r2]
	.loc	5 571 1 is_stmt 1               @ ../../../../Library/StdDriver/src/pwm.c:571:1
	add	sp, #12
	bx	lr
.Ltmp170:
.Lfunc_end16:
	.size	PWM_EnableCaptureInt, .Lfunc_end16-PWM_EnableCaptureInt
	.cfi_endproc
	.cantunwind
	.fnend
                                        @ -- End function
	.section	.text.PWM_DisableCaptureInt,"ax",%progbits
	.hidden	PWM_DisableCaptureInt           @ -- Begin function PWM_DisableCaptureInt
	.globl	PWM_DisableCaptureInt
	.p2align	1
	.type	PWM_DisableCaptureInt,%function
	.code	16                              @ @PWM_DisableCaptureInt
	.thumb_func
PWM_DisableCaptureInt:
.Lfunc_begin17:
	.loc	5 585 0                         @ ../../../../Library/StdDriver/src/pwm.c:585:0
	.fnstart
	.cfi_startproc
@ %bb.0:
	.pad	#12
	sub	sp, #12
	.cfi_def_cfa_offset 12
	str	r0, [sp, #8]
	str	r1, [sp, #4]
	str	r2, [sp]
.Ltmp171:
	.loc	5 586 24 prologue_end           @ ../../../../Library/StdDriver/src/pwm.c:586:24
	ldr	r3, [sp]
	.loc	5 586 35 is_stmt 0              @ ../../../../Library/StdDriver/src/pwm.c:586:35
	ldr	r0, [sp, #4]
	.loc	5 586 32                        @ ../../../../Library/StdDriver/src/pwm.c:586:32
	lsls	r3, r0
	.loc	5 586 6                         @ ../../../../Library/StdDriver/src/pwm.c:586:6
	ldr	r1, [sp, #8]
	movw	r2, #592
	.loc	5 586 19                        @ ../../../../Library/StdDriver/src/pwm.c:586:19
	ldr	r0, [r1, r2]
	bics	r0, r3
	str	r0, [r1, r2]
	.loc	5 587 1 is_stmt 1               @ ../../../../Library/StdDriver/src/pwm.c:587:1
	add	sp, #12
	bx	lr
.Ltmp172:
.Lfunc_end17:
	.size	PWM_DisableCaptureInt, .Lfunc_end17-PWM_DisableCaptureInt
	.cfi_endproc
	.cantunwind
	.fnend
                                        @ -- End function
	.section	.text.PWM_ClearCaptureIntFlag,"ax",%progbits
	.hidden	PWM_ClearCaptureIntFlag         @ -- Begin function PWM_ClearCaptureIntFlag
	.globl	PWM_ClearCaptureIntFlag
	.p2align	1
	.type	PWM_ClearCaptureIntFlag,%function
	.code	16                              @ @PWM_ClearCaptureIntFlag
	.thumb_func
PWM_ClearCaptureIntFlag:
.Lfunc_begin18:
	.loc	5 601 0                         @ ../../../../Library/StdDriver/src/pwm.c:601:0
	.fnstart
	.cfi_startproc
@ %bb.0:
	.pad	#12
	sub	sp, #12
	.cfi_def_cfa_offset 12
	str	r0, [sp, #8]
	str	r1, [sp, #4]
	str	r2, [sp]
.Ltmp173:
	.loc	5 602 21 prologue_end           @ ../../../../Library/StdDriver/src/pwm.c:602:21
	ldr	r0, [sp]
	.loc	5 602 32 is_stmt 0              @ ../../../../Library/StdDriver/src/pwm.c:602:32
	ldr	r1, [sp, #4]
	.loc	5 602 29                        @ ../../../../Library/StdDriver/src/pwm.c:602:29
	lsls	r0, r1
	.loc	5 602 6                         @ ../../../../Library/StdDriver/src/pwm.c:602:6
	ldr	r1, [sp, #8]
	movw	r2, #596
	.loc	5 602 18                        @ ../../../../Library/StdDriver/src/pwm.c:602:18
	str	r0, [r1, r2]
	.loc	5 603 1 is_stmt 1               @ ../../../../Library/StdDriver/src/pwm.c:603:1
	add	sp, #12
	bx	lr
.Ltmp174:
.Lfunc_end18:
	.size	PWM_ClearCaptureIntFlag, .Lfunc_end18-PWM_ClearCaptureIntFlag
	.cfi_endproc
	.cantunwind
	.fnend
                                        @ -- End function
	.section	.text.PWM_GetCaptureIntFlag,"ax",%progbits
	.hidden	PWM_GetCaptureIntFlag           @ -- Begin function PWM_GetCaptureIntFlag
	.globl	PWM_GetCaptureIntFlag
	.p2align	1
	.type	PWM_GetCaptureIntFlag,%function
	.code	16                              @ @PWM_GetCaptureIntFlag
	.thumb_func
PWM_GetCaptureIntFlag:
.Lfunc_begin19:
	.loc	5 618 0                         @ ../../../../Library/StdDriver/src/pwm.c:618:0
	.fnstart
	.cfi_startproc
@ %bb.0:
	.pad	#16
	sub	sp, #16
	.cfi_def_cfa_offset 16
	str	r0, [sp, #12]
	str	r1, [sp, #8]
.Ltmp175:
	.loc	5 620 22 prologue_end           @ ../../../../Library/StdDriver/src/pwm.c:620:22
	ldr	r0, [sp, #12]
	movw	r1, #596
	.loc	5 620 28 is_stmt 0              @ ../../../../Library/StdDriver/src/pwm.c:620:28
	ldr	r0, [r0, r1]
	.loc	5 620 61                        @ ../../../../Library/StdDriver/src/pwm.c:620:61
	ldr	r2, [sp, #8]
	.loc	5 620 20                        @ ../../../../Library/StdDriver/src/pwm.c:620:20
	lsrs	r0, r2
	movw	r2, #256
	ands	r0, r2
	lsrs	r0, r0, #8
	.loc	5 620 17                        @ ../../../../Library/StdDriver/src/pwm.c:620:17
	str	r0, [sp, #4]
	.loc	5 621 22 is_stmt 1              @ ../../../../Library/StdDriver/src/pwm.c:621:22
	ldr	r0, [sp, #12]
	.loc	5 621 28 is_stmt 0              @ ../../../../Library/StdDriver/src/pwm.c:621:28
	ldr	r0, [r0, r1]
	.loc	5 621 61                        @ ../../../../Library/StdDriver/src/pwm.c:621:61
	ldr	r1, [sp, #8]
	.loc	5 621 20                        @ ../../../../Library/StdDriver/src/pwm.c:621:20
	lsrs	r0, r1
	movs	r1, #1
	ands	r0, r1
	.loc	5 621 17                        @ ../../../../Library/StdDriver/src/pwm.c:621:17
	str	r0, [sp]
	.loc	5 622 14 is_stmt 1              @ ../../../../Library/StdDriver/src/pwm.c:622:14
	ldr	r0, [sp, #4]
	.loc	5 622 26 is_stmt 0              @ ../../../../Library/StdDriver/src/pwm.c:622:26
	lsls	r0, r0, #1
	.loc	5 622 36                        @ ../../../../Library/StdDriver/src/pwm.c:622:36
	ldr	r1, [sp]
	.loc	5 622 34                        @ ../../../../Library/StdDriver/src/pwm.c:622:34
	orrs	r0, r1
	.loc	5 622 5                         @ ../../../../Library/StdDriver/src/pwm.c:622:5
	add	sp, #16
	bx	lr
.Ltmp176:
.Lfunc_end19:
	.size	PWM_GetCaptureIntFlag, .Lfunc_end19-PWM_GetCaptureIntFlag
	.cfi_endproc
	.cantunwind
	.fnend
                                        @ -- End function
	.section	.text.PWM_EnableDutyInt,"ax",%progbits
	.hidden	PWM_EnableDutyInt               @ -- Begin function PWM_EnableDutyInt
	.globl	PWM_EnableDutyInt
	.p2align	1
	.type	PWM_EnableDutyInt,%function
	.code	16                              @ @PWM_EnableDutyInt
	.thumb_func
PWM_EnableDutyInt:
.Lfunc_begin20:
	.loc	5 636 0 is_stmt 1               @ ../../../../Library/StdDriver/src/pwm.c:636:0
	.fnstart
	.cfi_startproc
@ %bb.0:
	.pad	#12
	sub	sp, #12
	.cfi_def_cfa_offset 12
	str	r0, [sp, #8]
	str	r1, [sp, #4]
	str	r2, [sp]
.Ltmp177:
	.loc	5 637 23 prologue_end           @ ../../../../Library/StdDriver/src/pwm.c:637:23
	ldr	r3, [sp]
	.loc	5 637 41 is_stmt 0              @ ../../../../Library/StdDriver/src/pwm.c:637:41
	ldr	r0, [sp, #4]
	.loc	5 637 38                        @ ../../../../Library/StdDriver/src/pwm.c:637:38
	lsls	r3, r0
	.loc	5 637 6                         @ ../../../../Library/StdDriver/src/pwm.c:637:6
	ldr	r1, [sp, #8]
	movs	r2, #224
	.loc	5 637 19                        @ ../../../../Library/StdDriver/src/pwm.c:637:19
	ldr	r0, [r1, r2]
	orrs	r0, r3
	str	r0, [r1, r2]
	.loc	5 638 1 is_stmt 1               @ ../../../../Library/StdDriver/src/pwm.c:638:1
	add	sp, #12
	bx	lr
.Ltmp178:
.Lfunc_end20:
	.size	PWM_EnableDutyInt, .Lfunc_end20-PWM_EnableDutyInt
	.cfi_endproc
	.cantunwind
	.fnend
                                        @ -- End function
	.section	.text.PWM_DisableDutyInt,"ax",%progbits
	.hidden	PWM_DisableDutyInt              @ -- Begin function PWM_DisableDutyInt
	.globl	PWM_DisableDutyInt
	.p2align	2
	.type	PWM_DisableDutyInt,%function
	.code	16                              @ @PWM_DisableDutyInt
	.thumb_func
PWM_DisableDutyInt:
.Lfunc_begin21:
	.loc	5 649 0                         @ ../../../../Library/StdDriver/src/pwm.c:649:0
	.fnstart
	.cfi_startproc
@ %bb.0:
	.pad	#8
	sub	sp, #8
	.cfi_def_cfa_offset 8
	str	r0, [sp, #4]
	str	r1, [sp]
.Ltmp179:
	.loc	5 650 97 prologue_end           @ ../../../../Library/StdDriver/src/pwm.c:650:97
	ldr	r0, [sp]
	ldr	r3, __arm_cp.21_0
	.loc	5 650 94 is_stmt 0              @ ../../../../Library/StdDriver/src/pwm.c:650:94
	lsls	r3, r0
	.loc	5 650 6                         @ ../../../../Library/StdDriver/src/pwm.c:650:6
	ldr	r1, [sp, #4]
	movs	r2, #224
	.loc	5 650 19                        @ ../../../../Library/StdDriver/src/pwm.c:650:19
	ldr	r0, [r1, r2]
	bics	r0, r3
	str	r0, [r1, r2]
	.loc	5 651 1 is_stmt 1               @ ../../../../Library/StdDriver/src/pwm.c:651:1
	add	sp, #8
	bx	lr
.Ltmp180:
	.p2align	2
@ %bb.1:
	.loc	5 0 1 is_stmt 0                 @ ../../../../Library/StdDriver/src/pwm.c:0:1
__arm_cp.21_0:
	.long	16842752                        @ 0x1010000
.Lcpi_end28:
	.size	__arm_cp.21_0, .Lcpi_end28-__arm_cp.21_0
.Lfunc_end21:
	.size	PWM_DisableDutyInt, .Lfunc_end21-PWM_DisableDutyInt
	.cfi_endproc
	.cantunwind
	.fnend
                                        @ -- End function
	.section	.text.PWM_ClearDutyIntFlag,"ax",%progbits
	.hidden	PWM_ClearDutyIntFlag            @ -- Begin function PWM_ClearDutyIntFlag
	.globl	PWM_ClearDutyIntFlag
	.p2align	2
	.type	PWM_ClearDutyIntFlag,%function
	.code	16                              @ @PWM_ClearDutyIntFlag
	.thumb_func
PWM_ClearDutyIntFlag:
.Lfunc_begin22:
	.loc	5 662 0 is_stmt 1               @ ../../../../Library/StdDriver/src/pwm.c:662:0
	.fnstart
	.cfi_startproc
@ %bb.0:
	.pad	#8
	sub	sp, #8
	.cfi_def_cfa_offset 8
	str	r0, [sp, #4]
	str	r1, [sp]
.Ltmp181:
	.loc	5 663 77 prologue_end           @ ../../../../Library/StdDriver/src/pwm.c:663:77
	ldr	r1, [sp]
	ldr	r0, __arm_cp.22_0
	.loc	5 663 74 is_stmt 0              @ ../../../../Library/StdDriver/src/pwm.c:663:74
	lsls	r0, r1
	.loc	5 663 6                         @ ../../../../Library/StdDriver/src/pwm.c:663:6
	ldr	r1, [sp, #4]
	movs	r2, #232
	.loc	5 663 20                        @ ../../../../Library/StdDriver/src/pwm.c:663:20
	str	r0, [r1, r2]
	.loc	5 664 1 is_stmt 1               @ ../../../../Library/StdDriver/src/pwm.c:664:1
	add	sp, #8
	bx	lr
.Ltmp182:
	.p2align	2
@ %bb.1:
	.loc	5 0 1 is_stmt 0                 @ ../../../../Library/StdDriver/src/pwm.c:0:1
__arm_cp.22_0:
	.long	16842752                        @ 0x1010000
.Lcpi_end29:
	.size	__arm_cp.22_0, .Lcpi_end29-__arm_cp.22_0
.Lfunc_end22:
	.size	PWM_ClearDutyIntFlag, .Lfunc_end22-PWM_ClearDutyIntFlag
	.cfi_endproc
	.cantunwind
	.fnend
                                        @ -- End function
	.section	.text.PWM_GetDutyIntFlag,"ax",%progbits
	.hidden	PWM_GetDutyIntFlag              @ -- Begin function PWM_GetDutyIntFlag
	.globl	PWM_GetDutyIntFlag
	.p2align	2
	.type	PWM_GetDutyIntFlag,%function
	.code	16                              @ @PWM_GetDutyIntFlag
	.thumb_func
PWM_GetDutyIntFlag:
.Lfunc_begin23:
	.loc	5 678 0 is_stmt 1               @ ../../../../Library/StdDriver/src/pwm.c:678:0
	.fnstart
	.cfi_startproc
@ %bb.0:
	.pad	#8
	sub	sp, #8
	.cfi_def_cfa_offset 8
	str	r0, [sp, #4]
	str	r1, [sp]
.Ltmp183:
	.loc	5 679 16 prologue_end           @ ../../../../Library/StdDriver/src/pwm.c:679:16
	ldr	r0, [sp, #4]
	movs	r1, #232
	.loc	5 679 22 is_stmt 0              @ ../../../../Library/StdDriver/src/pwm.c:679:22
	ldr	r0, [r0, r1]
	.loc	5 679 88                        @ ../../../../Library/StdDriver/src/pwm.c:679:88
	ldr	r1, [sp]
	.loc	5 679 13                        @ ../../../../Library/StdDriver/src/pwm.c:679:13
	lsrs	r0, r1
	ldr	r1, __arm_cp.23_0
	ands	r0, r1
	subs	r1, r0, #1
	sbcs	r0, r1
	.loc	5 679 5                         @ ../../../../Library/StdDriver/src/pwm.c:679:5
	add	sp, #8
	bx	lr
.Ltmp184:
	.p2align	2
@ %bb.1:
	.loc	5 0 5                           @ ../../../../Library/StdDriver/src/pwm.c:0:5
__arm_cp.23_0:
	.long	16842752                        @ 0x1010000
.Lcpi_end30:
	.size	__arm_cp.23_0, .Lcpi_end30-__arm_cp.23_0
.Lfunc_end23:
	.size	PWM_GetDutyIntFlag, .Lfunc_end23-PWM_GetDutyIntFlag
	.cfi_endproc
	.cantunwind
	.fnend
                                        @ -- End function
	.section	.text.PWM_EnableLoadMode,"ax",%progbits
	.hidden	PWM_EnableLoadMode              @ -- Begin function PWM_EnableLoadMode
	.globl	PWM_EnableLoadMode
	.p2align	1
	.type	PWM_EnableLoadMode,%function
	.code	16                              @ @PWM_EnableLoadMode
	.thumb_func
PWM_EnableLoadMode:
.Lfunc_begin24:
	.loc	5 694 0 is_stmt 1               @ ../../../../Library/StdDriver/src/pwm.c:694:0
	.fnstart
	.cfi_startproc
@ %bb.0:
	.pad	#12
	sub	sp, #12
	.cfi_def_cfa_offset 12
	str	r0, [sp, #8]
	str	r1, [sp, #4]
	str	r2, [sp]
.Ltmp185:
	.loc	5 695 21 prologue_end           @ ../../../../Library/StdDriver/src/pwm.c:695:21
	ldr	r2, [sp]
	.loc	5 695 36 is_stmt 0              @ ../../../../Library/StdDriver/src/pwm.c:695:36
	ldr	r0, [sp, #4]
	.loc	5 695 33                        @ ../../../../Library/StdDriver/src/pwm.c:695:33
	lsls	r2, r0
	.loc	5 695 6                         @ ../../../../Library/StdDriver/src/pwm.c:695:6
	ldr	r1, [sp, #8]
	.loc	5 695 17                        @ ../../../../Library/StdDriver/src/pwm.c:695:17
	ldr	r0, [r1]
	orrs	r0, r2
	str	r0, [r1]
	.loc	5 696 1 is_stmt 1               @ ../../../../Library/StdDriver/src/pwm.c:696:1
	add	sp, #12
	bx	lr
.Ltmp186:
.Lfunc_end24:
	.size	PWM_EnableLoadMode, .Lfunc_end24-PWM_EnableLoadMode
	.cfi_endproc
	.cantunwind
	.fnend
                                        @ -- End function
	.section	.text.PWM_DisableLoadMode,"ax",%progbits
	.hidden	PWM_DisableLoadMode             @ -- Begin function PWM_DisableLoadMode
	.globl	PWM_DisableLoadMode
	.p2align	1
	.type	PWM_DisableLoadMode,%function
	.code	16                              @ @PWM_DisableLoadMode
	.thumb_func
PWM_DisableLoadMode:
.Lfunc_begin25:
	.loc	5 710 0                         @ ../../../../Library/StdDriver/src/pwm.c:710:0
	.fnstart
	.cfi_startproc
@ %bb.0:
	.pad	#12
	sub	sp, #12
	.cfi_def_cfa_offset 12
	str	r0, [sp, #8]
	str	r1, [sp, #4]
	str	r2, [sp]
.Ltmp187:
	.loc	5 711 22 prologue_end           @ ../../../../Library/StdDriver/src/pwm.c:711:22
	ldr	r2, [sp]
	.loc	5 711 37 is_stmt 0              @ ../../../../Library/StdDriver/src/pwm.c:711:37
	ldr	r0, [sp, #4]
	.loc	5 711 34                        @ ../../../../Library/StdDriver/src/pwm.c:711:34
	lsls	r2, r0
	.loc	5 711 6                         @ ../../../../Library/StdDriver/src/pwm.c:711:6
	ldr	r1, [sp, #8]
	.loc	5 711 17                        @ ../../../../Library/StdDriver/src/pwm.c:711:17
	ldr	r0, [r1]
	bics	r0, r2
	str	r0, [r1]
	.loc	5 712 1 is_stmt 1               @ ../../../../Library/StdDriver/src/pwm.c:712:1
	add	sp, #12
	bx	lr
.Ltmp188:
.Lfunc_end25:
	.size	PWM_DisableLoadMode, .Lfunc_end25-PWM_DisableLoadMode
	.cfi_endproc
	.cantunwind
	.fnend
                                        @ -- End function
	.section	.text.PWM_EnableFaultBrakeInt,"ax",%progbits
	.hidden	PWM_EnableFaultBrakeInt         @ -- Begin function PWM_EnableFaultBrakeInt
	.globl	PWM_EnableFaultBrakeInt
	.p2align	1
	.type	PWM_EnableFaultBrakeInt,%function
	.code	16                              @ @PWM_EnableFaultBrakeInt
	.thumb_func
PWM_EnableFaultBrakeInt:
.Lfunc_begin26:
	.loc	5 725 0                         @ ../../../../Library/StdDriver/src/pwm.c:725:0
	.fnstart
	.cfi_startproc
@ %bb.0:
	.pad	#8
	sub	sp, #8
	.cfi_def_cfa_offset 8
	str	r0, [sp, #4]
	str	r1, [sp]
.Ltmp189:
	.loc	5 726 32 prologue_end           @ ../../../../Library/StdDriver/src/pwm.c:726:32
	ldr	r0, [sp]
	movs	r3, #7
	.loc	5 726 29 is_stmt 0              @ ../../../../Library/StdDriver/src/pwm.c:726:29
	lsls	r3, r0
	.loc	5 726 6                         @ ../../../../Library/StdDriver/src/pwm.c:726:6
	ldr	r1, [sp, #4]
	movs	r2, #228
	.loc	5 726 19                        @ ../../../../Library/StdDriver/src/pwm.c:726:19
	ldr	r0, [r1, r2]
	orrs	r0, r3
	str	r0, [r1, r2]
	.loc	5 727 1 is_stmt 1               @ ../../../../Library/StdDriver/src/pwm.c:727:1
	add	sp, #8
	bx	lr
.Ltmp190:
.Lfunc_end26:
	.size	PWM_EnableFaultBrakeInt, .Lfunc_end26-PWM_EnableFaultBrakeInt
	.cfi_endproc
	.cantunwind
	.fnend
                                        @ -- End function
	.section	.text.PWM_DisableFaultBrakeInt,"ax",%progbits
	.hidden	PWM_DisableFaultBrakeInt        @ -- Begin function PWM_DisableFaultBrakeInt
	.globl	PWM_DisableFaultBrakeInt
	.p2align	1
	.type	PWM_DisableFaultBrakeInt,%function
	.code	16                              @ @PWM_DisableFaultBrakeInt
	.thumb_func
PWM_DisableFaultBrakeInt:
.Lfunc_begin27:
	.loc	5 740 0                         @ ../../../../Library/StdDriver/src/pwm.c:740:0
	.fnstart
	.cfi_startproc
@ %bb.0:
	.pad	#8
	sub	sp, #8
	.cfi_def_cfa_offset 8
	str	r0, [sp, #4]
	str	r1, [sp]
.Ltmp191:
	.loc	5 741 33 prologue_end           @ ../../../../Library/StdDriver/src/pwm.c:741:33
	ldr	r0, [sp]
	movs	r3, #7
	.loc	5 741 30 is_stmt 0              @ ../../../../Library/StdDriver/src/pwm.c:741:30
	lsls	r3, r0
	.loc	5 741 6                         @ ../../../../Library/StdDriver/src/pwm.c:741:6
	ldr	r1, [sp, #4]
	movs	r2, #228
	.loc	5 741 19                        @ ../../../../Library/StdDriver/src/pwm.c:741:19
	ldr	r0, [r1, r2]
	bics	r0, r3
	str	r0, [r1, r2]
	.loc	5 742 1 is_stmt 1               @ ../../../../Library/StdDriver/src/pwm.c:742:1
	add	sp, #8
	bx	lr
.Ltmp192:
.Lfunc_end27:
	.size	PWM_DisableFaultBrakeInt, .Lfunc_end27-PWM_DisableFaultBrakeInt
	.cfi_endproc
	.cantunwind
	.fnend
                                        @ -- End function
	.section	.text.PWM_ClearFaultBrakeIntFlag,"ax",%progbits
	.hidden	PWM_ClearFaultBrakeIntFlag      @ -- Begin function PWM_ClearFaultBrakeIntFlag
	.globl	PWM_ClearFaultBrakeIntFlag
	.p2align	1
	.type	PWM_ClearFaultBrakeIntFlag,%function
	.code	16                              @ @PWM_ClearFaultBrakeIntFlag
	.thumb_func
PWM_ClearFaultBrakeIntFlag:
.Lfunc_begin28:
	.loc	5 754 0                         @ ../../../../Library/StdDriver/src/pwm.c:754:0
	.fnstart
	.cfi_startproc
@ %bb.0:
	.pad	#8
	sub	sp, #8
	.cfi_def_cfa_offset 8
	str	r0, [sp, #4]
	str	r1, [sp]
.Ltmp193:
	.loc	5 755 33 prologue_end           @ ../../../../Library/StdDriver/src/pwm.c:755:33
	ldr	r1, [sp]
	movs	r0, #63
	.loc	5 755 30 is_stmt 0              @ ../../../../Library/StdDriver/src/pwm.c:755:30
	lsls	r0, r1
	.loc	5 755 6                         @ ../../../../Library/StdDriver/src/pwm.c:755:6
	ldr	r1, [sp, #4]
	movs	r2, #236
	.loc	5 755 20                        @ ../../../../Library/StdDriver/src/pwm.c:755:20
	str	r0, [r1, r2]
	.loc	5 756 1 is_stmt 1               @ ../../../../Library/StdDriver/src/pwm.c:756:1
	add	sp, #8
	bx	lr
.Ltmp194:
.Lfunc_end28:
	.size	PWM_ClearFaultBrakeIntFlag, .Lfunc_end28-PWM_ClearFaultBrakeIntFlag
	.cfi_endproc
	.cantunwind
	.fnend
                                        @ -- End function
	.section	.text.PWM_GetFaultBrakeIntFlag,"ax",%progbits
	.hidden	PWM_GetFaultBrakeIntFlag        @ -- Begin function PWM_GetFaultBrakeIntFlag
	.globl	PWM_GetFaultBrakeIntFlag
	.p2align	1
	.type	PWM_GetFaultBrakeIntFlag,%function
	.code	16                              @ @PWM_GetFaultBrakeIntFlag
	.thumb_func
PWM_GetFaultBrakeIntFlag:
.Lfunc_begin29:
	.loc	5 770 0                         @ ../../../../Library/StdDriver/src/pwm.c:770:0
	.fnstart
	.cfi_startproc
@ %bb.0:
	.pad	#8
	sub	sp, #8
	.cfi_def_cfa_offset 8
	str	r0, [sp, #4]
	str	r1, [sp]
.Ltmp195:
	.loc	5 771 15 prologue_end           @ ../../../../Library/StdDriver/src/pwm.c:771:15
	ldr	r0, [sp, #4]
	movs	r1, #236
	.loc	5 771 21 is_stmt 0              @ ../../../../Library/StdDriver/src/pwm.c:771:21
	ldr	r0, [r0, r1]
	.loc	5 771 42                        @ ../../../../Library/StdDriver/src/pwm.c:771:42
	ldr	r1, [sp]
	.loc	5 771 13                        @ ../../../../Library/StdDriver/src/pwm.c:771:13
	lsrs	r0, r1
	movs	r1, #63
	ands	r0, r1
	subs	r1, r0, #1
	sbcs	r0, r1
	.loc	5 771 5                         @ ../../../../Library/StdDriver/src/pwm.c:771:5
	add	sp, #8
	bx	lr
.Ltmp196:
.Lfunc_end29:
	.size	PWM_GetFaultBrakeIntFlag, .Lfunc_end29-PWM_GetFaultBrakeIntFlag
	.cfi_endproc
	.cantunwind
	.fnend
                                        @ -- End function
	.section	.text.PWM_EnablePeriodInt,"ax",%progbits
	.hidden	PWM_EnablePeriodInt             @ -- Begin function PWM_EnablePeriodInt
	.globl	PWM_EnablePeriodInt
	.p2align	1
	.type	PWM_EnablePeriodInt,%function
	.code	16                              @ @PWM_EnablePeriodInt
	.thumb_func
PWM_EnablePeriodInt:
.Lfunc_begin30:
	.loc	5 784 0 is_stmt 1               @ ../../../../Library/StdDriver/src/pwm.c:784:0
	.fnstart
	.cfi_startproc
@ %bb.0:
	.pad	#12
	sub	sp, #12
	.cfi_def_cfa_offset 12
	str	r0, [sp, #8]
	str	r1, [sp, #4]
	str	r2, [sp]
.Ltmp197:
	.loc	5 785 49 prologue_end           @ ../../../../Library/StdDriver/src/pwm.c:785:49
	ldr	r0, [sp, #4]
	movs	r1, #1
	.loc	5 785 71 is_stmt 0              @ ../../../../Library/StdDriver/src/pwm.c:785:71
	bics	r0, r1
	movw	r3, #256
	.loc	5 785 44                        @ ../../../../Library/StdDriver/src/pwm.c:785:44
	lsls	r3, r0
	.loc	5 785 6                         @ ../../../../Library/StdDriver/src/pwm.c:785:6
	ldr	r1, [sp, #8]
	movs	r2, #224
	.loc	5 785 19                        @ ../../../../Library/StdDriver/src/pwm.c:785:19
	ldr	r0, [r1, r2]
	orrs	r0, r3
	str	r0, [r1, r2]
	.loc	5 786 1 is_stmt 1               @ ../../../../Library/StdDriver/src/pwm.c:786:1
	add	sp, #12
	bx	lr
.Ltmp198:
.Lfunc_end30:
	.size	PWM_EnablePeriodInt, .Lfunc_end30-PWM_EnablePeriodInt
	.cfi_endproc
	.cantunwind
	.fnend
                                        @ -- End function
	.section	.text.PWM_DisablePeriodInt,"ax",%progbits
	.hidden	PWM_DisablePeriodInt            @ -- Begin function PWM_DisablePeriodInt
	.globl	PWM_DisablePeriodInt
	.p2align	1
	.type	PWM_DisablePeriodInt,%function
	.code	16                              @ @PWM_DisablePeriodInt
	.thumb_func
PWM_DisablePeriodInt:
.Lfunc_begin31:
	.loc	5 797 0                         @ ../../../../Library/StdDriver/src/pwm.c:797:0
	.fnstart
	.cfi_startproc
@ %bb.0:
	.pad	#8
	sub	sp, #8
	.cfi_def_cfa_offset 8
	str	r0, [sp, #4]
	str	r1, [sp]
.Ltmp199:
	.loc	5 798 50 prologue_end           @ ../../../../Library/StdDriver/src/pwm.c:798:50
	ldr	r0, [sp]
	movs	r1, #1
	.loc	5 798 72 is_stmt 0              @ ../../../../Library/StdDriver/src/pwm.c:798:72
	bics	r0, r1
	movw	r3, #256
	.loc	5 798 45                        @ ../../../../Library/StdDriver/src/pwm.c:798:45
	lsls	r3, r0
	.loc	5 798 6                         @ ../../../../Library/StdDriver/src/pwm.c:798:6
	ldr	r1, [sp, #4]
	movs	r2, #224
	.loc	5 798 19                        @ ../../../../Library/StdDriver/src/pwm.c:798:19
	ldr	r0, [r1, r2]
	bics	r0, r3
	str	r0, [r1, r2]
	.loc	5 799 1 is_stmt 1               @ ../../../../Library/StdDriver/src/pwm.c:799:1
	add	sp, #8
	bx	lr
.Ltmp200:
.Lfunc_end31:
	.size	PWM_DisablePeriodInt, .Lfunc_end31-PWM_DisablePeriodInt
	.cfi_endproc
	.cantunwind
	.fnend
                                        @ -- End function
	.section	.text.PWM_ClearPeriodIntFlag,"ax",%progbits
	.hidden	PWM_ClearPeriodIntFlag          @ -- Begin function PWM_ClearPeriodIntFlag
	.globl	PWM_ClearPeriodIntFlag
	.p2align	1
	.type	PWM_ClearPeriodIntFlag,%function
	.code	16                              @ @PWM_ClearPeriodIntFlag
	.thumb_func
PWM_ClearPeriodIntFlag:
.Lfunc_begin32:
	.loc	5 810 0                         @ ../../../../Library/StdDriver/src/pwm.c:810:0
	.fnstart
	.cfi_startproc
@ %bb.0:
	.pad	#8
	sub	sp, #8
	.cfi_def_cfa_offset 8
	str	r0, [sp, #4]
	str	r1, [sp]
.Ltmp201:
	.loc	5 811 49 prologue_end           @ ../../../../Library/StdDriver/src/pwm.c:811:49
	ldr	r1, [sp]
	movs	r0, #1
	.loc	5 811 71 is_stmt 0              @ ../../../../Library/StdDriver/src/pwm.c:811:71
	bics	r1, r0
	movw	r0, #256
	.loc	5 811 44                        @ ../../../../Library/StdDriver/src/pwm.c:811:44
	lsls	r0, r1
	.loc	5 811 6                         @ ../../../../Library/StdDriver/src/pwm.c:811:6
	ldr	r1, [sp, #4]
	movs	r2, #232
	.loc	5 811 20                        @ ../../../../Library/StdDriver/src/pwm.c:811:20
	str	r0, [r1, r2]
	.loc	5 812 1 is_stmt 1               @ ../../../../Library/StdDriver/src/pwm.c:812:1
	add	sp, #8
	bx	lr
.Ltmp202:
.Lfunc_end32:
	.size	PWM_ClearPeriodIntFlag, .Lfunc_end32-PWM_ClearPeriodIntFlag
	.cfi_endproc
	.cantunwind
	.fnend
                                        @ -- End function
	.section	.text.PWM_GetPeriodIntFlag,"ax",%progbits
	.hidden	PWM_GetPeriodIntFlag            @ -- Begin function PWM_GetPeriodIntFlag
	.globl	PWM_GetPeriodIntFlag
	.p2align	1
	.type	PWM_GetPeriodIntFlag,%function
	.code	16                              @ @PWM_GetPeriodIntFlag
	.thumb_func
PWM_GetPeriodIntFlag:
.Lfunc_begin33:
	.loc	5 826 0                         @ ../../../../Library/StdDriver/src/pwm.c:826:0
	.fnstart
	.cfi_startproc
@ %bb.0:
	.pad	#8
	sub	sp, #8
	.cfi_def_cfa_offset 8
	str	r0, [sp, #4]
	str	r1, [sp]
.Ltmp203:
	.loc	5 827 15 prologue_end           @ ../../../../Library/StdDriver/src/pwm.c:827:15
	ldr	r0, [sp, #4]
	movs	r1, #232
	.loc	5 827 21 is_stmt 0              @ ../../../../Library/StdDriver/src/pwm.c:827:21
	ldr	r0, [r0, r1]
	.loc	5 827 58                        @ ../../../../Library/StdDriver/src/pwm.c:827:58
	ldr	r1, [sp]
	movs	r2, #1
	.loc	5 827 80                        @ ../../../../Library/StdDriver/src/pwm.c:827:80
	bics	r1, r2
	.loc	5 827 13                        @ ../../../../Library/StdDriver/src/pwm.c:827:13
	lsrs	r0, r1
	movw	r1, #256
	ands	r0, r1
	lsrs	r0, r0, #8
	.loc	5 827 5                         @ ../../../../Library/StdDriver/src/pwm.c:827:5
	add	sp, #8
	bx	lr
.Ltmp204:
.Lfunc_end33:
	.size	PWM_GetPeriodIntFlag, .Lfunc_end33-PWM_GetPeriodIntFlag
	.cfi_endproc
	.cantunwind
	.fnend
                                        @ -- End function
	.section	.text.PWM_EnableZeroInt,"ax",%progbits
	.hidden	PWM_EnableZeroInt               @ -- Begin function PWM_EnableZeroInt
	.globl	PWM_EnableZeroInt
	.p2align	1
	.type	PWM_EnableZeroInt,%function
	.code	16                              @ @PWM_EnableZeroInt
	.thumb_func
PWM_EnableZeroInt:
.Lfunc_begin34:
	.loc	5 839 0 is_stmt 1               @ ../../../../Library/StdDriver/src/pwm.c:839:0
	.fnstart
	.cfi_startproc
@ %bb.0:
	.pad	#8
	sub	sp, #8
	.cfi_def_cfa_offset 8
	str	r0, [sp, #4]
	str	r1, [sp]
.Ltmp205:
	.loc	5 840 49 prologue_end           @ ../../../../Library/StdDriver/src/pwm.c:840:49
	ldr	r0, [sp]
	movs	r3, #1
	.loc	5 840 71 is_stmt 0              @ ../../../../Library/StdDriver/src/pwm.c:840:71
	bics	r0, r3
	.loc	5 840 44                        @ ../../../../Library/StdDriver/src/pwm.c:840:44
	lsls	r3, r0
	.loc	5 840 6                         @ ../../../../Library/StdDriver/src/pwm.c:840:6
	ldr	r1, [sp, #4]
	movs	r2, #224
	.loc	5 840 19                        @ ../../../../Library/StdDriver/src/pwm.c:840:19
	ldr	r0, [r1, r2]
	orrs	r0, r3
	str	r0, [r1, r2]
	.loc	5 841 1 is_stmt 1               @ ../../../../Library/StdDriver/src/pwm.c:841:1
	add	sp, #8
	bx	lr
.Ltmp206:
.Lfunc_end34:
	.size	PWM_EnableZeroInt, .Lfunc_end34-PWM_EnableZeroInt
	.cfi_endproc
	.cantunwind
	.fnend
                                        @ -- End function
	.section	.text.PWM_DisableZeroInt,"ax",%progbits
	.hidden	PWM_DisableZeroInt              @ -- Begin function PWM_DisableZeroInt
	.globl	PWM_DisableZeroInt
	.p2align	1
	.type	PWM_DisableZeroInt,%function
	.code	16                              @ @PWM_DisableZeroInt
	.thumb_func
PWM_DisableZeroInt:
.Lfunc_begin35:
	.loc	5 852 0                         @ ../../../../Library/StdDriver/src/pwm.c:852:0
	.fnstart
	.cfi_startproc
@ %bb.0:
	.pad	#8
	sub	sp, #8
	.cfi_def_cfa_offset 8
	str	r0, [sp, #4]
	str	r1, [sp]
.Ltmp207:
	.loc	5 853 50 prologue_end           @ ../../../../Library/StdDriver/src/pwm.c:853:50
	ldr	r0, [sp]
	movs	r3, #1
	.loc	5 853 72 is_stmt 0              @ ../../../../Library/StdDriver/src/pwm.c:853:72
	bics	r0, r3
	.loc	5 853 45                        @ ../../../../Library/StdDriver/src/pwm.c:853:45
	lsls	r3, r0
	.loc	5 853 6                         @ ../../../../Library/StdDriver/src/pwm.c:853:6
	ldr	r1, [sp, #4]
	movs	r2, #224
	.loc	5 853 19                        @ ../../../../Library/StdDriver/src/pwm.c:853:19
	ldr	r0, [r1, r2]
	bics	r0, r3
	str	r0, [r1, r2]
	.loc	5 854 1 is_stmt 1               @ ../../../../Library/StdDriver/src/pwm.c:854:1
	add	sp, #8
	bx	lr
.Ltmp208:
.Lfunc_end35:
	.size	PWM_DisableZeroInt, .Lfunc_end35-PWM_DisableZeroInt
	.cfi_endproc
	.cantunwind
	.fnend
                                        @ -- End function
	.section	.text.PWM_ClearZeroIntFlag,"ax",%progbits
	.hidden	PWM_ClearZeroIntFlag            @ -- Begin function PWM_ClearZeroIntFlag
	.globl	PWM_ClearZeroIntFlag
	.p2align	1
	.type	PWM_ClearZeroIntFlag,%function
	.code	16                              @ @PWM_ClearZeroIntFlag
	.thumb_func
PWM_ClearZeroIntFlag:
.Lfunc_begin36:
	.loc	5 865 0                         @ ../../../../Library/StdDriver/src/pwm.c:865:0
	.fnstart
	.cfi_startproc
@ %bb.0:
	.pad	#8
	sub	sp, #8
	.cfi_def_cfa_offset 8
	str	r0, [sp, #4]
	str	r1, [sp]
.Ltmp209:
	.loc	5 866 49 prologue_end           @ ../../../../Library/StdDriver/src/pwm.c:866:49
	ldr	r1, [sp]
	movs	r0, #1
	.loc	5 866 71 is_stmt 0              @ ../../../../Library/StdDriver/src/pwm.c:866:71
	bics	r1, r0
	.loc	5 866 44                        @ ../../../../Library/StdDriver/src/pwm.c:866:44
	lsls	r0, r1
	.loc	5 866 6                         @ ../../../../Library/StdDriver/src/pwm.c:866:6
	ldr	r1, [sp, #4]
	movs	r2, #232
	.loc	5 866 20                        @ ../../../../Library/StdDriver/src/pwm.c:866:20
	str	r0, [r1, r2]
	.loc	5 867 1 is_stmt 1               @ ../../../../Library/StdDriver/src/pwm.c:867:1
	add	sp, #8
	bx	lr
.Ltmp210:
.Lfunc_end36:
	.size	PWM_ClearZeroIntFlag, .Lfunc_end36-PWM_ClearZeroIntFlag
	.cfi_endproc
	.cantunwind
	.fnend
                                        @ -- End function
	.section	.text.PWM_GetZeroIntFlag,"ax",%progbits
	.hidden	PWM_GetZeroIntFlag              @ -- Begin function PWM_GetZeroIntFlag
	.globl	PWM_GetZeroIntFlag
	.p2align	1
	.type	PWM_GetZeroIntFlag,%function
	.code	16                              @ @PWM_GetZeroIntFlag
	.thumb_func
PWM_GetZeroIntFlag:
.Lfunc_begin37:
	.loc	5 881 0                         @ ../../../../Library/StdDriver/src/pwm.c:881:0
	.fnstart
	.cfi_startproc
@ %bb.0:
	.pad	#8
	sub	sp, #8
	.cfi_def_cfa_offset 8
	str	r0, [sp, #4]
	str	r1, [sp]
.Ltmp211:
	.loc	5 882 15 prologue_end           @ ../../../../Library/StdDriver/src/pwm.c:882:15
	ldr	r0, [sp, #4]
	movs	r1, #232
	.loc	5 882 21 is_stmt 0              @ ../../../../Library/StdDriver/src/pwm.c:882:21
	ldr	r0, [r0, r1]
	.loc	5 882 58                        @ ../../../../Library/StdDriver/src/pwm.c:882:58
	ldr	r2, [sp]
	movs	r1, #1
	.loc	5 882 80                        @ ../../../../Library/StdDriver/src/pwm.c:882:80
	bics	r2, r1
	.loc	5 882 13                        @ ../../../../Library/StdDriver/src/pwm.c:882:13
	lsrs	r0, r2
	ands	r0, r1
	.loc	5 882 5                         @ ../../../../Library/StdDriver/src/pwm.c:882:5
	add	sp, #8
	bx	lr
.Ltmp212:
.Lfunc_end37:
	.size	PWM_GetZeroIntFlag, .Lfunc_end37-PWM_GetZeroIntFlag
	.cfi_endproc
	.cantunwind
	.fnend
                                        @ -- End function
	.section	.text.PWM_SetClockSource,"ax",%progbits
	.hidden	PWM_SetClockSource              @ -- Begin function PWM_SetClockSource
	.globl	PWM_SetClockSource
	.p2align	1
	.type	PWM_SetClockSource,%function
	.code	16                              @ @PWM_SetClockSource
	.thumb_func
PWM_SetClockSource:
.Lfunc_begin38:
	.loc	5 901 0 is_stmt 1               @ ../../../../Library/StdDriver/src/pwm.c:901:0
	.fnstart
	.cfi_startproc
@ %bb.0:
	.pad	#12
	sub	sp, #12
	.cfi_def_cfa_offset 12
	str	r0, [sp, #8]
	str	r1, [sp, #4]
	str	r2, [sp]
.Ltmp213:
	.loc	5 902 23 prologue_end           @ ../../../../Library/StdDriver/src/pwm.c:902:23
	ldr	r0, [sp, #8]
	.loc	5 902 29 is_stmt 0              @ ../../../../Library/StdDriver/src/pwm.c:902:29
	ldr	r0, [r0, #16]
	.loc	5 902 69                        @ ../../../../Library/StdDriver/src/pwm.c:902:69
	ldr	r1, [sp, #4]
	.loc	5 902 91                        @ ../../../../Library/StdDriver/src/pwm.c:902:91
	lsrs	r1, r1, #1
	lsls	r2, r1, #3
	movs	r1, #7
	.loc	5 902 64                        @ ../../../../Library/StdDriver/src/pwm.c:902:64
	lsls	r1, r2
	.loc	5 902 36                        @ ../../../../Library/StdDriver/src/pwm.c:902:36
	bics	r0, r1
	.loc	5 903 22 is_stmt 1              @ ../../../../Library/StdDriver/src/pwm.c:903:22
	ldr	r1, [sp]
	.loc	5 903 35 is_stmt 0              @ ../../../../Library/StdDriver/src/pwm.c:903:35
	lsls	r1, r2
	.loc	5 902 120 is_stmt 1             @ ../../../../Library/StdDriver/src/pwm.c:902:120
	orrs	r0, r1
	.loc	5 902 6 is_stmt 0               @ ../../../../Library/StdDriver/src/pwm.c:902:6
	ldr	r1, [sp, #8]
	.loc	5 902 19                        @ ../../../../Library/StdDriver/src/pwm.c:902:19
	str	r0, [r1, #16]
	.loc	5 904 1 is_stmt 1               @ ../../../../Library/StdDriver/src/pwm.c:904:1
	add	sp, #12
	bx	lr
.Ltmp214:
.Lfunc_end38:
	.size	PWM_SetClockSource, .Lfunc_end38-PWM_SetClockSource
	.cfi_endproc
	.cantunwind
	.fnend
                                        @ -- End function
	.section	.text.PWM_EnableBrakeNoiseFilter,"ax",%progbits
	.hidden	PWM_EnableBrakeNoiseFilter      @ -- Begin function PWM_EnableBrakeNoiseFilter
	.globl	PWM_EnableBrakeNoiseFilter
	.p2align	1
	.type	PWM_EnableBrakeNoiseFilter,%function
	.code	16                              @ @PWM_EnableBrakeNoiseFilter
	.thumb_func
PWM_EnableBrakeNoiseFilter:
.Lfunc_begin39:
	.loc	5 925 0                         @ ../../../../Library/StdDriver/src/pwm.c:925:0
	.fnstart
	.cfi_startproc
@ %bb.0:
	.save	{r4, lr}
	push	{r4, lr}
	.cfi_def_cfa_offset 8
	.cfi_offset lr, -4
	.cfi_offset r4, -8
	.pad	#16
	sub	sp, #16
	.cfi_def_cfa_offset 24
	str	r0, [sp, #12]
	str	r1, [sp, #8]
	str	r2, [sp, #4]
	str	r3, [sp]
.Ltmp215:
	.loc	5 926 20 prologue_end           @ ../../../../Library/StdDriver/src/pwm.c:926:20
	ldr	r0, [sp, #12]
	movs	r2, #192
	.loc	5 926 26 is_stmt 0              @ ../../../../Library/StdDriver/src/pwm.c:926:26
	ldr	r0, [r0, r2]
	.loc	5 926 86                        @ ../../../../Library/StdDriver/src/pwm.c:926:86
	ldr	r1, [sp, #8]
	.loc	5 926 101                       @ ../../../../Library/StdDriver/src/pwm.c:926:101
	lsls	r3, r1, #3
	movs	r1, #126
	.loc	5 926 82                        @ ../../../../Library/StdDriver/src/pwm.c:926:82
	lsls	r1, r3
	.loc	5 926 30                        @ ../../../../Library/StdDriver/src/pwm.c:926:30
	bics	r0, r1
	.loc	5 927 21 is_stmt 1              @ ../../../../Library/StdDriver/src/pwm.c:927:21
	ldr	r1, [sp, #4]
	.loc	5 927 31 is_stmt 0              @ ../../../../Library/StdDriver/src/pwm.c:927:31
	lsls	r1, r1, #4
	.loc	5 927 60                        @ ../../../../Library/StdDriver/src/pwm.c:927:60
	ldr	r4, [sp]
	.loc	5 927 73                        @ ../../../../Library/StdDriver/src/pwm.c:927:73
	lsls	r4, r4, #1
	.loc	5 927 57                        @ ../../../../Library/StdDriver/src/pwm.c:927:57
	orrs	r1, r4
	.loc	5 927 99                        @ ../../../../Library/StdDriver/src/pwm.c:927:99
	adds	r1, r1, #1
	.loc	5 927 122                       @ ../../../../Library/StdDriver/src/pwm.c:927:122
	lsls	r1, r3
	.loc	5 926 126 is_stmt 1             @ ../../../../Library/StdDriver/src/pwm.c:926:126
	orrs	r0, r1
	.loc	5 926 6 is_stmt 0               @ ../../../../Library/StdDriver/src/pwm.c:926:6
	ldr	r1, [sp, #12]
	.loc	5 926 16                        @ ../../../../Library/StdDriver/src/pwm.c:926:16
	str	r0, [r1, r2]
	.loc	5 928 1 is_stmt 1               @ ../../../../Library/StdDriver/src/pwm.c:928:1
	add	sp, #16
	pop	{r4, pc}
.Ltmp216:
.Lfunc_end39:
	.size	PWM_EnableBrakeNoiseFilter, .Lfunc_end39-PWM_EnableBrakeNoiseFilter
	.cfi_endproc
	.cantunwind
	.fnend
                                        @ -- End function
	.section	.text.PWM_DisableBrakeNoiseFilter,"ax",%progbits
	.hidden	PWM_DisableBrakeNoiseFilter     @ -- Begin function PWM_DisableBrakeNoiseFilter
	.globl	PWM_DisableBrakeNoiseFilter
	.p2align	1
	.type	PWM_DisableBrakeNoiseFilter,%function
	.code	16                              @ @PWM_DisableBrakeNoiseFilter
	.thumb_func
PWM_DisableBrakeNoiseFilter:
.Lfunc_begin40:
	.loc	5 939 0                         @ ../../../../Library/StdDriver/src/pwm.c:939:0
	.fnstart
	.cfi_startproc
@ %bb.0:
	.pad	#8
	sub	sp, #8
	.cfi_def_cfa_offset 8
	str	r0, [sp, #4]
	str	r1, [sp]
.Ltmp217:
	.loc	5 940 45 prologue_end           @ ../../../../Library/StdDriver/src/pwm.c:940:45
	ldr	r0, [sp]
	.loc	5 940 60 is_stmt 0              @ ../../../../Library/StdDriver/src/pwm.c:940:60
	lsls	r0, r0, #3
	movs	r3, #1
	.loc	5 940 41                        @ ../../../../Library/StdDriver/src/pwm.c:940:41
	lsls	r3, r0
	.loc	5 940 6                         @ ../../../../Library/StdDriver/src/pwm.c:940:6
	ldr	r1, [sp, #4]
	movs	r2, #192
	.loc	5 940 16                        @ ../../../../Library/StdDriver/src/pwm.c:940:16
	ldr	r0, [r1, r2]
	bics	r0, r3
	str	r0, [r1, r2]
	.loc	5 941 1 is_stmt 1               @ ../../../../Library/StdDriver/src/pwm.c:941:1
	add	sp, #8
	bx	lr
.Ltmp218:
.Lfunc_end40:
	.size	PWM_DisableBrakeNoiseFilter, .Lfunc_end40-PWM_DisableBrakeNoiseFilter
	.cfi_endproc
	.cantunwind
	.fnend
                                        @ -- End function
	.section	.text.PWM_EnableBrakePinInverse,"ax",%progbits
	.hidden	PWM_EnableBrakePinInverse       @ -- Begin function PWM_EnableBrakePinInverse
	.globl	PWM_EnableBrakePinInverse
	.p2align	1
	.type	PWM_EnableBrakePinInverse,%function
	.code	16                              @ @PWM_EnableBrakePinInverse
	.thumb_func
PWM_EnableBrakePinInverse:
.Lfunc_begin41:
	.loc	5 952 0                         @ ../../../../Library/StdDriver/src/pwm.c:952:0
	.fnstart
	.cfi_startproc
@ %bb.0:
	.pad	#8
	sub	sp, #8
	.cfi_def_cfa_offset 8
	str	r0, [sp, #4]
	str	r1, [sp]
.Ltmp219:
	.loc	5 953 45 prologue_end           @ ../../../../Library/StdDriver/src/pwm.c:953:45
	ldr	r0, [sp]
	.loc	5 953 60 is_stmt 0              @ ../../../../Library/StdDriver/src/pwm.c:953:60
	lsls	r0, r0, #3
	movs	r3, #128
	.loc	5 953 41                        @ ../../../../Library/StdDriver/src/pwm.c:953:41
	lsls	r3, r0
	.loc	5 953 6                         @ ../../../../Library/StdDriver/src/pwm.c:953:6
	ldr	r1, [sp, #4]
	movs	r2, #192
	.loc	5 953 16                        @ ../../../../Library/StdDriver/src/pwm.c:953:16
	ldr	r0, [r1, r2]
	orrs	r0, r3
	str	r0, [r1, r2]
	.loc	5 954 1 is_stmt 1               @ ../../../../Library/StdDriver/src/pwm.c:954:1
	add	sp, #8
	bx	lr
.Ltmp220:
.Lfunc_end41:
	.size	PWM_EnableBrakePinInverse, .Lfunc_end41-PWM_EnableBrakePinInverse
	.cfi_endproc
	.cantunwind
	.fnend
                                        @ -- End function
	.section	.text.PWM_DisableBrakePinInverse,"ax",%progbits
	.hidden	PWM_DisableBrakePinInverse      @ -- Begin function PWM_DisableBrakePinInverse
	.globl	PWM_DisableBrakePinInverse
	.p2align	1
	.type	PWM_DisableBrakePinInverse,%function
	.code	16                              @ @PWM_DisableBrakePinInverse
	.thumb_func
PWM_DisableBrakePinInverse:
.Lfunc_begin42:
	.loc	5 965 0                         @ ../../../../Library/StdDriver/src/pwm.c:965:0
	.fnstart
	.cfi_startproc
@ %bb.0:
	.pad	#8
	sub	sp, #8
	.cfi_def_cfa_offset 8
	str	r0, [sp, #4]
	str	r1, [sp]
.Ltmp221:
	.loc	5 966 46 prologue_end           @ ../../../../Library/StdDriver/src/pwm.c:966:46
	ldr	r0, [sp]
	.loc	5 966 61 is_stmt 0              @ ../../../../Library/StdDriver/src/pwm.c:966:61
	lsls	r0, r0, #3
	movs	r3, #128
	.loc	5 966 42                        @ ../../../../Library/StdDriver/src/pwm.c:966:42
	lsls	r3, r0
	.loc	5 966 6                         @ ../../../../Library/StdDriver/src/pwm.c:966:6
	ldr	r1, [sp, #4]
	movs	r2, #192
	.loc	5 966 16                        @ ../../../../Library/StdDriver/src/pwm.c:966:16
	ldr	r0, [r1, r2]
	bics	r0, r3
	str	r0, [r1, r2]
	.loc	5 967 1 is_stmt 1               @ ../../../../Library/StdDriver/src/pwm.c:967:1
	add	sp, #8
	bx	lr
.Ltmp222:
.Lfunc_end42:
	.size	PWM_DisableBrakePinInverse, .Lfunc_end42-PWM_DisableBrakePinInverse
	.cfi_endproc
	.cantunwind
	.fnend
                                        @ -- End function
	.section	.text.PWM_SetBrakePinSource,"ax",%progbits
	.hidden	PWM_SetBrakePinSource           @ -- Begin function PWM_SetBrakePinSource
	.globl	PWM_SetBrakePinSource
	.p2align	1
	.type	PWM_SetBrakePinSource,%function
	.code	16                              @ @PWM_SetBrakePinSource
	.thumb_func
PWM_SetBrakePinSource:
.Lfunc_begin43:
	.loc	5 979 0                         @ ../../../../Library/StdDriver/src/pwm.c:979:0
	.fnstart
	.cfi_startproc
@ %bb.0:
	.pad	#12
	sub	sp, #12
	.cfi_def_cfa_offset 12
	str	r0, [sp, #8]
	str	r1, [sp, #4]
	str	r2, [sp]
.Ltmp223:
	.loc	5 980 20 prologue_end           @ ../../../../Library/StdDriver/src/pwm.c:980:20
	ldr	r0, [sp, #8]
	movs	r2, #192
	.loc	5 980 26 is_stmt 0              @ ../../../../Library/StdDriver/src/pwm.c:980:26
	ldr	r0, [r0, r2]
	.loc	5 980 57                        @ ../../../../Library/StdDriver/src/pwm.c:980:57
	ldr	r1, [sp, #4]
	.loc	5 980 72                        @ ../../../../Library/StdDriver/src/pwm.c:980:72
	lsls	r3, r1, #3
	movs	r1, #1
	lsls	r1, r1, #16
	.loc	5 980 53                        @ ../../../../Library/StdDriver/src/pwm.c:980:53
	lsls	r1, r3
	.loc	5 980 30                        @ ../../../../Library/StdDriver/src/pwm.c:980:30
	bics	r0, r1
	.loc	5 980 85                        @ ../../../../Library/StdDriver/src/pwm.c:980:85
	ldr	r1, [sp]
	.loc	5 980 128                       @ ../../../../Library/StdDriver/src/pwm.c:980:128
	adds	r3, #16
	.loc	5 980 105                       @ ../../../../Library/StdDriver/src/pwm.c:980:105
	lsls	r1, r3
	.loc	5 980 82                        @ ../../../../Library/StdDriver/src/pwm.c:980:82
	orrs	r0, r1
	.loc	5 980 6                         @ ../../../../Library/StdDriver/src/pwm.c:980:6
	ldr	r1, [sp, #8]
	.loc	5 980 16                        @ ../../../../Library/StdDriver/src/pwm.c:980:16
	str	r0, [r1, r2]
	.loc	5 981 1 is_stmt 1               @ ../../../../Library/StdDriver/src/pwm.c:981:1
	add	sp, #12
	bx	lr
.Ltmp224:
.Lfunc_end43:
	.size	PWM_SetBrakePinSource, .Lfunc_end43-PWM_SetBrakePinSource
	.cfi_endproc
	.cantunwind
	.fnend
                                        @ -- End function
	.section	.text.PWM_GetWrapAroundFlag,"ax",%progbits
	.hidden	PWM_GetWrapAroundFlag           @ -- Begin function PWM_GetWrapAroundFlag
	.globl	PWM_GetWrapAroundFlag
	.p2align	1
	.type	PWM_GetWrapAroundFlag,%function
	.code	16                              @ @PWM_GetWrapAroundFlag
	.thumb_func
PWM_GetWrapAroundFlag:
.Lfunc_begin44:
	.loc	5 995 0                         @ ../../../../Library/StdDriver/src/pwm.c:995:0
	.fnstart
	.cfi_startproc
@ %bb.0:
	.pad	#8
	sub	sp, #8
	.cfi_def_cfa_offset 8
	str	r0, [sp, #4]
	str	r1, [sp]
.Ltmp225:
	.loc	5 996 15 prologue_end           @ ../../../../Library/StdDriver/src/pwm.c:996:15
	ldr	r0, [sp, #4]
	movw	r1, #288
	.loc	5 996 21 is_stmt 0              @ ../../../../Library/StdDriver/src/pwm.c:996:21
	ldr	r0, [r0, r1]
	.loc	5 996 59                        @ ../../../../Library/StdDriver/src/pwm.c:996:59
	ldr	r2, [sp]
	movs	r1, #1
	.loc	5 996 81                        @ ../../../../Library/StdDriver/src/pwm.c:996:81
	bics	r2, r1
	.loc	5 996 13                        @ ../../../../Library/StdDriver/src/pwm.c:996:13
	lsrs	r0, r2
	ands	r0, r1
	.loc	5 996 5                         @ ../../../../Library/StdDriver/src/pwm.c:996:5
	add	sp, #8
	bx	lr
.Ltmp226:
.Lfunc_end44:
	.size	PWM_GetWrapAroundFlag, .Lfunc_end44-PWM_GetWrapAroundFlag
	.cfi_endproc
	.cantunwind
	.fnend
                                        @ -- End function
	.section	.text.PWM_ClearWrapAroundFlag,"ax",%progbits
	.hidden	PWM_ClearWrapAroundFlag         @ -- Begin function PWM_ClearWrapAroundFlag
	.globl	PWM_ClearWrapAroundFlag
	.p2align	1
	.type	PWM_ClearWrapAroundFlag,%function
	.code	16                              @ @PWM_ClearWrapAroundFlag
	.thumb_func
PWM_ClearWrapAroundFlag:
.Lfunc_begin45:
	.loc	5 1008 0 is_stmt 1              @ ../../../../Library/StdDriver/src/pwm.c:1008:0
	.fnstart
	.cfi_startproc
@ %bb.0:
	.pad	#8
	sub	sp, #8
	.cfi_def_cfa_offset 8
	str	r0, [sp, #4]
	str	r1, [sp]
.Ltmp227:
	.loc	5 1009 50 prologue_end          @ ../../../../Library/StdDriver/src/pwm.c:1009:50
	ldr	r1, [sp]
	movs	r0, #1
	.loc	5 1009 72 is_stmt 0             @ ../../../../Library/StdDriver/src/pwm.c:1009:72
	bics	r1, r0
	.loc	5 1009 45                       @ ../../../../Library/StdDriver/src/pwm.c:1009:45
	lsls	r0, r1
	.loc	5 1009 6                        @ ../../../../Library/StdDriver/src/pwm.c:1009:6
	ldr	r1, [sp, #4]
	movw	r2, #288
	.loc	5 1009 19                       @ ../../../../Library/StdDriver/src/pwm.c:1009:19
	str	r0, [r1, r2]
	.loc	5 1010 1 is_stmt 1              @ ../../../../Library/StdDriver/src/pwm.c:1010:1
	add	sp, #8
	bx	lr
.Ltmp228:
.Lfunc_end45:
	.size	PWM_ClearWrapAroundFlag, .Lfunc_end45-PWM_ClearWrapAroundFlag
	.cfi_endproc
	.cantunwind
	.fnend
                                        @ -- End function
	.section	.text.PWM_EnablePDMA,"ax",%progbits
	.hidden	PWM_EnablePDMA                  @ -- Begin function PWM_EnablePDMA
	.globl	PWM_EnablePDMA
	.p2align	1
	.type	PWM_EnablePDMA,%function
	.code	16                              @ @PWM_EnablePDMA
	.thumb_func
PWM_EnablePDMA:
.Lfunc_begin46:
	.loc	5 1027 0                        @ ../../../../Library/StdDriver/src/pwm.c:1027:0
	.fnstart
	.cfi_startproc
@ %bb.0:
	.save	{r4, r5, r7, lr}
	push	{r4, r5, r7, lr}
	.cfi_def_cfa_offset 16
	.cfi_offset lr, -4
	.cfi_offset r7, -8
	.cfi_offset r5, -12
	.cfi_offset r4, -16
	.pad	#20
	sub	sp, #20
	.cfi_def_cfa_offset 36
	str	r0, [sp, #16]
	str	r1, [sp, #12]
	str	r2, [sp, #8]
	str	r3, [sp, #4]
.Ltmp229:
	.loc	5 1029 18 prologue_end          @ ../../../../Library/StdDriver/src/pwm.c:1029:18
	ldr	r0, [sp, #12]
	movs	r4, #1
	.loc	5 1029 32 is_stmt 0             @ ../../../../Library/StdDriver/src/pwm.c:1029:32
	ands	r0, r4
	.loc	5 1029 16                       @ ../../../../Library/StdDriver/src/pwm.c:1029:16
	str	r0, [sp]
	.loc	5 1030 24 is_stmt 1             @ ../../../../Library/StdDriver/src/pwm.c:1030:24
	ldr	r0, [sp, #16]
	movw	r2, #572
	.loc	5 1030 30 is_stmt 0             @ ../../../../Library/StdDriver/src/pwm.c:1030:30
	ldr	r0, [r0, r2]
	.loc	5 1030 130                      @ ../../../../Library/StdDriver/src/pwm.c:1030:130
	ldr	r1, [sp, #12]
	.loc	5 1030 152                      @ ../../../../Library/StdDriver/src/pwm.c:1030:152
	lsrs	r1, r1, #1
	lsls	r3, r1, #3
	movs	r1, #30
	.loc	5 1030 125                      @ ../../../../Library/StdDriver/src/pwm.c:1030:125
	lsls	r1, r3
	.loc	5 1030 38                       @ ../../../../Library/StdDriver/src/pwm.c:1030:38
	bics	r0, r1
	.loc	5 1031 25 is_stmt 1             @ ../../../../Library/StdDriver/src/pwm.c:1031:25
	ldr	r1, [sp]
	.loc	5 1031 36 is_stmt 0             @ ../../../../Library/StdDriver/src/pwm.c:1031:36
	lsls	r1, r1, #4
	.loc	5 1031 68                       @ ../../../../Library/StdDriver/src/pwm.c:1031:68
	ldr	r5, [sp, #8]
	.loc	5 1031 83                       @ ../../../../Library/StdDriver/src/pwm.c:1031:83
	lsls	r5, r5, #3
	.loc	5 1031 65                       @ ../../../../Library/StdDriver/src/pwm.c:1031:65
	orrs	r1, r5
	.loc	5 1032 24 is_stmt 1             @ ../../../../Library/StdDriver/src/pwm.c:1032:24
	ldr	r5, [sp, #4]
	.loc	5 1031 113                      @ ../../../../Library/StdDriver/src/pwm.c:1031:113
	orrs	r1, r5
	.loc	5 1032 32                       @ ../../../../Library/StdDriver/src/pwm.c:1032:32
	orrs	r1, r4
	.loc	5 1032 59 is_stmt 0             @ ../../../../Library/StdDriver/src/pwm.c:1032:59
	lsls	r1, r3
	.loc	5 1030 162 is_stmt 1            @ ../../../../Library/StdDriver/src/pwm.c:1030:162
	orrs	r0, r1
	.loc	5 1030 6 is_stmt 0              @ ../../../../Library/StdDriver/src/pwm.c:1030:6
	ldr	r1, [sp, #16]
	.loc	5 1030 20                       @ ../../../../Library/StdDriver/src/pwm.c:1030:20
	str	r0, [r1, r2]
	.loc	5 1033 1 is_stmt 1              @ ../../../../Library/StdDriver/src/pwm.c:1033:1
	add	sp, #20
	pop	{r4, r5, r7, pc}
.Ltmp230:
.Lfunc_end46:
	.size	PWM_EnablePDMA, .Lfunc_end46-PWM_EnablePDMA
	.cfi_endproc
	.cantunwind
	.fnend
                                        @ -- End function
	.section	.text.PWM_DisablePDMA,"ax",%progbits
	.hidden	PWM_DisablePDMA                 @ -- Begin function PWM_DisablePDMA
	.globl	PWM_DisablePDMA
	.p2align	1
	.type	PWM_DisablePDMA,%function
	.code	16                              @ @PWM_DisablePDMA
	.thumb_func
PWM_DisablePDMA:
.Lfunc_begin47:
	.loc	5 1044 0                        @ ../../../../Library/StdDriver/src/pwm.c:1044:0
	.fnstart
	.cfi_startproc
@ %bb.0:
	.pad	#8
	sub	sp, #8
	.cfi_def_cfa_offset 8
	str	r0, [sp, #4]
	str	r1, [sp]
.Ltmp231:
	.loc	5 1045 54 prologue_end          @ ../../../../Library/StdDriver/src/pwm.c:1045:54
	ldr	r0, [sp]
	.loc	5 1045 76 is_stmt 0             @ ../../../../Library/StdDriver/src/pwm.c:1045:76
	lsrs	r0, r0, #1
	lsls	r0, r0, #3
	movs	r3, #1
	.loc	5 1045 49                       @ ../../../../Library/StdDriver/src/pwm.c:1045:49
	lsls	r3, r0
	.loc	5 1045 6                        @ ../../../../Library/StdDriver/src/pwm.c:1045:6
	ldr	r1, [sp, #4]
	movw	r2, #572
	.loc	5 1045 20                       @ ../../../../Library/StdDriver/src/pwm.c:1045:20
	ldr	r0, [r1, r2]
	bics	r0, r3
	str	r0, [r1, r2]
	.loc	5 1046 1 is_stmt 1              @ ../../../../Library/StdDriver/src/pwm.c:1046:1
	add	sp, #8
	bx	lr
.Ltmp232:
.Lfunc_end47:
	.size	PWM_DisablePDMA, .Lfunc_end47-PWM_DisablePDMA
	.cfi_endproc
	.cantunwind
	.fnend
                                        @ -- End function
	.section	".note.GNU-stack","",%progbits
	.eabi_attribute	30, 6	@ Tag_ABI_optimization_goals
	.ARM_attribute	16, 1	@ Tag_AV_eba