	.text
	.syntax unified
	.eabi_attribute	67, "2.09"	@ Tag_conformance
	.cpu	cortex-m23
	.eabi_attribute	6, 16	@ Tag_CPU_arch
	.eabi_attribute	7, 77	@ Tag_CPU_arch_profile
	.eabi_attribute	8, 0	@ Tag_ARM_ISA_use
	.eabi_attribute	9, 3	@ Tag_THUMB_ISA_use
	.eabi_attribute	34, 0	@ Tag_CPU_unaligned_access
	.eabi_attribute	17, 1	@ Tag_ABI_PCS_GOT_use
	.eabi_attribute	20, 2	@ Tag_ABI_FP_denormal
	.eabi_attribute	21, 0	@ Tag_ABI_FP_exceptions
	.eabi_attribute	23, 1	@ Tag_ABI_FP_number_model
	.eabi_attribute	24, 1	@ Tag_ABI_align_needed
	.eabi_attribute	25, 1	@ Tag_ABI_align_preserved
	.eabi_attribute	38, 1	@ Tag_ABI_FP_16bit_format
	.eabi_attribute	18, 2	@ Tag_ABI_PCS_wchar_t
	.eabi_attribute	26, 1	@ Tag_ABI_enum_size
	.eabi_attribute	14, 0	@ Tag_ABI_PCS_R9_use
	.file	"qspi.c"
	.file	1 "C:\\Keil_v5\\ARM\\ARMCLANG\\Bin\\..\\include" "stdint.h"
	.file	2 "E:\\ROBOCON2024\\01. Coding\\Nuvoton\\demo_robot_3wheel\\SampleCode\\NuCodeGen\\DemoCodeGen\\KEIL" "../../../../Library/Device/Nuvoton/M251/Include/clk_reg.h"
	.file	3 "E:\\ROBOCON2024\\01. Coding\\Nuvoton\\demo_robot_3wheel\\SampleCode\\NuCodeGen\\DemoCodeGen\\KEIL" "../../../../Library/Device/Nuvoton/M251/Include/sys_reg.h"
	.section	.text.QSPI_Open,"ax",%progbits
	.hidden	QSPI_Open                       @ -- Begin function QSPI_Open
	.globl	QSPI_Open
	.p2align	2
	.type	QSPI_Open,%function
	.code	16                              @ @QSPI_Open
	.thumb_func
QSPI_Open:
.Lfunc_begin0:
	.file	4 "E:\\ROBOCON2024\\01. Coding\\Nuvoton\\demo_robot_3wheel\\SampleCode\\NuCodeGen\\DemoCodeGen\\KEIL" "../../../../Library/StdDriver/src/qspi.c"
	.loc	4 48 0                          @ ../../../../Library/StdDriver/src/qspi.c:48:0
	.fnstart
	.cfi_sections .debug_frame
	.cfi_startproc
@ %bb.0:
	.save	{r4, lr}
	push	{r4, lr}
	.cfi_def_cfa_offset 8
	.cfi_offset lr, -4
	.cfi_offset r4, -8
	.pad	#32
	sub	sp, #32
	.cfi_def_cfa_offset 40
	ldr	r4, [sp, #40]
	str	r0, [sp, #28]
	str	r1, [sp, #24]
	str	r2, [sp, #20]
	str	r3, [sp, #16]
	movs	r0, #0
.Ltmp0:
	.loc	4 49 14 prologue_end            @ ../../../../Library/StdDriver/src/qspi.c:49:14
	str	r0, [sp, #12]
	.loc	4 49 52 is_stmt 0               @ ../../../../Library/StdDriver/src/qspi.c:49:52
	str	r0, [sp]
.Ltmp1:
	.loc	4 51 9 is_stmt 1                @ ../../../../Library/StdDriver/src/qspi.c:51:9
	ldr	r0, [sp, #16]
.Ltmp2:
	.loc	4 51 9 is_stmt 0                @ ../../../../Library/StdDriver/src/qspi.c:51:9
	cmp	r0, #32
	bne	.LBB0_2
	b	.LBB0_1
.LBB0_1:
	.loc	4 0 9                           @ ../../../../Library/StdDriver/src/qspi.c:0:9
	movs	r0, #0
.Ltmp3:
	.loc	4 53 22 is_stmt 1               @ ../../../../Library/StdDriver/src/qspi.c:53:22
	str	r0, [sp, #16]
	.loc	4 54 5                          @ ../../../../Library/StdDriver/src/qspi.c:54:5
	b	.LBB0_2
.Ltmp4:
.LBB0_2:
	.loc	4 57 19                         @ ../../../../Library/StdDriver/src/qspi.c:57:19
	bl	CLK_GetHCLKFreq
	.loc	4 57 17 is_stmt 0               @ ../../../../Library/StdDriver/src/qspi.c:57:17
	str	r0, [sp, #4]
.Ltmp5:
	.loc	4 59 9 is_stmt 1                @ ../../../../Library/StdDriver/src/qspi.c:59:9
	ldr	r0, [sp, #24]
.Ltmp6:
	.loc	4 59 9 is_stmt 0                @ ../../../../Library/StdDriver/src/qspi.c:59:9
	cbz	r0, .LBB0_3
	b	.LBB0_27
.LBB0_3:
.Ltmp7:
	.loc	4 62 9 is_stmt 1                @ ../../../../Library/StdDriver/src/qspi.c:62:9
	ldr	r1, [sp, #28]
	movs	r0, #0
	.loc	4 62 21 is_stmt 0               @ ../../../../Library/StdDriver/src/qspi.c:62:21
	str	r0, [r1, #8]
	.loc	4 65 21 is_stmt 1               @ ../../../../Library/StdDriver/src/qspi.c:65:21
	ldr	r0, [sp, #24]
	.loc	4 65 39 is_stmt 0               @ ../../../../Library/StdDriver/src/qspi.c:65:39
	ldr	r1, [sp, #16]
	.loc	4 65 52                         @ ../../../../Library/StdDriver/src/qspi.c:65:52
	lsls	r1, r1, #8
	.loc	4 65 36                         @ ../../../../Library/StdDriver/src/qspi.c:65:36
	orrs	r0, r1
	.loc	4 65 79                         @ ../../../../Library/StdDriver/src/qspi.c:65:79
	ldr	r1, [sp, #20]
	.loc	4 65 76                         @ ../../../../Library/StdDriver/src/qspi.c:65:76
	orrs	r0, r1
	movs	r1, #1
	.loc	4 65 92                         @ ../../../../Library/StdDriver/src/qspi.c:65:92
	orrs	r0, r1
	.loc	4 65 9                          @ ../../../../Library/StdDriver/src/qspi.c:65:9
	ldr	r1, [sp, #28]
	.loc	4 65 19                         @ ../../../../Library/StdDriver/src/qspi.c:65:19
	str	r0, [r1]
.Ltmp8:
	.loc	4 67 13 is_stmt 1               @ ../../../../Library/StdDriver/src/qspi.c:67:13
	ldr	r0, [sp, #40]
	.loc	4 67 28 is_stmt 0               @ ../../../../Library/StdDriver/src/qspi.c:67:28
	ldr	r1, [sp, #4]
.Ltmp9:
	.loc	4 67 13                         @ ../../../../Library/StdDriver/src/qspi.c:67:13
	cmp	r0, r1
	blo	.LBB0_5
	b	.LBB0_4
.LBB0_4:
	.loc	4 0 13                          @ ../../../../Library/StdDriver/src/qspi.c:0:13
	ldr	r1, __arm_cp.0_0
.Ltmp10:
	.loc	4 70 34 is_stmt 1               @ ../../../../Library/StdDriver/src/qspi.c:70:34
	ldr	r0, [r1]
	movs	r2, #8
	.loc	4 70 42 is_stmt 0               @ ../../../../Library/StdDriver/src/qspi.c:70:42
	orrs	r0, r2
	movs	r2, #4
	.loc	4 70 73                         @ ../../../../Library/StdDriver/src/qspi.c:70:73
	bics	r0, r2
	.loc	4 70 26                         @ ../../../../Library/StdDriver/src/qspi.c:70:26
	str	r0, [r1]
	.loc	4 71 9 is_stmt 1                @ ../../../../Library/StdDriver/src/qspi.c:71:9
	b	.LBB0_5
.Ltmp11:
.LBB0_5:
	.loc	4 0 9 is_stmt 0                 @ ../../../../Library/StdDriver/src/qspi.c:0:9
	ldr	r0, __arm_cp.0_0
.Ltmp12:
	.loc	4 74 19 is_stmt 1               @ ../../../../Library/StdDriver/src/qspi.c:74:19
	ldr	r0, [r0]
.Ltmp13:
	.loc	4 74 13 is_stmt 0               @ ../../../../Library/StdDriver/src/qspi.c:74:13
	lsls	r0, r0, #28
	lsrs	r0, r0, #30
	cbnz	r0, .LBB0_7
	b	.LBB0_6
.LBB0_6:
	.loc	4 0 13                          @ ../../../../Library/StdDriver/src/qspi.c:0:13
	ldr	r0, __arm_cp.0_2
.Ltmp14:
	.loc	4 76 23 is_stmt 1               @ ../../../../Library/StdDriver/src/qspi.c:76:23
	str	r0, [sp, #12]
	.loc	4 77 9                          @ ../../../../Library/StdDriver/src/qspi.c:77:9
	b	.LBB0_14
.Ltmp15:
.LBB0_7:
	.loc	4 0 9 is_stmt 0                 @ ../../../../Library/StdDriver/src/qspi.c:0:9
	ldr	r0, __arm_cp.0_0
.Ltmp16:
	.loc	4 78 24 is_stmt 1               @ ../../../../Library/StdDriver/src/qspi.c:78:24
	ldr	r0, [r0]
	movs	r1, #12
	.loc	4 78 32 is_stmt 0               @ ../../../../Library/StdDriver/src/qspi.c:78:32
	ands	r0, r1
.Ltmp17:
	.loc	4 78 18                         @ ../../../../Library/StdDriver/src/qspi.c:78:18
	cmp	r0, #4
	bne	.LBB0_9
	b	.LBB0_8
.LBB0_8:
.Ltmp18:
	.loc	4 80 25 is_stmt 1               @ ../../../../Library/StdDriver/src/qspi.c:80:25
	bl	CLK_GetPLLClockFreq
	.loc	4 80 23 is_stmt 0               @ ../../../../Library/StdDriver/src/qspi.c:80:23
	str	r0, [sp, #12]
	.loc	4 81 9 is_stmt 1                @ ../../../../Library/StdDriver/src/qspi.c:81:9
	b	.LBB0_13
.Ltmp19:
.LBB0_9:
	.loc	4 0 9 is_stmt 0                 @ ../../../../Library/StdDriver/src/qspi.c:0:9
	ldr	r0, __arm_cp.0_0
.Ltmp20:
	.loc	4 82 24 is_stmt 1               @ ../../../../Library/StdDriver/src/qspi.c:82:24
	ldr	r0, [r0]
	movs	r1, #12
	.loc	4 82 32 is_stmt 0               @ ../../../../Library/StdDriver/src/qspi.c:82:32
	ands	r0, r1
.Ltmp21:
	.loc	4 82 18                         @ ../../../../Library/StdDriver/src/qspi.c:82:18
	cmp	r0, #8
	bne	.LBB0_11
	b	.LBB0_10
.LBB0_10:
.Ltmp22:
	.loc	4 85 25 is_stmt 1               @ ../../../../Library/StdDriver/src/qspi.c:85:25
	bl	CLK_GetPCLK0Freq
	.loc	4 85 23 is_stmt 0               @ ../../../../Library/StdDriver/src/qspi.c:85:23
	str	r0, [sp, #12]
	.loc	4 86 9 is_stmt 1                @ ../../../../Library/StdDriver/src/qspi.c:86:9
	b	.LBB0_12
.Ltmp23:
.LBB0_11:
	.loc	4 0 9 is_stmt 0                 @ ../../../../Library/StdDriver/src/qspi.c:0:9
	ldr	r0, __arm_cp.0_1
.Ltmp24:
	.loc	4 89 23 is_stmt 1               @ ../../../../Library/StdDriver/src/qspi.c:89:23
	str	r0, [sp, #12]
	b	.LBB0_12
.Ltmp25:
.LBB0_12:
	.loc	4 0 23 is_stmt 0                @ ../../../../Library/StdDriver/src/qspi.c:0:23
	b	.LBB0_13
.LBB0_13:
	b	.LBB0_14
.LBB0_14:
.Ltmp26:
	.loc	4 92 13 is_stmt 1               @ ../../../../Library/StdDriver/src/qspi.c:92:13
	ldr	r0, [sp, #40]
	.loc	4 92 28 is_stmt 0               @ ../../../../Library/StdDriver/src/qspi.c:92:28
	ldr	r1, [sp, #4]
.Ltmp27:
	.loc	4 92 13                         @ ../../../../Library/StdDriver/src/qspi.c:92:13
	cmp	r0, r1
	blo	.LBB0_16
	b	.LBB0_15
.LBB0_15:
.Ltmp28:
	.loc	4 95 13 is_stmt 1               @ ../../../../Library/StdDriver/src/qspi.c:95:13
	ldr	r1, [sp, #28]
	movs	r0, #0
	.loc	4 95 26 is_stmt 0               @ ../../../../Library/StdDriver/src/qspi.c:95:26
	str	r0, [r1, #4]
	.loc	4 97 27 is_stmt 1               @ ../../../../Library/StdDriver/src/qspi.c:97:27
	ldr	r0, [sp, #12]
	.loc	4 97 25 is_stmt 0               @ ../../../../Library/StdDriver/src/qspi.c:97:25
	str	r0, [sp]
	.loc	4 98 9 is_stmt 1                @ ../../../../Library/StdDriver/src/qspi.c:98:9
	b	.LBB0_26
.Ltmp29:
.LBB0_16:
	.loc	4 99 18                         @ ../../../../Library/StdDriver/src/qspi.c:99:18
	ldr	r0, [sp, #40]
	.loc	4 99 33 is_stmt 0               @ ../../../../Library/StdDriver/src/qspi.c:99:33
	ldr	r1, [sp, #12]
.Ltmp30:
	.loc	4 99 18                         @ ../../../../Library/StdDriver/src/qspi.c:99:18
	cmp	r0, r1
	blo	.LBB0_18
	b	.LBB0_17
.LBB0_17:
.Ltmp31:
	.loc	4 102 13 is_stmt 1              @ ../../../../Library/StdDriver/src/qspi.c:102:13
	ldr	r1, [sp, #28]
	movs	r0, #0
	.loc	4 102 26 is_stmt 0              @ ../../../../Library/StdDriver/src/qspi.c:102:26
	str	r0, [r1, #4]
	.loc	4 104 27 is_stmt 1              @ ../../../../Library/StdDriver/src/qspi.c:104:27
	ldr	r0, [sp, #12]
	.loc	4 104 25 is_stmt 0              @ ../../../../Library/StdDriver/src/qspi.c:104:25
	str	r0, [sp]
	.loc	4 105 9 is_stmt 1               @ ../../../../Library/StdDriver/src/qspi.c:105:9
	b	.LBB0_25
.Ltmp32:
.LBB0_18:
	.loc	4 106 18                        @ ../../../../Library/StdDriver/src/qspi.c:106:18
	ldr	r0, [sp, #40]
.Ltmp33:
	.loc	4 106 18 is_stmt 0              @ ../../../../Library/StdDriver/src/qspi.c:106:18
	cbnz	r0, .LBB0_20
	b	.LBB0_19
.LBB0_19:
.Ltmp34:
	.loc	4 109 13 is_stmt 1              @ ../../../../Library/StdDriver/src/qspi.c:109:13
	ldr	r1, [sp, #28]
	.loc	4 109 26 is_stmt 0              @ ../../../../Library/StdDriver/src/qspi.c:109:26
	ldr	r0, [r1, #4]
	ldr	r2, __arm_cp.0_4
	orrs	r0, r2
	str	r0, [r1, #4]
	.loc	4 111 28 is_stmt 1              @ ../../../../Library/StdDriver/src/qspi.c:111:28
	ldr	r0, [sp, #12]
	.loc	4 111 38 is_stmt 0              @ ../../../../Library/StdDriver/src/qspi.c:111:38
	lsrs	r0, r0, #9
	.loc	4 111 25                        @ ../../../../Library/StdDriver/src/qspi.c:111:25
	str	r0, [sp]
	.loc	4 112 9 is_stmt 1               @ ../../../../Library/StdDriver/src/qspi.c:112:9
	b	.LBB0_24
.Ltmp35:
.LBB0_20:
	.loc	4 115 25                        @ ../../../../Library/StdDriver/src/qspi.c:115:25
	ldr	r2, [sp, #12]
	movs	r1, #10
	.loc	4 115 35 is_stmt 0              @ ../../../../Library/StdDriver/src/qspi.c:115:35
	mov	r0, r1
	muls	r0, r2, r0
	.loc	4 115 45                        @ ../../../../Library/StdDriver/src/qspi.c:115:45
	ldr	r2, [sp, #40]
	.loc	4 115 43                        @ ../../../../Library/StdDriver/src/qspi.c:115:43
	udiv	r0, r0, r2
	.loc	4 115 57                        @ ../../../../Library/StdDriver/src/qspi.c:115:57
	adds	r0, r0, #5
	.loc	4 115 64                        @ ../../../../Library/StdDriver/src/qspi.c:115:64
	udiv	r0, r0, r1
	.loc	4 115 72                        @ ../../../../Library/StdDriver/src/qspi.c:115:72
	subs	r0, r0, #1
	.loc	4 115 20                        @ ../../../../Library/StdDriver/src/qspi.c:115:20
	str	r0, [sp, #8]
.Ltmp36:
	.loc	4 117 17 is_stmt 1              @ ../../../../Library/StdDriver/src/qspi.c:117:17
	ldr	r0, [sp, #8]
.Ltmp37:
	.loc	4 117 17 is_stmt 0              @ ../../../../Library/StdDriver/src/qspi.c:117:17
	lsrs	r0, r0, #9
	cbz	r0, .LBB0_22
	b	.LBB0_21
.LBB0_21:
	.loc	4 0 17                          @ ../../../../Library/StdDriver/src/qspi.c:0:17
	ldr	r2, __arm_cp.0_4
.Ltmp38:
	.loc	4 119 24 is_stmt 1              @ ../../../../Library/StdDriver/src/qspi.c:119:24
	str	r2, [sp, #8]
	.loc	4 120 17                        @ ../../../../Library/StdDriver/src/qspi.c:120:17
	ldr	r1, [sp, #28]
	.loc	4 120 30 is_stmt 0              @ ../../../../Library/StdDriver/src/qspi.c:120:30
	ldr	r0, [r1, #4]
	orrs	r0, r2
	str	r0, [r1, #4]
	.loc	4 122 32 is_stmt 1              @ ../../../../Library/StdDriver/src/qspi.c:122:32
	ldr	r0, [sp, #12]
	.loc	4 122 42 is_stmt 0              @ ../../../../Library/StdDriver/src/qspi.c:122:42
	lsrs	r0, r0, #9
	.loc	4 122 29                        @ ../../../../Library/StdDriver/src/qspi.c:122:29
	str	r0, [sp]
	.loc	4 123 13 is_stmt 1              @ ../../../../Library/StdDriver/src/qspi.c:123:13
	b	.LBB0_23
.Ltmp39:
.LBB0_22:
	.loc	4 126 33                        @ ../../../../Library/StdDriver/src/qspi.c:126:33
	ldr	r0, [sp, #28]
	.loc	4 126 39 is_stmt 0              @ ../../../../Library/StdDriver/src/qspi.c:126:39
	ldr	r0, [r0, #4]
	ldr	r1, __arm_cp.0_3
	.loc	4 126 46                        @ ../../../../Library/StdDriver/src/qspi.c:126:46
	ands	r0, r1
	.loc	4 126 79                        @ ../../../../Library/StdDriver/src/qspi.c:126:79
	ldr	r1, [sp, #8]
	.loc	4 126 76                        @ ../../../../Library/StdDriver/src/qspi.c:126:76
	orrs	r0, r1
	.loc	4 126 17                        @ ../../../../Library/StdDriver/src/qspi.c:126:17
	ldr	r1, [sp, #28]
	.loc	4 126 30                        @ ../../../../Library/StdDriver/src/qspi.c:126:30
	str	r0, [r1, #4]
	.loc	4 128 32 is_stmt 1              @ ../../../../Library/StdDriver/src/qspi.c:128:32
	ldr	r0, [sp, #12]
	.loc	4 128 45 is_stmt 0              @ ../../../../Library/StdDriver/src/qspi.c:128:45
	ldr	r1, [sp, #8]
	.loc	4 128 52                        @ ../../../../Library/StdDriver/src/qspi.c:128:52
	adds	r1, r1, #1
	.loc	4 128 42                        @ ../../../../Library/StdDriver/src/qspi.c:128:42
	udiv	r0, r0, r1
	.loc	4 128 29                        @ ../../../../Library/StdDriver/src/qspi.c:128:29
	str	r0, [sp]
	b	.LBB0_23
.Ltmp40:
.LBB0_23:
	.loc	4 0 29                          @ ../../../../Library/StdDriver/src/qspi.c:0:29
	b	.LBB0_24
.LBB0_24:
	b	.LBB0_25
.LBB0_25:
	b	.LBB0_26
.LBB0_26:
	.loc	4 131 5 is_stmt 1               @ ../../../../Library/StdDriver/src/qspi.c:131:5
	b	.LBB0_28
.Ltmp41:
.LBB0_27:
	.loc	4 135 9                         @ ../../../../Library/StdDriver/src/qspi.c:135:9
	ldr	r1, [sp, #28]
	movs	r0, #0
	.loc	4 135 21 is_stmt 0              @ ../../../../Library/StdDriver/src/qspi.c:135:21
	str	r0, [r1, #8]
	.loc	4 138 21 is_stmt 1              @ ../../../../Library/StdDriver/src/qspi.c:138:21
	ldr	r1, [sp, #24]
	.loc	4 138 39 is_stmt 0              @ ../../../../Library/StdDriver/src/qspi.c:138:39
	ldr	r2, [sp, #16]
	.loc	4 138 52                        @ ../../../../Library/StdDriver/src/qspi.c:138:52
	lsls	r2, r2, #8
	.loc	4 138 36                        @ ../../../../Library/StdDriver/src/qspi.c:138:36
	orrs	r1, r2
	.loc	4 138 79                        @ ../../../../Library/StdDriver/src/qspi.c:138:79
	ldr	r2, [sp, #20]
	.loc	4 138 76                        @ ../../../../Library/StdDriver/src/qspi.c:138:76
	orrs	r1, r2
	movs	r2, #1
	.loc	4 138 92                        @ ../../../../Library/StdDriver/src/qspi.c:138:92
	orrs	r1, r2
	.loc	4 138 9                         @ ../../../../Library/StdDriver/src/qspi.c:138:9
	ldr	r2, [sp, #28]
	.loc	4 138 19                        @ ../../../../Library/StdDriver/src/qspi.c:138:19
	str	r1, [r2]
	.loc	4 141 9 is_stmt 1               @ ../../../../Library/StdDriver/src/qspi.c:141:9
	ldr	r1, [sp, #28]
	.loc	4 141 22 is_stmt 0              @ ../../../../Library/StdDriver/src/qspi.c:141:22
	str	r0, [r1, #4]
	ldr	r1, __arm_cp.0_0
	.loc	4 144 30 is_stmt 1              @ ../../../../Library/StdDriver/src/qspi.c:144:30
	ldr	r0, [r1]
	movs	r2, #8
	.loc	4 144 38 is_stmt 0              @ ../../../../Library/StdDriver/src/qspi.c:144:38
	orrs	r0, r2
	movs	r2, #4
	.loc	4 144 69                        @ ../../../../Library/StdDriver/src/qspi.c:144:69
	bics	r0, r2
	.loc	4 144 22                        @ ../../../../Library/StdDriver/src/qspi.c:144:22
	str	r0, [r1]
	.loc	4 146 23 is_stmt 1              @ ../../../../Library/StdDriver/src/qspi.c:146:23
	bl	CLK_GetPCLK0Freq
	.loc	4 146 21 is_stmt 0              @ ../../../../Library/StdDriver/src/qspi.c:146:21
	str	r0, [sp]
	b	.LBB0_28
.Ltmp42:
.LBB0_28:
	.loc	4 149 12 is_stmt 1              @ ../../../../Library/StdDriver/src/qspi.c:149:12
	ldr	r0, [sp]
	.loc	4 149 5 is_stmt 0               @ ../../../../Library/StdDriver/src/qspi.c:149:5
	add	sp, #32
	pop	{r4, pc}
.Ltmp43:
	.p2align	2
@ %bb.29:
	.loc	4 0 5                           @ ../../../../Library/StdDriver/src/qspi.c:0:5
__arm_cp.0_0:
	.long	1073742360                      @ 0x40000218
.Lcpi_end0:
	.size	__arm_cp.0_0, .Lcpi_end0-__arm_cp.0_0
__arm_cp.0_1:
	.long	48000000                        @ 0x2dc6c00
.Lcpi_end1:
	.size	__arm_cp.0_1, .Lcpi_end1-__arm_cp.0_1
__arm_cp.0_2:
	.long	12000000                        @ 0xb71b00
.Lcpi_end2:
	.size	__arm_cp.0_2, .Lcpi_end2-__arm_cp.0_2
__arm_cp.0_3:
	.long	4294966784                      @ 0xfffffe00
.Lcpi_end3:
	.size	__arm_cp.0_3, .Lcpi_end3-__arm_cp.0_3
__arm_cp.0_4:
	.long	511                             @ 0x1ff
.Lcpi_end4:
	.size	__arm_cp.0_4, .Lcpi_end4-__arm_cp.0_4
.Lfunc_end0:
	.size	QSPI_Open, .Lfunc_end0-QSPI_Open
	.cfi_endproc
	.cantunwind
	.fnend
                                        @ -- End function
	.section	.text.QSPI_Close,"ax",%progbits
	.hidden	QSPI_Close                      @ -- Begin function QSPI_Close
	.globl	QSPI_Close
	.p2align	2
	.type	QSPI_Close,%function
	.code	16                              @ @QSPI_Close
	.thumb_func
QSPI_Close:
.Lfunc_begin1:
	.loc	4 158 0 is_stmt 1               @ ../../../../Library/StdDriver/src/qspi.c:158:0
	.fnstart
	.cfi_startproc
@ %bb.0:
	.pad	#4
	sub	sp, #4
	.cfi_def_cfa_offset 4
	str	r0, [sp]
	ldr	r1, __arm_cp.1_0
.Ltmp44:
	.loc	4 160 17 prologue_end           @ ../../../../Library/StdDriver/src/qspi.c:160:17
	ldr	r0, [r1]
	movw	r2, #4096
	orrs	r0, r2
	str	r0, [r1]
	.loc	4 161 17                        @ ../../../../Library/StdDriver/src/qspi.c:161:17
	ldr	r0, [r1]
	bics	r0, r2
	str	r0, [r1]
	.loc	4 162 1                         @ ../../../../Library/StdDriver/src/qspi.c:162:1
	add	sp, #4
	bx	lr
.Ltmp45:
	.p2align	2
@ %bb.1:
	.loc	4 0 1 is_stmt 0                 @ ../../../../Library/StdDriver/src/qspi.c:0:1
__arm_cp.1_0:
	.long	1073741836                      @ 0x4000000c
.Lcpi_end5:
	.size	__arm_cp.1_0, .Lcpi_end5-__arm_cp.1_0
.Lfunc_end1:
	.size	QSPI_Close, .Lfunc_end1-QSPI_Close
	.cfi_endproc
	.cantunwind
	.fnend
                                        @ -- End function
	.section	.text.QSPI_ClearRxFIFO,"ax",%progbits
	.hidden	QSPI_ClearRxFIFO                @ -- Begin function QSPI_ClearRxFIFO
	.globl	QSPI_ClearRxFIFO
	.p2align	1
	.type	QSPI_ClearRxFIFO,%function
	.code	16                              @ @QSPI_ClearRxFIFO
	.thumb_func
QSPI_ClearRxFIFO:
.Lfunc_begin2:
	.loc	4 170 0 is_stmt 1               @ ../../../../Library/StdDriver/src/qspi.c:170:0
	.fnstart
	.cfi_startproc
@ %bb.0:
	.pad	#4
	sub	sp, #4
	.cfi_def_cfa_offset 4
	str	r0, [sp]
.Ltmp46:
	.loc	4 171 5 prologue_end            @ ../../../../Library/StdDriver/src/qspi.c:171:5
	ldr	r1, [sp]
	.loc	4 171 19 is_stmt 0              @ ../../../../Library/StdDriver/src/qspi.c:171:19
	ldr	r0, [r1, #16]
	movw	r2, #256
	orrs	r0, r2
	str	r0, [r1, #16]
	.loc	4 172 1 is_stmt 1               @ ../../../../Library/StdDriver/src/qspi.c:172:1
	add	sp, #4
	bx	lr
.Ltmp47:
.Lfunc_end2:
	.size	QSPI_ClearRxFIFO, .Lfunc_end2-QSPI_ClearRxFIFO
	.cfi_endproc
	.cantunwind
	.fnend
                                        @ -- End function
	.section	.text.QSPI_ClearTxFIFO,"ax",%progbits
	.hidden	QSPI_ClearTxFIFO                @ -- Begin function QSPI_ClearTxFIFO
	.globl	QSPI_ClearTxFIFO
	.p2align	1
	.type	QSPI_ClearTxFIFO,%function
	.code	16                              @ @QSPI_ClearTxFIFO
	.thumb_func
QSPI_ClearTxFIFO:
.Lfunc_begin3:
	.loc	4 181 0                         @ ../../../../Library/StdDriver/src/qspi.c:181:0
	.fnstart
	.cfi_startproc
@ %bb.0:
	.pad	#4
	sub	sp, #4
	.cfi_def_cfa_offset 4
	str	r0, [sp]
.Ltmp48:
	.loc	4 182 5 prologue_end            @ ../../../../Library/StdDriver/src/qspi.c:182:5
	ldr	r1, [sp]
	.loc	4 182 19 is_stmt 0              @ ../../../../Library/StdDriver/src/qspi.c:182:19
	ldr	r0, [r1, #16]
	movw	r2, #512
	orrs	r0, r2
	str	r0, [r1, #16]
	.loc	4 183 1 is_stmt 1               @ ../../../../Library/StdDriver/src/qspi.c:183:1
	add	sp, #4
	bx	lr
.Ltmp49:
.Lfunc_end3:
	.size	QSPI_ClearTxFIFO, .Lfunc_end3-QSPI_ClearTxFIFO
	.cfi_endproc
	.cantunwind
	.fnend
                                        @ -- End function
	.section	.text.QSPI_DisableAutoSS,"ax",%progbits
	.hidden	QSPI_DisableAutoSS              @ -- Begin function QSPI_DisableAutoSS
	.globl	QSPI_DisableAutoSS
	.p2align	1
	.type	QSPI_DisableAutoSS,%function
	.code	16                              @ @QSPI_DisableAutoSS
	.thumb_func
QSPI_DisableAutoSS:
.Lfunc_begin4:
	.loc	4 191 0                         @ ../../../../Library/StdDriver/src/qspi.c:191:0
	.fnstart
	.cfi_startproc
@ %bb.0:
	.pad	#4
	sub	sp, #4
	.cfi_def_cfa_offset 4
	str	r0, [sp]
.Ltmp50:
	.loc	4 192 5 prologue_end            @ ../../../../Library/StdDriver/src/qspi.c:192:5
	ldr	r1, [sp]
	.loc	4 192 17 is_stmt 0              @ ../../../../Library/StdDriver/src/qspi.c:192:17
	ldr	r0, [r1, #8]
	movs	r2, #9
	bics	r0, r2
	str	r0, [r1, #8]
	.loc	4 193 1 is_stmt 1               @ ../../../../Library/StdDriver/src/qspi.c:193:1
	add	sp, #4
	bx	lr
.Ltmp51:
.Lfunc_end4:
	.size	QSPI_DisableAutoSS, .Lfunc_end4-QSPI_DisableAutoSS
	.cfi_endproc
	.cantunwind
	.fnend
                                        @ -- End function
	.section	.text.QSPI_EnableAutoSS,"ax",%progbits
	.hidden	QSPI_EnableAutoSS               @ -- Begin function QSPI_EnableAutoSS
	.globl	QSPI_EnableAutoSS
	.p2align	1
	.type	QSPI_EnableAutoSS,%function
	.code	16                              @ @QSPI_EnableAutoSS
	.thumb_func
QSPI_EnableAutoSS:
.Lfunc_begin5:
	.loc	4 204 0                         @ ../../../../Library/StdDriver/src/qspi.c:204:0
	.fnstart
	.cfi_startproc
@ %bb.0:
	.pad	#12
	sub	sp, #12
	.cfi_def_cfa_offset 12
	str	r0, [sp, #8]
	str	r1, [sp, #4]
	str	r2, [sp]
.Ltmp52:
	.loc	4 205 20 prologue_end           @ ../../../../Library/StdDriver/src/qspi.c:205:20
	ldr	r0, [sp, #8]
	.loc	4 205 26 is_stmt 0              @ ../../../../Library/StdDriver/src/qspi.c:205:26
	ldr	r1, [r0, #8]
	movs	r0, #5
	.loc	4 205 32                        @ ../../../../Library/StdDriver/src/qspi.c:205:32
	bics	r1, r0
	.loc	4 205 111                       @ ../../../../Library/StdDriver/src/qspi.c:205:111
	ldr	r0, [sp, #4]
	.loc	4 205 126                       @ ../../../../Library/StdDriver/src/qspi.c:205:126
	ldr	r2, [sp]
	.loc	4 205 124                       @ ../../../../Library/StdDriver/src/qspi.c:205:124
	orrs	r0, r2
	.loc	4 205 141                       @ ../../../../Library/StdDriver/src/qspi.c:205:141
	orrs	r0, r1
	movs	r1, #8
	.loc	4 205 108                       @ ../../../../Library/StdDriver/src/qspi.c:205:108
	orrs	r0, r1
	.loc	4 205 5                         @ ../../../../Library/StdDriver/src/qspi.c:205:5
	ldr	r1, [sp, #8]
	.loc	4 205 17                        @ ../../../../Library/StdDriver/src/qspi.c:205:17
	str	r0, [r1, #8]
	.loc	4 206 1 is_stmt 1               @ ../../../../Library/StdDriver/src/qspi.c:206:1
	add	sp, #12
	bx	lr
.Ltmp53:
.Lfunc_end5:
	.size	QSPI_EnableAutoSS, .Lfunc_end5-QSPI_EnableAutoSS
	.cfi_endproc
	.cantunwind
	.fnend
                                        @ -- End function
	.section	.text.QSPI_SetBusClock,"ax",%progbits
	.hidden	QSPI_SetBusClock                @ -- Begin function QSPI_SetBusClock
	.globl	QSPI_SetBusClock
	.p2align	2
	.type	QSPI_SetBusClock,%function
	.code	16                              @ @QSPI_SetBusClock
	.thumb_func
QSPI_SetBusClock:
.Lfunc_begin6:
	.loc	4 221 0                         @ ../../../../Library/StdDriver/src/qspi.c:221:0
	.fnstart
	.cfi_startproc
@ %bb.0:
	.save	{r7, lr}
	push	{r7, lr}
	.cfi_def_cfa_offset 8
	.cfi_offset lr, -4
	.cfi_offset r7, -8
	.pad	#24
	sub	sp, #24
	.cfi_def_cfa_offset 32
	str	r0, [sp, #20]
	str	r1, [sp, #16]
.Ltmp54:
	.loc	4 226 19 prologue_end           @ ../../../../Library/StdDriver/src/qspi.c:226:19
	bl	CLK_GetHCLKFreq
	.loc	4 226 17 is_stmt 0              @ ../../../../Library/StdDriver/src/qspi.c:226:17
	str	r0, [sp, #8]
.Ltmp55:
	.loc	4 228 9 is_stmt 1               @ ../../../../Library/StdDriver/src/qspi.c:228:9
	ldr	r0, [sp, #16]
	.loc	4 228 24 is_stmt 0              @ ../../../../Library/StdDriver/src/qspi.c:228:24
	ldr	r1, [sp, #8]
.Ltmp56:
	.loc	4 228 9                         @ ../../../../Library/StdDriver/src/qspi.c:228:9
	cmp	r0, r1
	blo	.LBB6_2
	b	.LBB6_1
.LBB6_1:
	.loc	4 0 9                           @ ../../../../Library/StdDriver/src/qspi.c:0:9
	ldr	r1, __arm_cp.6_0
.Ltmp57:
	.loc	4 231 30 is_stmt 1              @ ../../../../Library/StdDriver/src/qspi.c:231:30
	ldr	r0, [r1]
	movs	r2, #8
	.loc	4 231 38 is_stmt 0              @ ../../../../Library/StdDriver/src/qspi.c:231:38
	orrs	r0, r2
	movs	r2, #4
	.loc	4 231 69                        @ ../../../../Library/StdDriver/src/qspi.c:231:69
	bics	r0, r2
	.loc	4 231 22                        @ ../../../../Library/StdDriver/src/qspi.c:231:22
	str	r0, [r1]
	.loc	4 232 5 is_stmt 1               @ ../../../../Library/StdDriver/src/qspi.c:232:5
	b	.LBB6_2
.Ltmp58:
.LBB6_2:
	.loc	4 0 5 is_stmt 0                 @ ../../../../Library/StdDriver/src/qspi.c:0:5
	ldr	r0, __arm_cp.6_0
.Ltmp59:
	.loc	4 235 15 is_stmt 1              @ ../../../../Library/StdDriver/src/qspi.c:235:15
	ldr	r0, [r0]
.Ltmp60:
	.loc	4 235 9 is_stmt 0               @ ../../../../Library/StdDriver/src/qspi.c:235:9
	lsls	r0, r0, #28
	lsrs	r0, r0, #30
	cbnz	r0, .LBB6_4
	b	.LBB6_3
.LBB6_3:
	.loc	4 0 9                           @ ../../../../Library/StdDriver/src/qspi.c:0:9
	ldr	r0, __arm_cp.6_2
.Ltmp61:
	.loc	4 237 19 is_stmt 1              @ ../../../../Library/StdDriver/src/qspi.c:237:19
	str	r0, [sp, #12]
	.loc	4 238 5                         @ ../../../../Library/StdDriver/src/qspi.c:238:5
	b	.LBB6_11
.Ltmp62:
.LBB6_4:
	.loc	4 0 5 is_stmt 0                 @ ../../../../Library/StdDriver/src/qspi.c:0:5
	ldr	r0, __arm_cp.6_0
.Ltmp63:
	.loc	4 239 20 is_stmt 1              @ ../../../../Library/StdDriver/src/qspi.c:239:20
	ldr	r0, [r0]
	movs	r1, #12
	.loc	4 239 28 is_stmt 0              @ ../../../../Library/StdDriver/src/qspi.c:239:28
	ands	r0, r1
.Ltmp64:
	.loc	4 239 14                        @ ../../../../Library/StdDriver/src/qspi.c:239:14
	cmp	r0, #4
	bne	.LBB6_6
	b	.LBB6_5
.LBB6_5:
.Ltmp65:
	.loc	4 241 21 is_stmt 1              @ ../../../../Library/StdDriver/src/qspi.c:241:21
	bl	CLK_GetPLLClockFreq
	.loc	4 241 19 is_stmt 0              @ ../../../../Library/StdDriver/src/qspi.c:241:19
	str	r0, [sp, #12]
	.loc	4 242 5 is_stmt 1               @ ../../../../Library/StdDriver/src/qspi.c:242:5
	b	.LBB6_10
.Ltmp66:
.LBB6_6:
	.loc	4 0 5 is_stmt 0                 @ ../../../../Library/StdDriver/src/qspi.c:0:5
	ldr	r0, __arm_cp.6_0
.Ltmp67:
	.loc	4 243 20 is_stmt 1              @ ../../../../Library/StdDriver/src/qspi.c:243:20
	ldr	r0, [r0]
	movs	r1, #12
	.loc	4 243 28 is_stmt 0              @ ../../../../Library/StdDriver/src/qspi.c:243:28
	ands	r0, r1
.Ltmp68:
	.loc	4 243 14                        @ ../../../../Library/StdDriver/src/qspi.c:243:14
	cmp	r0, #8
	bne	.LBB6_8
	b	.LBB6_7
.LBB6_7:
.Ltmp69:
	.loc	4 246 21 is_stmt 1              @ ../../../../Library/StdDriver/src/qspi.c:246:21
	bl	CLK_GetPCLK0Freq
	.loc	4 246 19 is_stmt 0              @ ../../../../Library/StdDriver/src/qspi.c:246:19
	str	r0, [sp, #12]
	.loc	4 247 5 is_stmt 1               @ ../../../../Library/StdDriver/src/qspi.c:247:5
	b	.LBB6_9
.Ltmp70:
.LBB6_8:
	.loc	4 0 5 is_stmt 0                 @ ../../../../Library/StdDriver/src/qspi.c:0:5
	ldr	r0, __arm_cp.6_1
.Ltmp71:
	.loc	4 250 19 is_stmt 1              @ ../../../../Library/StdDriver/src/qspi.c:250:19
	str	r0, [sp, #12]
	b	.LBB6_9
.Ltmp72:
.LBB6_9:
	.loc	4 0 19 is_stmt 0                @ ../../../../Library/StdDriver/src/qspi.c:0:19
	b	.LBB6_10
.LBB6_10:
	b	.LBB6_11
.LBB6_11:
.Ltmp73:
	.loc	4 253 9 is_stmt 1               @ ../../../../Library/StdDriver/src/qspi.c:253:9
	ldr	r0, [sp, #16]
	.loc	4 253 24 is_stmt 0              @ ../../../../Library/StdDriver/src/qspi.c:253:24
	ldr	r1, [sp, #8]
.Ltmp74:
	.loc	4 253 9                         @ ../../../../Library/StdDriver/src/qspi.c:253:9
	cmp	r0, r1
	blo	.LBB6_13
	b	.LBB6_12
.LBB6_12:
.Ltmp75:
	.loc	4 256 9 is_stmt 1               @ ../../../../Library/StdDriver/src/qspi.c:256:9
	ldr	r1, [sp, #20]
	movs	r0, #0
	.loc	4 256 22 is_stmt 0              @ ../../../../Library/StdDriver/src/qspi.c:256:22
	str	r0, [r1, #4]
	.loc	4 258 23 is_stmt 1              @ ../../../../Library/StdDriver/src/qspi.c:258:23
	ldr	r0, [sp, #12]
	.loc	4 258 21 is_stmt 0              @ ../../../../Library/StdDriver/src/qspi.c:258:21
	str	r0, [sp]
	.loc	4 259 5 is_stmt 1               @ ../../../../Library/StdDriver/src/qspi.c:259:5
	b	.LBB6_23
.Ltmp76:
.LBB6_13:
	.loc	4 260 14                        @ ../../../../Library/StdDriver/src/qspi.c:260:14
	ldr	r0, [sp, #16]
	.loc	4 260 29 is_stmt 0              @ ../../../../Library/StdDriver/src/qspi.c:260:29
	ldr	r1, [sp, #12]
.Ltmp77:
	.loc	4 260 14                        @ ../../../../Library/StdDriver/src/qspi.c:260:14
	cmp	r0, r1
	blo	.LBB6_15
	b	.LBB6_14
.LBB6_14:
.Ltmp78:
	.loc	4 263 9 is_stmt 1               @ ../../../../Library/StdDriver/src/qspi.c:263:9
	ldr	r1, [sp, #20]
	movs	r0, #0
	.loc	4 263 22 is_stmt 0              @ ../../../../Library/StdDriver/src/qspi.c:263:22
	str	r0, [r1, #4]
	.loc	4 265 23 is_stmt 1              @ ../../../../Library/StdDriver/src/qspi.c:265:23
	ldr	r0, [sp, #12]
	.loc	4 265 21 is_stmt 0              @ ../../../../Library/StdDriver/src/qspi.c:265:21
	str	r0, [sp]
	.loc	4 266 5 is_stmt 1               @ ../../../../Library/StdDriver/src/qspi.c:266:5
	b	.LBB6_22
.Ltmp79:
.LBB6_15:
	.loc	4 267 14                        @ ../../../../Library/StdDriver/src/qspi.c:267:14
	ldr	r0, [sp, #16]
.Ltmp80:
	.loc	4 267 14 is_stmt 0              @ ../../../../Library/StdDriver/src/qspi.c:267:14
	cbnz	r0, .LBB6_17
	b	.LBB6_16
.LBB6_16:
.Ltmp81:
	.loc	4 270 9 is_stmt 1               @ ../../../../Library/StdDriver/src/qspi.c:270:9
	ldr	r1, [sp, #20]
	.loc	4 270 22 is_stmt 0              @ ../../../../Library/StdDriver/src/qspi.c:270:22
	ldr	r0, [r1, #4]
	ldr	r2, __arm_cp.6_4
	orrs	r0, r2
	str	r0, [r1, #4]
	.loc	4 272 24 is_stmt 1              @ ../../../../Library/StdDriver/src/qspi.c:272:24
	ldr	r0, [sp, #12]
	.loc	4 272 34 is_stmt 0              @ ../../../../Library/StdDriver/src/qspi.c:272:34
	lsrs	r0, r0, #9
	.loc	4 272 21                        @ ../../../../Library/StdDriver/src/qspi.c:272:21
	str	r0, [sp]
	.loc	4 273 5 is_stmt 1               @ ../../../../Library/StdDriver/src/qspi.c:273:5
	b	.LBB6_21
.Ltmp82:
.LBB6_17:
	.loc	4 276 21                        @ ../../../../Library/StdDriver/src/qspi.c:276:21
	ldr	r2, [sp, #12]
	movs	r1, #10
	.loc	4 276 31 is_stmt 0              @ ../../../../Library/StdDriver/src/qspi.c:276:31
	mov	r0, r1
	muls	r0, r2, r0
	.loc	4 276 41                        @ ../../../../Library/StdDriver/src/qspi.c:276:41
	ldr	r2, [sp, #16]
	.loc	4 276 39                        @ ../../../../Library/StdDriver/src/qspi.c:276:39
	udiv	r0, r0, r2
	.loc	4 276 53                        @ ../../../../Library/StdDriver/src/qspi.c:276:53
	adds	r0, r0, #5
	.loc	4 276 60                        @ ../../../../Library/StdDriver/src/qspi.c:276:60
	udiv	r0, r0, r1
	.loc	4 276 68                        @ ../../../../Library/StdDriver/src/qspi.c:276:68
	subs	r0, r0, #1
	.loc	4 276 16                        @ ../../../../Library/StdDriver/src/qspi.c:276:16
	str	r0, [sp, #4]
.Ltmp83:
	.loc	4 278 13 is_stmt 1              @ ../../../../Library/StdDriver/src/qspi.c:278:13
	ldr	r0, [sp, #4]
.Ltmp84:
	.loc	4 278 13 is_stmt 0              @ ../../../../Library/StdDriver/src/qspi.c:278:13
	lsrs	r0, r0, #9
	cbz	r0, .LBB6_19
	b	.LBB6_18
.LBB6_18:
	.loc	4 0 13                          @ ../../../../Library/StdDriver/src/qspi.c:0:13
	ldr	r2, __arm_cp.6_4
.Ltmp85:
	.loc	4 280 20 is_stmt 1              @ ../../../../Library/StdDriver/src/qspi.c:280:20
	str	r2, [sp, #4]
	.loc	4 281 13                        @ ../../../../Library/StdDriver/src/qspi.c:281:13
	ldr	r1, [sp, #20]
	.loc	4 281 26 is_stmt 0              @ ../../../../Library/StdDriver/src/qspi.c:281:26
	ldr	r0, [r1, #4]
	orrs	r0, r2
	str	r0, [r1, #4]
	.loc	4 283 28 is_stmt 1              @ ../../../../Library/StdDriver/src/qspi.c:283:28
	ldr	r0, [sp, #12]
	.loc	4 283 38 is_stmt 0              @ ../../../../Library/StdDriver/src/qspi.c:283:38
	lsrs	r0, r0, #9
	.loc	4 283 25                        @ ../../../../Library/StdDriver/src/qspi.c:283:25
	str	r0, [sp]
	.loc	4 284 9 is_stmt 1               @ ../../../../Library/StdDriver/src/qspi.c:284:9
	b	.LBB6_20
.Ltmp86:
.LBB6_19:
	.loc	4 287 29                        @ ../../../../Library/StdDriver/src/qspi.c:287:29
	ldr	r0, [sp, #20]
	.loc	4 287 35 is_stmt 0              @ ../../../../Library/StdDriver/src/qspi.c:287:35
	ldr	r0, [r0, #4]
	ldr	r1, __arm_cp.6_3
	.loc	4 287 42                        @ ../../../../Library/StdDriver/src/qspi.c:287:42
	ands	r0, r1
	.loc	4 287 75                        @ ../../../../Library/StdDriver/src/qspi.c:287:75
	ldr	r1, [sp, #4]
	.loc	4 287 72                        @ ../../../../Library/StdDriver/src/qspi.c:287:72
	orrs	r0, r1
	.loc	4 287 13                        @ ../../../../Library/StdDriver/src/qspi.c:287:13
	ldr	r1, [sp, #20]
	.loc	4 287 26                        @ ../../../../Library/StdDriver/src/qspi.c:287:26
	str	r0, [r1, #4]
	.loc	4 289 28 is_stmt 1              @ ../../../../Library/StdDriver/src/qspi.c:289:28
	ldr	r0, [sp, #12]
	.loc	4 289 41 is_stmt 0              @ ../../../../Library/StdDriver/src/qspi.c:289:41
	ldr	r1, [sp, #4]
	.loc	4 289 48                        @ ../../../../Library/StdDriver/src/qspi.c:289:48
	adds	r1, r1, #1
	.loc	4 289 38                        @ ../../../../Library/StdDriver/src/qspi.c:289:38
	udiv	r0, r0, r1
	.loc	4 289 25                        @ ../../../../Library/StdDriver/src/qspi.c:289:25
	str	r0, [sp]
	b	.LBB6_20
.Ltmp87:
.LBB6_20:
	.loc	4 0 25                          @ ../../../../Library/StdDriver/src/qspi.c:0:25
	b	.LBB6_21
.LBB6_21:
	b	.LBB6_22
.LBB6_22:
	b	.LBB6_23
.LBB6_23:
	.loc	4 293 12 is_stmt 1              @ ../../../../Library/StdDriver/src/qspi.c:293:12
	ldr	r0, [sp]
	.loc	4 293 5 is_stmt 0               @ ../../../../Library/StdDriver/src/qspi.c:293:5
	add	sp, #24
	pop	{r7, pc}
.Ltmp88:
	.p2align	2
@ %bb.24:
	.loc	4 0 5                           @ ../../../../Library/StdDriver/src/qspi.c:0:5
__arm_cp.6_0:
	.long	1073742360                      @ 0x40000218
.Lcpi_end6:
	.size	__arm_cp.6_0, .Lcpi_end6-__arm_cp.6_0
__arm_cp.6_1:
	.long	48000000                        @ 0x2dc6c00
.Lcpi_end7:
	.size	__arm_cp.6_1, .Lcpi_end7-__arm_cp.6_1
__arm_cp.6_2:
	.long	12000000                        @ 0xb71b00
.Lcpi_end8:
	.size	__arm_cp.6_2, .Lcpi_end8-__arm_cp.6_2
__arm_cp.6_3:
	.long	4294966784                      @ 0xfffffe00
.Lcpi_end9:
	.size	__arm_cp.6_3, .Lcpi_end9-__arm_cp.6_3
__arm_cp.6_4:
	.long	511                             @ 0x1ff
.Lcpi_end10:
	.size	__arm_cp.6_4, .Lcpi_end10-__arm_cp.6_4
.Lfunc_end6:
	.size	QSPI_SetBusClock, .Lfunc_end6-QSPI_SetBusClock
	.cfi_endproc
	.cantunwind
	.fnend
                                        @ -- End function
	.section	.text.QSPI_SetFIFO,"ax",%progbits
	.hidden	QSPI_SetFIFO                    @ -- Begin function QSPI_SetFIFO
	.globl	QSPI_SetFIFO
	.p2align	1
	.type	QSPI_SetFIFO,%function
	.code	16                              @ @QSPI_SetFIFO
	.thumb_func
QSPI_SetFIFO:
.Lfunc_begin7:
	.loc	4 304 0 is_stmt 1               @ ../../../../Library/StdDriver/src/qspi.c:304:0
	.fnstart
	.cfi_startproc
@ %bb.0:
	.pad	#12
	sub	sp, #12
	.cfi_def_cfa_offset 12
	str	r0, [sp, #8]
	str	r1, [sp, #4]
	str	r2, [sp]
.Ltmp89:
	.loc	4 305 22 prologue_end           @ ../../../../Library/StdDriver/src/qspi.c:305:22
	ldr	r0, [sp, #8]
	.loc	4 305 28 is_stmt 0              @ ../../../../Library/StdDriver/src/qspi.c:305:28
	ldr	r0, [r0, #16]
	movs	r1, #119
	lsls	r1, r1, #24
	.loc	4 305 36                        @ ../../../../Library/StdDriver/src/qspi.c:305:36
	bics	r0, r1
	.loc	4 306 22 is_stmt 1              @ ../../../../Library/StdDriver/src/qspi.c:306:22
	ldr	r1, [sp, #4]
	.loc	4 306 37 is_stmt 0              @ ../../../../Library/StdDriver/src/qspi.c:306:37
	lsls	r1, r1, #28
	.loc	4 305 88 is_stmt 1              @ ../../../../Library/StdDriver/src/qspi.c:305:88
	orrs	r0, r1
	.loc	4 307 22                        @ ../../../../Library/StdDriver/src/qspi.c:307:22
	ldr	r1, [sp]
	.loc	4 307 37 is_stmt 0              @ ../../../../Library/StdDriver/src/qspi.c:307:37
	lsls	r1, r1, #24
	.loc	4 306 63 is_stmt 1              @ ../../../../Library/StdDriver/src/qspi.c:306:63
	orrs	r0, r1
	.loc	4 305 5                         @ ../../../../Library/StdDriver/src/qspi.c:305:5
	ldr	r1, [sp, #8]
	.loc	4 305 19 is_stmt 0              @ ../../../../Library/StdDriver/src/qspi.c:305:19
	str	r0, [r1, #16]
	.loc	4 308 1 is_stmt 1               @ ../../../../Library/StdDriver/src/qspi.c:308:1
	add	sp, #12
	bx	lr
.Ltmp90:
.Lfunc_end7:
	.size	QSPI_SetFIFO, .Lfunc_end7-QSPI_SetFIFO
	.cfi_endproc
	.cantunwind
	.fnend
                                        @ -- End function
	.section	.text.QSPI_GetBusClock,"ax",%progbits
	.hidden	QSPI_GetBusClock                @ -- Begin function QSPI_GetBusClock
	.globl	QSPI_GetBusClock
	.p2align	2
	.type	QSPI_GetBusClock,%function
	.code	16                              @ @QSPI_GetBusClock
	.thumb_func
QSPI_GetBusClock:
.Lfunc_begin8:
	.loc	4 317 0                         @ ../../../../Library/StdDriver/src/qspi.c:317:0
	.fnstart
	.cfi_startproc
@ %bb.0:
	.save	{r7, lr}
	push	{r7, lr}
	.cfi_def_cfa_offset 8
	.cfi_offset lr, -4
	.cfi_offset r7, -8
	.pad	#16
	sub	sp, #16
	.cfi_def_cfa_offset 24
	str	r0, [sp, #12]
.Ltmp91:
	.loc	4 322 15 prologue_end           @ ../../../../Library/StdDriver/src/qspi.c:322:15
	ldr	r0, [sp, #12]
	.loc	4 322 21 is_stmt 0              @ ../../../../Library/StdDriver/src/qspi.c:322:21
	ldr	r0, [r0, #4]
	ldr	r1, __arm_cp.8_0
	.loc	4 322 28                        @ ../../../../Library/StdDriver/src/qspi.c:322:28
	ands	r0, r1
	.loc	4 322 12                        @ ../../../../Library/StdDriver/src/qspi.c:322:12
	str	r0, [sp, #8]
	ldr	r0, __arm_cp.8_1
.Ltmp92:
	.loc	4 325 15 is_stmt 1              @ ../../../../Library/StdDriver/src/qspi.c:325:15
	ldr	r0, [r0]
.Ltmp93:
	.loc	4 325 9 is_stmt 0               @ ../../../../Library/StdDriver/src/qspi.c:325:9
	lsls	r0, r0, #28
	lsrs	r0, r0, #30
	cbnz	r0, .LBB8_2
	b	.LBB8_1
.LBB8_1:
	.loc	4 0 9                           @ ../../../../Library/StdDriver/src/qspi.c:0:9
	ldr	r0, __arm_cp.8_3
.Ltmp94:
	.loc	4 327 19 is_stmt 1              @ ../../../../Library/StdDriver/src/qspi.c:327:19
	str	r0, [sp, #4]
	.loc	4 328 5                         @ ../../../../Library/StdDriver/src/qspi.c:328:5
	b	.LBB8_9
.Ltmp95:
.LBB8_2:
	.loc	4 0 5 is_stmt 0                 @ ../../../../Library/StdDriver/src/qspi.c:0:5
	ldr	r0, __arm_cp.8_1
.Ltmp96:
	.loc	4 329 20 is_stmt 1              @ ../../../../Library/StdDriver/src/qspi.c:329:20
	ldr	r0, [r0]
	movs	r1, #12
	.loc	4 329 28 is_stmt 0              @ ../../../../Library/StdDriver/src/qspi.c:329:28
	ands	r0, r1
.Ltmp97:
	.loc	4 329 14                        @ ../../../../Library/StdDriver/src/qspi.c:329:14
	cmp	r0, #4
	bne	.LBB8_4
	b	.LBB8_3
.LBB8_3:
.Ltmp98:
	.loc	4 331 21 is_stmt 1              @ ../../../../Library/StdDriver/src/qspi.c:331:21
	bl	CLK_GetPLLClockFreq
	.loc	4 331 19 is_stmt 0              @ ../../../../Library/StdDriver/src/qspi.c:331:19
	str	r0, [sp, #4]
	.loc	4 332 5 is_stmt 1               @ ../../../../Library/StdDriver/src/qspi.c:332:5
	b	.LBB8_8
.Ltmp99:
.LBB8_4:
	.loc	4 0 5 is_stmt 0                 @ ../../../../Library/StdDriver/src/qspi.c:0:5
	ldr	r0, __arm_cp.8_1
.Ltmp100:
	.loc	4 333 20 is_stmt 1              @ ../../../../Library/StdDriver/src/qspi.c:333:20
	ldr	r0, [r0]
	movs	r1, #12
	.loc	4 333 28 is_stmt 0              @ ../../../../Library/StdDriver/src/qspi.c:333:28
	ands	r0, r1
.Ltmp101:
	.loc	4 333 14                        @ ../../../../Library/StdDriver/src/qspi.c:333:14
	cmp	r0, #8
	bne	.LBB8_6
	b	.LBB8_5
.LBB8_5:
.Ltmp102:
	.loc	4 336 21 is_stmt 1              @ ../../../../Library/StdDriver/src/qspi.c:336:21
	bl	CLK_GetPCLK0Freq
	.loc	4 336 19 is_stmt 0              @ ../../../../Library/StdDriver/src/qspi.c:336:19
	str	r0, [sp, #4]
	.loc	4 337 5 is_stmt 1               @ ../../../../Library/StdDriver/src/qspi.c:337:5
	b	.LBB8_7
.Ltmp103:
.LBB8_6:
	.loc	4 0 5 is_stmt 0                 @ ../../../../Library/StdDriver/src/qspi.c:0:5
	ldr	r0, __arm_cp.8_2
.Ltmp104:
	.loc	4 340 19 is_stmt 1              @ ../../../../Library/StdDriver/src/qspi.c:340:19
	str	r0, [sp, #4]
	b	.LBB8_7
.Ltmp105:
.LBB8_7:
	.loc	4 0 19 is_stmt 0                @ ../../../../Library/StdDriver/src/qspi.c:0:19
	b	.LBB8_8
.LBB8_8:
	b	.LBB8_9
.LBB8_9:
	.loc	4 344 13 is_stmt 1              @ ../../../../Library/StdDriver/src/qspi.c:344:13
	ldr	r0, [sp, #4]
	.loc	4 344 26 is_stmt 0              @ ../../../../Library/StdDriver/src/qspi.c:344:26
	ldr	r1, [sp, #8]
	.loc	4 344 33                        @ ../../../../Library/StdDriver/src/qspi.c:344:33
	adds	r1, r1, #1
	.loc	4 344 23                        @ ../../../../Library/StdDriver/src/qspi.c:344:23
	udiv	r0, r0, r1
	.loc	4 344 5                         @ ../../../../Library/StdDriver/src/qspi.c:344:5
	add	sp, #16
	pop	{r7, pc}
.Ltmp106:
	.p2align	2
@ %bb.10:
	.loc	4 0 5                           @ ../../../../Library/StdDriver/src/qspi.c:0:5
__arm_cp.8_0:
	.long	511                             @ 0x1ff
.Lcpi_end11:
	.size	__arm_cp.8_0, .Lcpi_end11-__arm_cp.8_0
__arm_cp.8_1:
	.long	1073742360                      @ 0x40000218
.Lcpi_end12:
	.size	__arm_cp.8_1, .Lcpi_end12-__arm_cp.8_1
__arm_cp.8_2:
	.long	48000000                        @ 0x2dc6c00
.Lcpi_end13:
	.size	__arm_cp.8_2, .Lcpi_end13-__arm_cp.8_2
__arm_cp.8_3:
	.long	12000000                        @ 0xb71b00
.Lcpi_end14:
	.size	__arm_cp.8_3, .Lcpi_end14-__arm_cp.8_3
.Lfunc_end8:
	.size	QSPI_GetBusClock, .Lfunc_end8-QSPI_GetBusClock
	.cfi_endproc
	.cantunwind
	.fnend
                                        @ -- End function
	.section	.text.QSPI_EnableInt,"ax",%progbits
	.hidden	QSPI_EnableInt                  @ -- Begin function QSPI_EnableInt
	.globl	QSPI_EnableInt
	.p2align	1
	.type	QSPI_EnableInt,%function
	.code	16                              @ @QSPI_EnableInt
	.thumb_func
QSPI_EnableInt:
.Lfunc_begin9:
	.loc	4 368 0 is_stmt 1               @ ../../../../Library/StdDriver/src/qspi.c:368:0
	.fnstart
	.cfi_startproc
@ %bb.0:
	.pad	#8
	sub	sp, #8
	.cfi_def_cfa_offset 8
	str	r0, [sp, #4]
	str	r1, [sp]
	mov	r0, sp
.Ltmp107:
	.loc	4 370 9 prologue_end            @ ../../../../Library/StdDriver/src/qspi.c:370:9
	ldrb	r0, [r0]
	lsls	r0, r0, #31
	cbz	r0, .LBB9_2
	b	.LBB9_1
.LBB9_1:
.Ltmp108:
	.loc	4 372 9                         @ ../../../../Library/StdDriver/src/qspi.c:372:9
	ldr	r1, [sp, #4]
	.loc	4 372 19 is_stmt 0              @ ../../../../Library/StdDriver/src/qspi.c:372:19
	ldr	r0, [r1]
	movs	r2, #1
	lsls	r2, r2, #17
	orrs	r0, r2
	str	r0, [r1]
	.loc	4 373 5 is_stmt 1               @ ../../../../Library/StdDriver/src/qspi.c:373:5
	b	.LBB9_2
.Ltmp109:
.LBB9_2:
	.loc	4 0 5 is_stmt 0                 @ ../../../../Library/StdDriver/src/qspi.c:0:5
	mov	r0, sp
	.loc	4 376 9 is_stmt 1               @ ../../../../Library/StdDriver/src/qspi.c:376:9
	ldrb	r0, [r0]
	lsls	r0, r0, #30
	cmp	r0, #0
	bpl	.LBB9_4
	b	.LBB9_3
.LBB9_3:
.Ltmp110:
	.loc	4 378 9                         @ ../../../../Library/StdDriver/src/qspi.c:378:9
	ldr	r1, [sp, #4]
	.loc	4 378 21 is_stmt 0              @ ../../../../Library/StdDriver/src/qspi.c:378:21
	ldr	r0, [r1, #8]
	movw	r2, #4096
	orrs	r0, r2
	str	r0, [r1, #8]
	.loc	4 379 5 is_stmt 1               @ ../../../../Library/StdDriver/src/qspi.c:379:5
	b	.LBB9_4
.Ltmp111:
.LBB9_4:
	.loc	4 0 5 is_stmt 0                 @ ../../../../Library/StdDriver/src/qspi.c:0:5
	mov	r0, sp
	.loc	4 382 9 is_stmt 1               @ ../../../../Library/StdDriver/src/qspi.c:382:9
	ldrb	r0, [r0]
	lsls	r0, r0, #29
	cmp	r0, #0
	bpl	.LBB9_6
	b	.LBB9_5
.LBB9_5:
.Ltmp112:
	.loc	4 384 9                         @ ../../../../Library/StdDriver/src/qspi.c:384:9
	ldr	r1, [sp, #4]
	.loc	4 384 21 is_stmt 0              @ ../../../../Library/StdDriver/src/qspi.c:384:21
	ldr	r0, [r1, #8]
	movw	r2, #8192
	orrs	r0, r2
	str	r0, [r1, #8]
	.loc	4 385 5 is_stmt 1               @ ../../../../Library/StdDriver/src/qspi.c:385:5
	b	.LBB9_6
.Ltmp113:
.LBB9_6:
	.loc	4 0 5 is_stmt 0                 @ ../../../../Library/StdDriver/src/qspi.c:0:5
	mov	r0, sp
	.loc	4 388 9 is_stmt 1               @ ../../../../Library/StdDriver/src/qspi.c:388:9
	ldrb	r0, [r0]
	lsls	r0, r0, #28
	cmp	r0, #0
	bpl	.LBB9_8
	b	.LBB9_7
.LBB9_7:
.Ltmp114:
	.loc	4 390 9                         @ ../../../../Library/StdDriver/src/qspi.c:390:9
	ldr	r1, [sp, #4]
	.loc	4 390 21 is_stmt 0              @ ../../../../Library/StdDriver/src/qspi.c:390:21
	ldr	r0, [r1, #8]
	movw	r2, #512
	orrs	r0, r2
	str	r0, [r1, #8]
	.loc	4 391 5 is_stmt 1               @ ../../../../Library/StdDriver/src/qspi.c:391:5
	b	.LBB9_8
.Ltmp115:
.LBB9_8:
	.loc	4 0 5 is_stmt 0                 @ ../../../../Library/StdDriver/src/qspi.c:0:5
	mov	r0, sp
	.loc	4 394 9 is_stmt 1               @ ../../../../Library/StdDriver/src/qspi.c:394:9
	ldrb	r0, [r0]
	lsls	r0, r0, #27
	cmp	r0, #0
	bpl	.LBB9_10
	b	.LBB9_9
.LBB9_9:
.Ltmp116:
	.loc	4 396 9                         @ ../../../../Library/StdDriver/src/qspi.c:396:9
	ldr	r1, [sp, #4]
	.loc	4 396 21 is_stmt 0              @ ../../../../Library/StdDriver/src/qspi.c:396:21
	ldr	r0, [r1, #8]
	movw	r2, #256
	orrs	r0, r2
	str	r0, [r1, #8]
	.loc	4 397 5 is_stmt 1               @ ../../../../Library/StdDriver/src/qspi.c:397:5
	b	.LBB9_10
.Ltmp117:
.LBB9_10:
	.loc	4 0 5 is_stmt 0                 @ ../../../../Library/StdDriver/src/qspi.c:0:5
	mov	r0, sp
	.loc	4 400 9 is_stmt 1               @ ../../../../Library/StdDriver/src/qspi.c:400:9
	ldrb	r0, [r0]
	lsls	r0, r0, #26
	cmp	r0, #0
	bpl	.LBB9_12
	b	.LBB9_11
.LBB9_11:
.Ltmp118:
	.loc	4 402 9                         @ ../../../../Library/StdDriver/src/qspi.c:402:9
	ldr	r1, [sp, #4]
	.loc	4 402 21 is_stmt 0              @ ../../../../Library/StdDriver/src/qspi.c:402:21
	ldr	r0, [r1, #8]
	movs	r2, #32
	orrs	r0, r2
	str	r0, [r1, #8]
	.loc	4 403 5 is_stmt 1               @ ../../../../Library/StdDriver/src/qspi.c:403:5
	b	.LBB9_12
.Ltmp119:
.LBB9_12:
	.loc	4 0 5 is_stmt 0                 @ ../../../../Library/StdDriver/src/qspi.c:0:5
	mov	r0, sp
	.loc	4 406 9 is_stmt 1               @ ../../../../Library/StdDriver/src/qspi.c:406:9
	ldrb	r0, [r0]
	lsls	r0, r0, #25
	cmp	r0, #0
	bpl	.LBB9_14
	b	.LBB9_13
.LBB9_13:
.Ltmp120:
	.loc	4 408 9                         @ ../../../../Library/StdDriver/src/qspi.c:408:9
	ldr	r1, [sp, #4]
	.loc	4 408 23 is_stmt 0              @ ../../../../Library/StdDriver/src/qspi.c:408:23
	ldr	r0, [r1, #16]
	movs	r2, #128
	orrs	r0, r2
	str	r0, [r1, #16]
	.loc	4 409 5 is_stmt 1               @ ../../../../Library/StdDriver/src/qspi.c:409:5
	b	.LBB9_14
.Ltmp121:
.LBB9_14:
	.loc	4 0 5 is_stmt 0                 @ ../../../../Library/StdDriver/src/qspi.c:0:5
	mov	r0, sp
	.loc	4 412 9 is_stmt 1               @ ../../../../Library/StdDriver/src/qspi.c:412:9
	ldrb	r0, [r0]
	lsls	r0, r0, #24
	cmp	r0, #0
	bpl	.LBB9_16
	b	.LBB9_15
.LBB9_15:
.Ltmp122:
	.loc	4 414 9                         @ ../../../../Library/StdDriver/src/qspi.c:414:9
	ldr	r1, [sp, #4]
	.loc	4 414 23 is_stmt 0              @ ../../../../Library/StdDriver/src/qspi.c:414:23
	ldr	r0, [r1, #16]
	movs	r2, #8
	orrs	r0, r2
	str	r0, [r1, #16]
	.loc	4 415 5 is_stmt 1               @ ../../../../Library/StdDriver/src/qspi.c:415:5
	b	.LBB9_16
.Ltmp123:
.LBB9_16:
	.loc	4 0 5 is_stmt 0                 @ ../../../../Library/StdDriver/src/qspi.c:0:5
	mov	r0, sp
	.loc	4 418 9 is_stmt 1               @ ../../../../Library/StdDriver/src/qspi.c:418:9
	ldrb	r0, [r0, #1]
	lsls	r0, r0, #31
	cbz	r0, .LBB9_18
	b	.LBB9_17
.LBB9_17:
.Ltmp124:
	.loc	4 420 9                         @ ../../../../Library/StdDriver/src/qspi.c:420:9
	ldr	r1, [sp, #4]
	.loc	4 420 23 is_stmt 0              @ ../../../../Library/StdDriver/src/qspi.c:420:23
	ldr	r0, [r1, #16]
	movs	r2, #4
	orrs	r0, r2
	str	r0, [r1, #16]
	.loc	4 421 5 is_stmt 1               @ ../../../../Library/StdDriver/src/qspi.c:421:5
	b	.LBB9_18
.Ltmp125:
.LBB9_18:
	.loc	4 0 5 is_stmt 0                 @ ../../../../Library/StdDriver/src/qspi.c:0:5
	mov	r0, sp
	.loc	4 424 9 is_stmt 1               @ ../../../../Library/StdDriver/src/qspi.c:424:9
	ldrb	r0, [r0, #1]
	lsls	r0, r0, #30
	cmp	r0, #0
	bpl	.LBB9_20
	b	.LBB9_19
.LBB9_19:
.Ltmp126:
	.loc	4 426 9                         @ ../../../../Library/StdDriver/src/qspi.c:426:9
	ldr	r1, [sp, #4]
	.loc	4 426 23 is_stmt 0              @ ../../../../Library/StdDriver/src/qspi.c:426:23
	ldr	r0, [r1, #16]
	movs	r2, #32
	orrs	r0, r2
	str	r0, [r1, #16]
	.loc	4 427 5 is_stmt 1               @ ../../../../Library/StdDriver/src/qspi.c:427:5
	b	.LBB9_20
.Ltmp127:
.LBB9_20:
	.loc	4 0 5 is_stmt 0                 @ ../../../../Library/StdDriver/src/qspi.c:0:5
	mov	r0, sp
	.loc	4 430 9 is_stmt 1               @ ../../../../Library/StdDriver/src/qspi.c:430:9
	ldrb	r0, [r0, #1]
	lsls	r0, r0, #29
	cmp	r0, #0
	bpl	.LBB9_22
	b	.LBB9_21
.LBB9_21:
.Ltmp128:
	.loc	4 432 9                         @ ../../../../Library/StdDriver/src/qspi.c:432:9
	ldr	r1, [sp, #4]
	.loc	4 432 23 is_stmt 0              @ ../../../../Library/StdDriver/src/qspi.c:432:23
	ldr	r0, [r1, #16]
	movs	r2, #16
	orrs	r0, r2
	str	r0, [r1, #16]
	.loc	4 433 5 is_stmt 1               @ ../../../../Library/StdDriver/src/qspi.c:433:5
	b	.LBB9_22
.Ltmp129:
.LBB9_22:
	.loc	4 434 1                         @ ../../../../Library/StdDriver/src/qspi.c:434:1
	add	sp, #8
	bx	lr
.Ltmp130:
.Lfunc_end9:
	.size	QSPI_EnableInt, .Lfunc_end9-QSPI_EnableInt
	.cfi_endproc
	.cantunwind
	.fnend
                                        @ -- End function
	.section	.text.QSPI_DisableInt,"ax",%progbits
	.hidden	QSPI_DisableInt                 @ -- Begin function QSPI_DisableInt
	.globl	QSPI_DisableInt
	.p2align	1
	.type	QSPI_DisableInt,%function
	.code	16                              @ @QSPI_DisableInt
	.thumb_func
QSPI_DisableInt:
.Lfunc_begin10:
	.loc	4 457 0                         @ ../../../../Library/StdDriver/src/qspi.c:457:0
	.fnstart
	.cfi_startproc
@ %bb.0:
	.pad	#8
	sub	sp, #8
	.cfi_def_cfa_offset 8
	str	r0, [sp, #4]
	str	r1, [sp]
	mov	r0, sp
.Ltmp131:
	.loc	4 459 9 prologue_end            @ ../../../../Library/StdDriver/src/qspi.c:459:9
	ldrb	r0, [r0]
	lsls	r0, r0, #31
	cbz	r0, .LBB10_2
	b	.LBB10_1
.LBB10_1:
.Ltmp132:
	.loc	4 461 9                         @ ../../../../Library/StdDriver/src/qspi.c:461:9
	ldr	r1, [sp, #4]
	.loc	4 461 19 is_stmt 0              @ ../../../../Library/StdDriver/src/qspi.c:461:19
	ldr	r0, [r1]
	movs	r2, #1
	lsls	r2, r2, #17
	bics	r0, r2
	str	r0, [r1]
	.loc	4 462 5 is_stmt 1               @ ../../../../Library/StdDriver/src/qspi.c:462:5
	b	.LBB10_2
.Ltmp133:
.LBB10_2:
	.loc	4 0 5 is_stmt 0                 @ ../../../../Library/StdDriver/src/qspi.c:0:5
	mov	r0, sp
	.loc	4 465 9 is_stmt 1               @ ../../../../Library/StdDriver/src/qspi.c:465:9
	ldrb	r0, [r0]
	lsls	r0, r0, #30
	cmp	r0, #0
	bpl	.LBB10_4
	b	.LBB10_3
.LBB10_3:
.Ltmp134:
	.loc	4 467 9                         @ ../../../../Library/StdDriver/src/qspi.c:467:9
	ldr	r1, [sp, #4]
	.loc	4 467 21 is_stmt 0              @ ../../../../Library/StdDriver/src/qspi.c:467:21
	ldr	r0, [r1, #8]
	movw	r2, #4096
	bics	r0, r2
	str	r0, [r1, #8]
	.loc	4 468 5 is_stmt 1               @ ../../../../Library/StdDriver/src/qspi.c:468:5
	b	.LBB10_4
.Ltmp135:
.LBB10_4:
	.loc	4 0 5 is_stmt 0                 @ ../../../../Library/StdDriver/src/qspi.c:0:5
	mov	r0, sp
	.loc	4 471 9 is_stmt 1               @ ../../../../Library/StdDriver/src/qspi.c:471:9
	ldrb	r0, [r0]
	lsls	r0, r0, #29
	cmp	r0, #0
	bpl	.LBB10_6
	b	.LBB10_5
.LBB10_5:
.Ltmp136:
	.loc	4 473 9                         @ ../../../../Library/StdDriver/src/qspi.c:473:9
	ldr	r1, [sp, #4]
	.loc	4 473 21 is_stmt 0              @ ../../../../Library/StdDriver/src/qspi.c:473:21
	ldr	r0, [r1, #8]
	movw	r2, #8192
	bics	r0, r2
	str	r0, [r1, #8]
	.loc	4 474 5 is_stmt 1               @ ../../../../Library/StdDriver/src/qspi.c:474:5
	b	.LBB10_6
.Ltmp137:
.LBB10_6:
	.loc	4 0 5 is_stmt 0                 @ ../../../../Library/StdDriver/src/qspi.c:0:5
	mov	r0, sp
	.loc	4 477 9 is_stmt 1               @ ../../../../Library/StdDriver/src/qspi.c:477:9
	ldrb	r0, [r0]
	lsls	r0, r0, #28
	cmp	r0, #0
	bpl	.LBB10_8
	b	.LBB10_7
.LBB10_7:
.Ltmp138:
	.loc	4 479 9                         @ ../../../../Library/StdDriver/src/qspi.c:479:9
	ldr	r1, [sp, #4]
	.loc	4 479 21 is_stmt 0              @ ../../../../Library/StdDriver/src/qspi.c:479:21
	ldr	r0, [r1, #8]
	movw	r2, #512
	bics	r0, r2
	str	r0, [r1, #8]
	.loc	4 480 5 is_stmt 1               @ ../../../../Library/StdDriver/src/qspi.c:480:5
	b	.LBB10_8
.Ltmp139:
.LBB10_8:
	.loc	4 0 5 is_stmt 0                 @ ../../../../Library/StdDriver/src/qspi.c:0:5
	mov	r0, sp
	.loc	4 483 9 is_stmt 1               @ ../../../../Library/StdDriver/src/qspi.c:483:9
	ldrb	r0, [r0]
	lsls	r0, r0, #27
	cmp	r0, #0
	bpl	.LBB10_10
	b	.LBB10_9
.LBB10_9:
.Ltmp140:
	.loc	4 485 9                         @ ../../../../Library/StdDriver/src/qspi.c:485:9
	ldr	r1, [sp, #4]
	.loc	4 485 21 is_stmt 0              @ ../../../../Library/StdDriver/src/qspi.c:485:21
	ldr	r0, [r1, #8]
	movw	r2, #256
	bics	r0, r2
	str	r0, [r1, #8]
	.loc	4 486 5 is_stmt 1               @ ../../../../Library/StdDriver/src/qspi.c:486:5
	b	.LBB10_10
.Ltmp141:
.LBB10_10:
	.loc	4 0 5 is_stmt 0                 @ ../../../../Library/StdDriver/src/qspi.c:0:5
	mov	r0, sp
	.loc	4 489 9 is_stmt 1               @ ../../../../Library/StdDriver/src/qspi.c:489:9
	ldrb	r0, [r0]
	lsls	r0, r0, #26
	cmp	r0, #0
	bpl	.LBB10_12
	b	.LBB10_11
.LBB10_11:
.Ltmp142:
	.loc	4 491 9                         @ ../../../../Library/StdDriver/src/qspi.c:491:9
	ldr	r1, [sp, #4]
	.loc	4 491 21 is_stmt 0              @ ../../../../Library/StdDriver/src/qspi.c:491:21
	ldr	r0, [r1, #8]
	movs	r2, #32
	bics	r0, r2
	str	r0, [r1, #8]
	.loc	4 492 5 is_stmt 1               @ ../../../../Library/StdDriver/src/qspi.c:492:5
	b	.LBB10_12
.Ltmp143:
.LBB10_12:
	.loc	4 0 5 is_stmt 0                 @ ../../../../Library/StdDriver/src/qspi.c:0:5
	mov	r0, sp
	.loc	4 495 9 is_stmt 1               @ ../../../../Library/StdDriver/src/qspi.c:495:9
	ldrb	r0, [r0]
	lsls	r0, r0, #25
	cmp	r0, #0
	bpl	.LBB10_14
	b	.LBB10_13
.LBB10_13:
.Ltmp144:
	.loc	4 497 9                         @ ../../../../Library/StdDriver/src/qspi.c:497:9
	ldr	r1, [sp, #4]
	.loc	4 497 23 is_stmt 0              @ ../../../../Library/StdDriver/src/qspi.c:497:23
	ldr	r0, [r1, #16]
	movs	r2, #128
	bics	r0, r2
	str	r0, [r1, #16]
	.loc	4 498 5 is_stmt 1               @ ../../../../Library/StdDriver/src/qspi.c:498:5
	b	.LBB10_14
.Ltmp145:
.LBB10_14:
	.loc	4 0 5 is_stmt 0                 @ ../../../../Library/StdDriver/src/qspi.c:0:5
	mov	r0, sp
	.loc	4 501 9 is_stmt 1               @ ../../../../Library/StdDriver/src/qspi.c:501:9
	ldrb	r0, [r0]
	lsls	r0, r0, #24
	cmp	r0, #0
	bpl	.LBB10_16
	b	.LBB10_15
.LBB10_15:
.Ltmp146:
	.loc	4 503 9                         @ ../../../../Library/StdDriver/src/qspi.c:503:9
	ldr	r1, [sp, #4]
	.loc	4 503 23 is_stmt 0              @ ../../../../Library/StdDriver/src/qspi.c:503:23
	ldr	r0, [r1, #16]
	movs	r2, #8
	bics	r0, r2
	str	r0, [r1, #16]
	.loc	4 504 5 is_stmt 1               @ ../../../../Library/StdDriver/src/qspi.c:504:5
	b	.LBB10_16
.Ltmp147:
.LBB10_16:
	.loc	4 0 5 is_stmt 0                 @ ../../../../Library/StdDriver/src/qspi.c:0:5
	mov	r0, sp
	.loc	4 507 9 is_stmt 1               @ ../../../../Library/StdDriver/src/qspi.c:507:9
	ldrb	r0, [r0, #1]
	lsls	r0, r0, #31
	cbz	r0, .LBB10_18
	b	.LBB10_17
.LBB10_17:
.Ltmp148:
	.loc	4 509 9                         @ ../../../../Library/StdDriver/src/qspi.c:509:9
	ldr	r1, [sp, #4]
	.loc	4 509 23 is_stmt 0              @ ../../../../Library/StdDriver/src/qspi.c:509:23
	ldr	r0, [r1, #16]
	movs	r2, #4
	bics	r0, r2
	str	r0, [r1, #16]
	.loc	4 510 5 is_stmt 1               @ ../../../../Library/StdDriver/src/qspi.c:510:5
	b	.LBB10_18
.Ltmp149:
.LBB10_18:
	.loc	4 0 5 is_stmt 0                 @ ../../../../Library/StdDriver/src/qspi.c:0:5
	mov	r0, sp
	.loc	4 513 9 is_stmt 1               @ ../../../../Library/StdDriver/src/qspi.c:513:9
	ldrb	r0, [r0, #1]
	lsls	r0, r0, #30
	cmp	r0, #0
	bpl	.LBB10_20
	b	.LBB10_19
.LBB10_19:
.Ltmp150:
	.loc	4 515 9                         @ ../../../../Library/StdDriver/src/qspi.c:515:9
	ldr	r1, [sp, #4]
	.loc	4 515 23 is_stmt 0              @ ../../../../Library/StdDriver/src/qspi.c:515:23
	ldr	r0, [r1, #16]
	movs	r2, #32
	bics	r0, r2
	str	r0, [r1, #16]
	.loc	4 516 5 is_stmt 1               @ ../../../../Library/StdDriver/src/qspi.c:516:5
	b	.LBB10_20
.Ltmp151:
.LBB10_20:
	.loc	4 0 5 is_stmt 0                 @ ../../../../Library/StdDriver/src/qspi.c:0:5
	mov	r0, sp
	.loc	4 519 9 is_stmt 1               @ ../../../../Library/StdDriver/src/qspi.c:519:9
	ldrb	r0, [r0, #1]
	lsls	r0, r0, #29
	cmp	r0, #0
	bpl	.LBB10_22
	b	.LBB10_21
.LBB10_21:
.Ltmp152:
	.loc	4 521 9                         @ ../../../../Library/StdDriver/src/qspi.c:521:9
	ldr	r1, [sp, #4]
	.loc	4 521 23 is_stmt 0              @ ../../../../Library/StdDriver/src/qspi.c:521:23
	ldr	r0, [r1, #16]
	movs	r2, #16
	bics	r0, r2
	str	r0, [r1, #16]
	.loc	4 522 5 is_stmt 1               @ ../../../../Library/StdDriver/src/qspi.c:522:5
	b	.LBB10_22
.Ltmp153:
.LBB10_22:
	.loc	4 523 1                         @ ../../../../Library/StdDriver/src/qspi.c:523:1
	add	sp, #8
	bx	lr
.Ltmp154:
.Lfunc_end10:
	.size	QSPI_DisableInt, .Lfunc_end10-QSPI_DisableInt
	.cfi_endproc
	.cantunwind
	.fnend
                                        @ -- End function
	.section	.text.QSPI_GetIntFlag,"ax",%progbits
	.hidden	QSPI_GetIntFlag                 @ -- Begin function QSPI_GetIntFlag
	.globl	QSPI_GetIntFlag
	.p2align	1
	.type	QSPI_GetIntFlag,%function
	.code	16                              @ @QSPI_GetIntFlag
	.thumb_func
QSPI_GetIntFlag:
.Lfunc_begin11:
	.loc	4 547 0                         @ ../../../../Library/StdDriver/src/qspi.c:547:0
	.fnstart
	.cfi_startproc
@ %bb.0:
	.pad	#16
	sub	sp, #16
	.cfi_def_cfa_offset 16
	str	r0, [sp, #12]
	str	r1, [sp, #8]
	movs	r0, #0
.Ltmp155:
	.loc	4 548 14 prologue_end           @ ../../../../Library/StdDriver/src/qspi.c:548:14
	str	r0, [sp, #4]
	.loc	4 550 17                        @ ../../../../Library/StdDriver/src/qspi.c:550:17
	ldr	r0, [sp, #12]
	.loc	4 550 23 is_stmt 0              @ ../../../../Library/StdDriver/src/qspi.c:550:23
	ldr	r0, [r0, #20]
	movs	r1, #2
	.loc	4 550 30                        @ ../../../../Library/StdDriver/src/qspi.c:550:30
	ands	r0, r1
	.loc	4 550 15                        @ ../../../../Library/StdDriver/src/qspi.c:550:15
	str	r0, [sp]
	add	r0, sp, #8
.Ltmp156:
	.loc	4 553 40 is_stmt 1              @ ../../../../Library/StdDriver/src/qspi.c:553:40
	ldrb	r0, [r0]
	lsls	r0, r0, #31
	cbz	r0, .LBB11_3
	b	.LBB11_1
.LBB11_1:
	.loc	4 553 44 is_stmt 0              @ ../../../../Library/StdDriver/src/qspi.c:553:44
	ldr	r0, [sp]
.Ltmp157:
	.loc	4 553 9                         @ ../../../../Library/StdDriver/src/qspi.c:553:9
	cbz	r0, .LBB11_3
	b	.LBB11_2
.LBB11_2:
.Ltmp158:
	.loc	4 555 20 is_stmt 1              @ ../../../../Library/StdDriver/src/qspi.c:555:20
	ldr	r0, [sp, #4]
	movs	r1, #1
	orrs	r0, r1
	str	r0, [sp, #4]
	.loc	4 556 5                         @ ../../../../Library/StdDriver/src/qspi.c:556:5
	b	.LBB11_3
.Ltmp159:
.LBB11_3:
	.loc	4 558 17                        @ ../../../../Library/StdDriver/src/qspi.c:558:17
	ldr	r0, [sp, #12]
	.loc	4 558 23 is_stmt 0              @ ../../../../Library/StdDriver/src/qspi.c:558:23
	ldr	r0, [r0, #20]
	movs	r1, #4
	.loc	4 558 30                        @ ../../../../Library/StdDriver/src/qspi.c:558:30
	ands	r0, r1
	.loc	4 558 15                        @ ../../../../Library/StdDriver/src/qspi.c:558:15
	str	r0, [sp]
	add	r0, sp, #8
.Ltmp160:
	.loc	4 561 41 is_stmt 1              @ ../../../../Library/StdDriver/src/qspi.c:561:41
	ldrb	r0, [r0]
	lsls	r0, r0, #30
	cmp	r0, #0
	bpl	.LBB11_6
	b	.LBB11_4
.LBB11_4:
	.loc	4 561 45 is_stmt 0              @ ../../../../Library/StdDriver/src/qspi.c:561:45
	ldr	r0, [sp]
.Ltmp161:
	.loc	4 561 9                         @ ../../../../Library/StdDriver/src/qspi.c:561:9
	cbz	r0, .LBB11_6
	b	.LBB11_5
.LBB11_5:
.Ltmp162:
	.loc	4 563 20 is_stmt 1              @ ../../../../Library/StdDriver/src/qspi.c:563:20
	ldr	r0, [sp, #4]
	movs	r1, #2
	orrs	r0, r1
	str	r0, [sp, #4]
	.loc	4 564 5                         @ ../../../../Library/StdDriver/src/qspi.c:564:5
	b	.LBB11_6
.Ltmp163:
.LBB11_6:
	.loc	4 566 17                        @ ../../../../Library/StdDriver/src/qspi.c:566:17
	ldr	r0, [sp, #12]
	.loc	4 566 23 is_stmt 0              @ ../../../../Library/StdDriver/src/qspi.c:566:23
	ldr	r0, [r0, #20]
	movs	r1, #8
	.loc	4 566 30                        @ ../../../../Library/StdDriver/src/qspi.c:566:30
	ands	r0, r1
	.loc	4 566 15                        @ ../../../../Library/StdDriver/src/qspi.c:566:15
	str	r0, [sp]
	add	r0, sp, #8
.Ltmp164:
	.loc	4 569 43 is_stmt 1              @ ../../../../Library/StdDriver/src/qspi.c:569:43
	ldrb	r0, [r0]
	lsls	r0, r0, #29
	cmp	r0, #0
	bpl	.LBB11_9
	b	.LBB11_7
.LBB11_7:
	.loc	4 569 47 is_stmt 0              @ ../../../../Library/StdDriver/src/qspi.c:569:47
	ldr	r0, [sp]
.Ltmp165:
	.loc	4 569 9                         @ ../../../../Library/StdDriver/src/qspi.c:569:9
	cbz	r0, .LBB11_9
	b	.LBB11_8
.LBB11_8:
.Ltmp166:
	.loc	4 571 20 is_stmt 1              @ ../../../../Library/StdDriver/src/qspi.c:571:20
	ldr	r0, [sp, #4]
	movs	r1, #4
	orrs	r0, r1
	str	r0, [sp, #4]
	.loc	4 572 5                         @ ../../../../Library/StdDriver/src/qspi.c:572:5
	b	.LBB11_9
.Ltmp167:
.LBB11_9:
	.loc	4 574 17                        @ ../../../../Library/StdDriver/src/qspi.c:574:17
	ldr	r0, [sp, #12]
	.loc	4 574 23 is_stmt 0              @ ../../../../Library/StdDriver/src/qspi.c:574:23
	ldr	r0, [r0, #20]
	movs	r1, #128
	.loc	4 574 30                        @ ../../../../Library/StdDriver/src/qspi.c:574:30
	ands	r0, r1
	.loc	4 574 15                        @ ../../../../Library/StdDriver/src/qspi.c:574:15
	str	r0, [sp]
	add	r0, sp, #8
.Ltmp168:
	.loc	4 577 41 is_stmt 1              @ ../../../../Library/StdDriver/src/qspi.c:577:41
	ldrb	r0, [r0]
	lsls	r0, r0, #28
	cmp	r0, #0
	bpl	.LBB11_12
	b	.LBB11_10
.LBB11_10:
	.loc	4 577 45 is_stmt 0              @ ../../../../Library/StdDriver/src/qspi.c:577:45
	ldr	r0, [sp]
.Ltmp169:
	.loc	4 577 9                         @ ../../../../Library/StdDriver/src/qspi.c:577:9
	cbz	r0, .LBB11_12
	b	.LBB11_11
.LBB11_11:
.Ltmp170:
	.loc	4 579 20 is_stmt 1              @ ../../../../Library/StdDriver/src/qspi.c:579:20
	ldr	r0, [sp, #4]
	movs	r1, #8
	orrs	r0, r1
	str	r0, [sp, #4]
	.loc	4 580 5                         @ ../../../../Library/StdDriver/src/qspi.c:580:5
	b	.LBB11_12
.Ltmp171:
.LBB11_12:
	.loc	4 582 17                        @ ../../../../Library/StdDriver/src/qspi.c:582:17
	ldr	r0, [sp, #12]
	.loc	4 582 23 is_stmt 0              @ ../../../../Library/StdDriver/src/qspi.c:582:23
	ldr	r0, [r0, #20]
	movs	r1, #64
	.loc	4 582 30                        @ ../../../../Library/StdDriver/src/qspi.c:582:30
	ands	r0, r1
	.loc	4 582 15                        @ ../../../../Library/StdDriver/src/qspi.c:582:15
	str	r0, [sp]
	add	r0, sp, #8
.Ltmp172:
	.loc	4 585 41 is_stmt 1              @ ../../../../Library/StdDriver/src/qspi.c:585:41
	ldrb	r0, [r0]
	lsls	r0, r0, #27
	cmp	r0, #0
	bpl	.LBB11_15
	b	.LBB11_13
.LBB11_13:
	.loc	4 585 45 is_stmt 0              @ ../../../../Library/StdDriver/src/qspi.c:585:45
	ldr	r0, [sp]
.Ltmp173:
	.loc	4 585 9                         @ ../../../../Library/StdDriver/src/qspi.c:585:9
	cbz	r0, .LBB11_15
	b	.LBB11_14
.LBB11_14:
.Ltmp174:
	.loc	4 587 20 is_stmt 1              @ ../../../../Library/StdDriver/src/qspi.c:587:20
	ldr	r0, [sp, #4]
	movs	r1, #16
	orrs	r0, r1
	str	r0, [sp, #4]
	.loc	4 588 5                         @ ../../../../Library/StdDriver/src/qspi.c:588:5
	b	.LBB11_15
.Ltmp175:
.LBB11_15:
	.loc	4 590 17                        @ ../../../../Library/StdDriver/src/qspi.c:590:17
	ldr	r0, [sp, #12]
	.loc	4 590 23 is_stmt 0              @ ../../../../Library/StdDriver/src/qspi.c:590:23
	ldr	r0, [r0, #20]
	movs	r1, #32
	.loc	4 590 30                        @ ../../../../Library/StdDriver/src/qspi.c:590:30
	ands	r0, r1
	.loc	4 590 15                        @ ../../../../Library/StdDriver/src/qspi.c:590:15
	str	r0, [sp]
	add	r0, sp, #8
.Ltmp176:
	.loc	4 593 41 is_stmt 1              @ ../../../../Library/StdDriver/src/qspi.c:593:41
	ldrb	r0, [r0]
	lsls	r0, r0, #26
	cmp	r0, #0
	bpl	.LBB11_18
	b	.LBB11_16
.LBB11_16:
	.loc	4 593 45 is_stmt 0              @ ../../../../Library/StdDriver/src/qspi.c:593:45
	ldr	r0, [sp]
.Ltmp177:
	.loc	4 593 9                         @ ../../../../Library/StdDriver/src/qspi.c:593:9
	cbz	r0, .LBB11_18
	b	.LBB11_17
.LBB11_17:
.Ltmp178:
	.loc	4 595 20 is_stmt 1              @ ../../../../Library/StdDriver/src/qspi.c:595:20
	ldr	r0, [sp, #4]
	movs	r1, #32
	orrs	r0, r1
	str	r0, [sp, #4]
	.loc	4 596 5                         @ ../../../../Library/StdDriver/src/qspi.c:596:5
	b	.LBB11_18
.Ltmp179:
.LBB11_18:
	.loc	4 598 17                        @ ../../../../Library/StdDriver/src/qspi.c:598:17
	ldr	r0, [sp, #12]
	.loc	4 598 23 is_stmt 0              @ ../../../../Library/StdDriver/src/qspi.c:598:23
	ldr	r0, [r0, #20]
	movs	r1, #1
	lsls	r1, r1, #19
	.loc	4 598 30                        @ ../../../../Library/StdDriver/src/qspi.c:598:30
	ands	r0, r1
	.loc	4 598 15                        @ ../../../../Library/StdDriver/src/qspi.c:598:15
	str	r0, [sp]
	add	r0, sp, #8
.Ltmp180:
	.loc	4 601 40 is_stmt 1              @ ../../../../Library/StdDriver/src/qspi.c:601:40
	ldrb	r0, [r0]
	lsls	r0, r0, #25
	cmp	r0, #0
	bpl	.LBB11_21
	b	.LBB11_19
.LBB11_19:
	.loc	4 601 44 is_stmt 0              @ ../../../../Library/StdDriver/src/qspi.c:601:44
	ldr	r0, [sp]
.Ltmp181:
	.loc	4 601 9                         @ ../../../../Library/StdDriver/src/qspi.c:601:9
	cbz	r0, .LBB11_21
	b	.LBB11_20
.LBB11_20:
.Ltmp182:
	.loc	4 603 20 is_stmt 1              @ ../../../../Library/StdDriver/src/qspi.c:603:20
	ldr	r0, [sp, #4]
	movs	r1, #64
	orrs	r0, r1
	str	r0, [sp, #4]
	.loc	4 604 5                         @ ../../../../Library/StdDriver/src/qspi.c:604:5
	b	.LBB11_21
.Ltmp183:
.LBB11_21:
	.loc	4 606 17                        @ ../../../../Library/StdDriver/src/qspi.c:606:17
	ldr	r0, [sp, #12]
	.loc	4 606 23 is_stmt 0              @ ../../../../Library/StdDriver/src/qspi.c:606:23
	ldr	r0, [r0, #20]
	movs	r1, #1
	lsls	r1, r1, #18
	.loc	4 606 30                        @ ../../../../Library/StdDriver/src/qspi.c:606:30
	ands	r0, r1
	.loc	4 606 15                        @ ../../../../Library/StdDriver/src/qspi.c:606:15
	str	r0, [sp]
	add	r0, sp, #8
.Ltmp184:
	.loc	4 609 45 is_stmt 1              @ ../../../../Library/StdDriver/src/qspi.c:609:45
	ldrb	r0, [r0]
	lsls	r0, r0, #24
	cmp	r0, #0
	bpl	.LBB11_24
	b	.LBB11_22
.LBB11_22:
	.loc	4 609 49 is_stmt 0              @ ../../../../Library/StdDriver/src/qspi.c:609:49
	ldr	r0, [sp]
.Ltmp185:
	.loc	4 609 9                         @ ../../../../Library/StdDriver/src/qspi.c:609:9
	cbz	r0, .LBB11_24
	b	.LBB11_23
.LBB11_23:
.Ltmp186:
	.loc	4 611 20 is_stmt 1              @ ../../../../Library/StdDriver/src/qspi.c:611:20
	ldr	r0, [sp, #4]
	movs	r1, #128
	orrs	r0, r1
	str	r0, [sp, #4]
	.loc	4 612 5                         @ ../../../../Library/StdDriver/src/qspi.c:612:5
	b	.LBB11_24
.Ltmp187:
.LBB11_24:
	.loc	4 614 17                        @ ../../../../Library/StdDriver/src/qspi.c:614:17
	ldr	r0, [sp, #12]
	.loc	4 614 23 is_stmt 0              @ ../../../../Library/StdDriver/src/qspi.c:614:23
	ldr	r0, [r0, #20]
	movw	r1, #1024
	.loc	4 614 30                        @ ../../../../Library/StdDriver/src/qspi.c:614:30
	ands	r0, r1
	.loc	4 614 15                        @ ../../../../Library/StdDriver/src/qspi.c:614:15
	str	r0, [sp]
	add	r0, sp, #8
.Ltmp188:
	.loc	4 617 45 is_stmt 1              @ ../../../../Library/StdDriver/src/qspi.c:617:45
	ldrb	r0, [r0, #1]
	lsls	r0, r0, #31
	cbz	r0, .LBB11_27
	b	.LBB11_25
.LBB11_25:
	.loc	4 617 49 is_stmt 0              @ ../../../../Library/StdDriver/src/qspi.c:617:49
	ldr	r0, [sp]
.Ltmp189:
	.loc	4 617 9                         @ ../../../../Library/StdDriver/src/qspi.c:617:9
	cbz	r0, .LBB11_27
	b	.LBB11_26
.LBB11_26:
.Ltmp190:
	.loc	4 619 20 is_stmt 1              @ ../../../../Library/StdDriver/src/qspi.c:619:20
	ldr	r0, [sp, #4]
	movw	r1, #256
	orrs	r0, r1
	str	r0, [sp, #4]
	.loc	4 620 5                         @ ../../../../Library/StdDriver/src/qspi.c:620:5
	b	.LBB11_27
.Ltmp191:
.LBB11_27:
	.loc	4 622 17                        @ ../../../../Library/StdDriver/src/qspi.c:622:17
	ldr	r0, [sp, #12]
	.loc	4 622 23 is_stmt 0              @ ../../../../Library/StdDriver/src/qspi.c:622:23
	ldr	r0, [r0, #20]
	movw	r1, #2048
	.loc	4 622 30                        @ ../../../../Library/StdDriver/src/qspi.c:622:30
	ands	r0, r1
	.loc	4 622 15                        @ ../../../../Library/StdDriver/src/qspi.c:622:15
	str	r0, [sp]
	add	r0, sp, #8
.Ltmp192:
	.loc	4 625 45 is_stmt 1              @ ../../../../Library/StdDriver/src/qspi.c:625:45
	ldrb	r0, [r0, #1]
	lsls	r0, r0, #30
	cmp	r0, #0
	bpl	.LBB11_30
	b	.LBB11_28
.LBB11_28:
	.loc	4 625 49 is_stmt 0              @ ../../../../Library/StdDriver/src/qspi.c:625:49
	ldr	r0, [sp]
.Ltmp193:
	.loc	4 625 9                         @ ../../../../Library/StdDriver/src/qspi.c:625:9
	cbz	r0, .LBB11_30
	b	.LBB11_29
.LBB11_29:
.Ltmp194:
	.loc	4 627 20 is_stmt 1              @ ../../../../Library/StdDriver/src/qspi.c:627:20
	ldr	r0, [sp, #4]
	movw	r1, #512
	orrs	r0, r1
	str	r0, [sp, #4]
	.loc	4 628 5                         @ ../../../../Library/StdDriver/src/qspi.c:628:5
	b	.LBB11_30
.Ltmp195:
.LBB11_30:
	.loc	4 630 17                        @ ../../../../Library/StdDriver/src/qspi.c:630:17
	ldr	r0, [sp, #12]
	.loc	4 630 23 is_stmt 0              @ ../../../../Library/StdDriver/src/qspi.c:630:23
	ldr	r0, [r0, #20]
	movw	r1, #4096
	.loc	4 630 30                        @ ../../../../Library/StdDriver/src/qspi.c:630:30
	ands	r0, r1
	.loc	4 630 15                        @ ../../../../Library/StdDriver/src/qspi.c:630:15
	str	r0, [sp]
	add	r0, sp, #8
.Ltmp196:
	.loc	4 633 45 is_stmt 1              @ ../../../../Library/StdDriver/src/qspi.c:633:45
	ldrb	r0, [r0, #1]
	lsls	r0, r0, #29
	cmp	r0, #0
	bpl	.LBB11_33
	b	.LBB11_31
.LBB11_31:
	.loc	4 633 49 is_stmt 0              @ ../../../../Library/StdDriver/src/qspi.c:633:49
	ldr	r0, [sp]
.Ltmp197:
	.loc	4 633 9                         @ ../../../../Library/StdDriver/src/qspi.c:633:9
	cbz	r0, .LBB11_33
	b	.LBB11_32
.LBB11_32:
.Ltmp198:
	.loc	4 635 20 is_stmt 1              @ ../../../../Library/StdDriver/src/qspi.c:635:20
	ldr	r0, [sp, #4]
	movw	r1, #1024
	orrs	r0, r1
	str	r0, [sp, #4]
	.loc	4 636 5                         @ ../../../../Library/StdDriver/src/qspi.c:636:5
	b	.LBB11_33
.Ltmp199:
.LBB11_33:
	.loc	4 638 12                        @ ../../../../Library/StdDriver/src/qspi.c:638:12
	ldr	r0, [sp, #4]
	.loc	4 638 5 is_stmt 0               @ ../../../../Library/StdDriver/src/qspi.c:638:5
	add	sp, #16
	bx	lr
.Ltmp200:
.Lfunc_end11:
	.size	QSPI_GetIntFlag, .Lfunc_end11-QSPI_GetIntFlag
	.cfi_endproc
	.cantunwind
	.fnend
                                        @ -- End function
	.section	.text.QSPI_ClearIntFlag,"ax",%progbits
	.hidden	QSPI_ClearIntFlag               @ -- Begin function QSPI_ClearIntFlag
	.globl	QSPI_ClearIntFlag
	.p2align	1
	.type	QSPI_ClearIntFlag,%function
	.code	16                              @ @QSPI_ClearIntFlag
	.thumb_func
QSPI_ClearIntFlag:
.Lfunc_begin12:
	.loc	4 660 0 is_stmt 1               @ ../../../../Library/StdDriver/src/qspi.c:660:0
	.fnstart
	.cfi_startproc
@ %bb.0:
	.pad	#8
	sub	sp, #8
	.cfi_def_cfa_offset 8
	str	r0, [sp, #4]
	str	r1, [sp]
	mov	r0, sp
.Ltmp201:
	.loc	4 661 9 prologue_end            @ ../../../../Library/StdDriver/src/qspi.c:661:9
	ldrb	r0, [r0]
	lsls	r0, r0, #31
	cbz	r0, .LBB12_2
	b	.LBB12_1
.LBB12_1:
.Ltmp202:
	.loc	4 663 9                         @ ../../../../Library/StdDriver/src/qspi.c:663:9
	ldr	r1, [sp, #4]
	movs	r0, #2
	.loc	4 663 22 is_stmt 0              @ ../../../../Library/StdDriver/src/qspi.c:663:22
	str	r0, [r1, #20]
	.loc	4 664 5 is_stmt 1               @ ../../../../Library/StdDriver/src/qspi.c:664:5
	b	.LBB12_2
.Ltmp203:
.LBB12_2:
	.loc	4 0 5 is_stmt 0                 @ ../../../../Library/StdDriver/src/qspi.c:0:5
	mov	r0, sp
	.loc	4 666 9 is_stmt 1               @ ../../../../Library/StdDriver/src/qspi.c:666:9
	ldrb	r0, [r0]
	lsls	r0, r0, #30
	cmp	r0, #0
	bpl	.LBB12_4
	b	.LBB12_3
.LBB12_3:
.Ltmp204:
	.loc	4 668 9                         @ ../../../../Library/StdDriver/src/qspi.c:668:9
	ldr	r1, [sp, #4]
	movs	r0, #4
	.loc	4 668 22 is_stmt 0              @ ../../../../Library/StdDriver/src/qspi.c:668:22
	str	r0, [r1, #20]
	.loc	4 669 5 is_stmt 1               @ ../../../../Library/StdDriver/src/qspi.c:669:5
	b	.LBB12_4
.Ltmp205:
.LBB12_4:
	.loc	4 0 5 is_stmt 0                 @ ../../../../Library/StdDriver/src/qspi.c:0:5
	mov	r0, sp
	.loc	4 671 9 is_stmt 1               @ ../../../../Library/StdDriver/src/qspi.c:671:9
	ldrb	r0, [r0]
	lsls	r0, r0, #29
	cmp	r0, #0
	bpl	.LBB12_6
	b	.LBB12_5
.LBB12_5:
.Ltmp206:
	.loc	4 673 9                         @ ../../../../Library/StdDriver/src/qspi.c:673:9
	ldr	r1, [sp, #4]
	movs	r0, #8
	.loc	4 673 22 is_stmt 0              @ ../../../../Library/StdDriver/src/qspi.c:673:22
	str	r0, [r1, #20]
	.loc	4 674 5 is_stmt 1               @ ../../../../Library/StdDriver/src/qspi.c:674:5
	b	.LBB12_6
.Ltmp207:
.LBB12_6:
	.loc	4 0 5 is_stmt 0                 @ ../../../../Library/StdDriver/src/qspi.c:0:5
	mov	r0, sp
	.loc	4 676 9 is_stmt 1               @ ../../../../Library/StdDriver/src/qspi.c:676:9
	ldrb	r0, [r0]
	lsls	r0, r0, #28
	cmp	r0, #0
	bpl	.LBB12_8
	b	.LBB12_7
.LBB12_7:
.Ltmp208:
	.loc	4 678 9                         @ ../../../../Library/StdDriver/src/qspi.c:678:9
	ldr	r1, [sp, #4]
	movs	r0, #128
	.loc	4 678 22 is_stmt 0              @ ../../../../Library/StdDriver/src/qspi.c:678:22
	str	r0, [r1, #20]
	.loc	4 679 5 is_stmt 1               @ ../../../../Library/StdDriver/src/qspi.c:679:5
	b	.LBB12_8
.Ltmp209:
.LBB12_8:
	.loc	4 0 5 is_stmt 0                 @ ../../../../Library/StdDriver/src/qspi.c:0:5
	mov	r0, sp
	.loc	4 681 9 is_stmt 1               @ ../../../../Library/StdDriver/src/qspi.c:681:9
	ldrb	r0, [r0]
	lsls	r0, r0, #27
	cmp	r0, #0
	bpl	.LBB12_10
	b	.LBB12_9
.LBB12_9:
.Ltmp210:
	.loc	4 683 9                         @ ../../../../Library/StdDriver/src/qspi.c:683:9
	ldr	r1, [sp, #4]
	movs	r0, #64
	.loc	4 683 22 is_stmt 0              @ ../../../../Library/StdDriver/src/qspi.c:683:22
	str	r0, [r1, #20]
	.loc	4 684 5 is_stmt 1               @ ../../../../Library/StdDriver/src/qspi.c:684:5
	b	.LBB12_10
.Ltmp211:
.LBB12_10:
	.loc	4 0 5 is_stmt 0                 @ ../../../../Library/StdDriver/src/qspi.c:0:5
	mov	r0, sp
	.loc	4 686 9 is_stmt 1               @ ../../../../Library/StdDriver/src/qspi.c:686:9
	ldrb	r0, [r0]
	lsls	r0, r0, #26
	cmp	r0, #0
	bpl	.LBB12_12
	b	.LBB12_11
.LBB12_11:
.Ltmp212:
	.loc	4 688 9                         @ ../../../../Library/StdDriver/src/qspi.c:688:9
	ldr	r1, [sp, #4]
	movs	r0, #32
	.loc	4 688 22 is_stmt 0              @ ../../../../Library/StdDriver/src/qspi.c:688:22
	str	r0, [r1, #20]
	.loc	4 689 5 is_stmt 1               @ ../../../../Library/StdDriver/src/qspi.c:689:5
	b	.LBB12_12
.Ltmp213:
.LBB12_12:
	.loc	4 0 5 is_stmt 0                 @ ../../../../Library/StdDriver/src/qspi.c:0:5
	mov	r0, sp
	.loc	4 691 9 is_stmt 1               @ ../../../../Library/StdDriver/src/qspi.c:691:9
	ldrb	r0, [r0]
	lsls	r0, r0, #25
	cmp	r0, #0
	bpl	.LBB12_14
	b	.LBB12_13
.LBB12_13:
.Ltmp214:
	.loc	4 693 9                         @ ../../../../Library/StdDriver/src/qspi.c:693:9
	ldr	r1, [sp, #4]
	movs	r0, #1
	lsls	r0, r0, #19
	.loc	4 693 22 is_stmt 0              @ ../../../../Library/StdDriver/src/qspi.c:693:22
	str	r0, [r1, #20]
	.loc	4 694 5 is_stmt 1               @ ../../../../Library/StdDriver/src/qspi.c:694:5
	b	.LBB12_14
.Ltmp215:
.LBB12_14:
	.loc	4 0 5 is_stmt 0                 @ ../../../../Library/StdDriver/src/qspi.c:0:5
	mov	r0, sp
	.loc	4 696 9 is_stmt 1               @ ../../../../Library/StdDriver/src/qspi.c:696:9
	ldrb	r0, [r0, #1]
	lsls	r0, r0, #30
	cmp	r0, #0
	bpl	.LBB12_16
	b	.LBB12_15
.LBB12_15:
.Ltmp216:
	.loc	4 698 9                         @ ../../../../Library/StdDriver/src/qspi.c:698:9
	ldr	r1, [sp, #4]
	movw	r0, #2048
	.loc	4 698 22 is_stmt 0              @ ../../../../Library/StdDriver/src/qspi.c:698:22
	str	r0, [r1, #20]
	.loc	4 699 5 is_stmt 1               @ ../../../../Library/StdDriver/src/qspi.c:699:5
	b	.LBB12_16
.Ltmp217:
.LBB12_16:
	.loc	4 0 5 is_stmt 0                 @ ../../../../Library/StdDriver/src/qspi.c:0:5
	mov	r0, sp
	.loc	4 701 9 is_stmt 1               @ ../../../../Library/StdDriver/src/qspi.c:701:9
	ldrb	r0, [r0, #1]
	lsls	r0, r0, #29
	cmp	r0, #0
	bpl	.LBB12_18
	b	.LBB12_17
.LBB12_17:
.Ltmp218:
	.loc	4 703 9                         @ ../../../../Library/StdDriver/src/qspi.c:703:9
	ldr	r1, [sp, #4]
	movw	r0, #4096
	.loc	4 703 22 is_stmt 0              @ ../../../../Library/StdDriver/src/qspi.c:703:22
	str	r0, [r1, #20]
	.loc	4 704 5 is_stmt 1               @ ../../../../Library/StdDriver/src/qspi.c:704:5
	b	.LBB12_18
.Ltmp219:
.LBB12_18:
	.loc	4 705 1                         @ ../../../../Library/StdDriver/src/qspi.c:705:1
	add	sp, #8
	bx	lr
.Ltmp220:
.Lfunc_end12:
	.size	QSPI_ClearIntFlag, .Lfunc_end12-QSPI_ClearIntFlag
	.cfi_endproc
	.cantunwind
	.fnend
                                        @ -- End function
	.section	.text.QSPI_GetStatus,"ax",%progbits
	.hidden	QSPI_GetStatus                  @ -- Begin function QSPI_GetStatus
	.globl	QSPI_GetStatus
	.p2align	1
	.type	QSPI_GetStatus,%function
	.code	16                              @ @QSPI_GetStatus
	.thumb_func
QSPI_GetStatus:
.Lfunc_begin13:
	.loc	4 726 0                         @ ../../../../Library/StdDriver/src/qspi.c:726:0
	.fnstart
	.cfi_startproc
@ %bb.0:
	.pad	#16
	sub	sp, #16
	.cfi_def_cfa_offset 16
	str	r0, [sp, #12]
	str	r1, [sp, #8]
	movs	r0, #0
.Ltmp221:
	.loc	4 727 14 prologue_end           @ ../../../../Library/StdDriver/src/qspi.c:727:14
	str	r0, [sp, #4]
	.loc	4 729 19                        @ ../../../../Library/StdDriver/src/qspi.c:729:19
	ldr	r0, [sp, #12]
	.loc	4 729 25 is_stmt 0              @ ../../../../Library/StdDriver/src/qspi.c:729:25
	ldr	r0, [r0, #20]
	movs	r1, #1
	.loc	4 729 32                        @ ../../../../Library/StdDriver/src/qspi.c:729:32
	ands	r0, r1
	.loc	4 729 17                        @ ../../../../Library/StdDriver/src/qspi.c:729:17
	str	r0, [sp]
	add	r0, sp, #8
.Ltmp222:
	.loc	4 732 36 is_stmt 1              @ ../../../../Library/StdDriver/src/qspi.c:732:36
	ldrb	r0, [r0]
	lsls	r0, r0, #31
	cbz	r0, .LBB13_3
	b	.LBB13_1
.LBB13_1:
	.loc	4 732 40 is_stmt 0              @ ../../../../Library/StdDriver/src/qspi.c:732:40
	ldr	r0, [sp]
.Ltmp223:
	.loc	4 732 9                         @ ../../../../Library/StdDriver/src/qspi.c:732:9
	cbz	r0, .LBB13_3
	b	.LBB13_2
.LBB13_2:
.Ltmp224:
	.loc	4 734 17 is_stmt 1              @ ../../../../Library/StdDriver/src/qspi.c:734:17
	ldr	r0, [sp, #4]
	movs	r1, #1
	orrs	r0, r1
	str	r0, [sp, #4]
	.loc	4 735 5                         @ ../../../../Library/StdDriver/src/qspi.c:735:5
	b	.LBB13_3
.Ltmp225:
.LBB13_3:
	.loc	4 737 19                        @ ../../../../Library/StdDriver/src/qspi.c:737:19
	ldr	r0, [sp, #12]
	.loc	4 737 25 is_stmt 0              @ ../../../../Library/StdDriver/src/qspi.c:737:25
	ldr	r0, [r0, #20]
	movw	r1, #256
	.loc	4 737 32                        @ ../../../../Library/StdDriver/src/qspi.c:737:32
	ands	r0, r1
	.loc	4 737 17                        @ ../../../../Library/StdDriver/src/qspi.c:737:17
	str	r0, [sp]
	add	r0, sp, #8
.Ltmp226:
	.loc	4 740 40 is_stmt 1              @ ../../../../Library/StdDriver/src/qspi.c:740:40
	ldrb	r0, [r0]
	lsls	r0, r0, #30
	cmp	r0, #0
	bpl	.LBB13_6
	b	.LBB13_4
.LBB13_4:
	.loc	4 740 44 is_stmt 0              @ ../../../../Library/StdDriver/src/qspi.c:740:44
	ldr	r0, [sp]
.Ltmp227:
	.loc	4 740 9                         @ ../../../../Library/StdDriver/src/qspi.c:740:9
	cbz	r0, .LBB13_6
	b	.LBB13_5
.LBB13_5:
.Ltmp228:
	.loc	4 742 17 is_stmt 1              @ ../../../../Library/StdDriver/src/qspi.c:742:17
	ldr	r0, [sp, #4]
	movs	r1, #2
	orrs	r0, r1
	str	r0, [sp, #4]
	.loc	4 743 5                         @ ../../../../Library/StdDriver/src/qspi.c:743:5
	b	.LBB13_6
.Ltmp229:
.LBB13_6:
	.loc	4 745 19                        @ ../../../../Library/StdDriver/src/qspi.c:745:19
	ldr	r0, [sp, #12]
	.loc	4 745 25 is_stmt 0              @ ../../../../Library/StdDriver/src/qspi.c:745:25
	ldr	r0, [r0, #20]
	movw	r1, #512
	.loc	4 745 32                        @ ../../../../Library/StdDriver/src/qspi.c:745:32
	ands	r0, r1
	.loc	4 745 17                        @ ../../../../Library/StdDriver/src/qspi.c:745:17
	str	r0, [sp]
	add	r0, sp, #8
.Ltmp230:
	.loc	4 748 39 is_stmt 1              @ ../../../../Library/StdDriver/src/qspi.c:748:39
	ldrb	r0, [r0]
	lsls	r0, r0, #29
	cmp	r0, #0
	bpl	.LBB13_9
	b	.LBB13_7
.LBB13_7:
	.loc	4 748 43 is_stmt 0              @ ../../../../Library/StdDriver/src/qspi.c:748:43
	ldr	r0, [sp]
.Ltmp231:
	.loc	4 748 9                         @ ../../../../Library/StdDriver/src/qspi.c:748:9
	cbz	r0, .LBB13_9
	b	.LBB13_8
.LBB13_8:
.Ltmp232:
	.loc	4 750 17 is_stmt 1              @ ../../../../Library/StdDriver/src/qspi.c:750:17
	ldr	r0, [sp, #4]
	movs	r1, #4
	orrs	r0, r1
	str	r0, [sp, #4]
	.loc	4 751 5                         @ ../../../../Library/StdDriver/src/qspi.c:751:5
	b	.LBB13_9
.Ltmp233:
.LBB13_9:
	.loc	4 753 19                        @ ../../../../Library/StdDriver/src/qspi.c:753:19
	ldr	r0, [sp, #12]
	.loc	4 753 25 is_stmt 0              @ ../../../../Library/StdDriver/src/qspi.c:753:25
	ldr	r0, [r0, #20]
	movs	r1, #1
	lsls	r1, r1, #16
	.loc	4 753 32                        @ ../../../../Library/StdDriver/src/qspi.c:753:32
	ands	r0, r1
	.loc	4 753 17                        @ ../../../../Library/StdDriver/src/qspi.c:753:17
	str	r0, [sp]
	add	r0, sp, #8
.Ltmp234:
	.loc	4 756 40 is_stmt 1              @ ../../../../Library/StdDriver/src/qspi.c:756:40
	ldrb	r0, [r0]
	lsls	r0, r0, #28
	cmp	r0, #0
	bpl	.LBB13_12
	b	.LBB13_10
.LBB13_10:
	.loc	4 756 44 is_stmt 0              @ ../../../../Library/StdDriver/src/qspi.c:756:44
	ldr	r0, [sp]
.Ltmp235:
	.loc	4 756 9                         @ ../../../../Library/StdDriver/src/qspi.c:756:9
	cbz	r0, .LBB13_12
	b	.LBB13_11
.LBB13_11:
.Ltmp236:
	.loc	4 758 17 is_stmt 1              @ ../../../../Library/StdDriver/src/qspi.c:758:17
	ldr	r0, [sp, #4]
	movs	r1, #8
	orrs	r0, r1
	str	r0, [sp, #4]
	.loc	4 759 5                         @ ../../../../Library/StdDriver/src/qspi.c:759:5
	b	.LBB13_12
.Ltmp237:
.LBB13_12:
	.loc	4 761 19                        @ ../../../../Library/StdDriver/src/qspi.c:761:19
	ldr	r0, [sp, #12]
	.loc	4 761 25 is_stmt 0              @ ../../../../Library/StdDriver/src/qspi.c:761:25
	ldr	r0, [r0, #20]
	movs	r1, #1
	lsls	r1, r1, #17
	.loc	4 761 32                        @ ../../../../Library/StdDriver/src/qspi.c:761:32
	ands	r0, r1
	.loc	4 761 17                        @ ../../../../Library/StdDriver/src/qspi.c:761:17
	str	r0, [sp]
	add	r0, sp, #8
.Ltmp238:
	.loc	4 764 39 is_stmt 1              @ ../../../../Library/StdDriver/src/qspi.c:764:39
	ldrb	r0, [r0]
	lsls	r0, r0, #27
	cmp	r0, #0
	bpl	.LBB13_15
	b	.LBB13_13
.LBB13_13:
	.loc	4 764 43 is_stmt 0              @ ../../../../Library/StdDriver/src/qspi.c:764:43
	ldr	r0, [sp]
.Ltmp239:
	.loc	4 764 9                         @ ../../../../Library/StdDriver/src/qspi.c:764:9
	cbz	r0, .LBB13_15
	b	.LBB13_14
.LBB13_14:
.Ltmp240:
	.loc	4 766 17 is_stmt 1              @ ../../../../Library/StdDriver/src/qspi.c:766:17
	ldr	r0, [sp, #4]
	movs	r1, #16
	orrs	r0, r1
	str	r0, [sp, #4]
	.loc	4 767 5                         @ ../../../../Library/StdDriver/src/qspi.c:767:5
	b	.LBB13_15
.Ltmp241:
.LBB13_15:
	.loc	4 769 19                        @ ../../../../Library/StdDriver/src/qspi.c:769:19
	ldr	r0, [sp, #12]
	.loc	4 769 25 is_stmt 0              @ ../../../../Library/StdDriver/src/qspi.c:769:25
	ldr	r0, [r0, #20]
	movs	r1, #1
	lsls	r1, r1, #23
	.loc	4 769 32                        @ ../../../../Library/StdDriver/src/qspi.c:769:32
	ands	r0, r1
	.loc	4 769 17                        @ ../../../../Library/StdDriver/src/qspi.c:769:17
	str	r0, [sp]
	add	r0, sp, #8
.Ltmp242:
	.loc	4 772 42 is_stmt 1              @ ../../../../Library/StdDriver/src/qspi.c:772:42
	ldrb	r0, [r0]
	lsls	r0, r0, #26
	cmp	r0, #0
	bpl	.LBB13_18
	b	.LBB13_16
.LBB13_16:
	.loc	4 772 46 is_stmt 0              @ ../../../../Library/StdDriver/src/qspi.c:772:46
	ldr	r0, [sp]
.Ltmp243:
	.loc	4 772 9                         @ ../../../../Library/StdDriver/src/qspi.c:772:9
	cbz	r0, .LBB13_18
	b	.LBB13_17
.LBB13_17:
.Ltmp244:
	.loc	4 774 17 is_stmt 1              @ ../../../../Library/StdDriver/src/qspi.c:774:17
	ldr	r0, [sp, #4]
	movs	r1, #32
	orrs	r0, r1
	str	r0, [sp, #4]
	.loc	4 775 5                         @ ../../../../Library/StdDriver/src/qspi.c:775:5
	b	.LBB13_18
.Ltmp245:
.LBB13_18:
	.loc	4 777 19                        @ ../../../../Library/StdDriver/src/qspi.c:777:19
	ldr	r0, [sp, #12]
	.loc	4 777 25 is_stmt 0              @ ../../../../Library/StdDriver/src/qspi.c:777:25
	ldr	r0, [r0, #20]
	movw	r1, #32768
	.loc	4 777 32                        @ ../../../../Library/StdDriver/src/qspi.c:777:32
	ands	r0, r1
	.loc	4 777 17                        @ ../../../../Library/StdDriver/src/qspi.c:777:17
	str	r0, [sp]
	add	r0, sp, #8
.Ltmp246:
	.loc	4 780 42 is_stmt 1              @ ../../../../Library/StdDriver/src/qspi.c:780:42
	ldrb	r0, [r0]
	lsls	r0, r0, #25
	cmp	r0, #0
	bpl	.LBB13_21
	b	.LBB13_19
.LBB13_19:
	.loc	4 780 46 is_stmt 0              @ ../../../../Library/StdDriver/src/qspi.c:780:46
	ldr	r0, [sp]
.Ltmp247:
	.loc	4 780 9                         @ ../../../../Library/StdDriver/src/qspi.c:780:9
	cbz	r0, .LBB13_21
	b	.LBB13_20
.LBB13_20:
.Ltmp248:
	.loc	4 782 17 is_stmt 1              @ ../../../../Library/StdDriver/src/qspi.c:782:17
	ldr	r0, [sp, #4]
	movs	r1, #64
	orrs	r0, r1
	str	r0, [sp, #4]
	.loc	4 783 5                         @ ../../../../Library/StdDriver/src/qspi.c:783:5
	b	.LBB13_21
.Ltmp249:
.LBB13_21:
	.loc	4 785 19                        @ ../../../../Library/StdDriver/src/qspi.c:785:19
	ldr	r0, [sp, #12]
	.loc	4 785 25 is_stmt 0              @ ../../../../Library/StdDriver/src/qspi.c:785:25
	ldr	r0, [r0, #20]
	movs	r1, #16
	.loc	4 785 32                        @ ../../../../Library/StdDriver/src/qspi.c:785:32
	ands	r0, r1
	.loc	4 785 17                        @ ../../../../Library/StdDriver/src/qspi.c:785:17
	str	r0, [sp]
	add	r0, sp, #8
.Ltmp250:
	.loc	4 788 42 is_stmt 1              @ ../../../../Library/StdDriver/src/qspi.c:788:42
	ldrb	r0, [r0]
	lsls	r0, r0, #24
	cmp	r0, #0
	bpl	.LBB13_24
	b	.LBB13_22
.LBB13_22:
	.loc	4 788 46 is_stmt 0              @ ../../../../Library/StdDriver/src/qspi.c:788:46
	ldr	r0, [sp]
.Ltmp251:
	.loc	4 788 9                         @ ../../../../Library/StdDriver/src/qspi.c:788:9
	cbz	r0, .LBB13_24
	b	.LBB13_23
.LBB13_23:
.Ltmp252:
	.loc	4 790 17 is_stmt 1              @ ../../../../Library/StdDriver/src/qspi.c:790:17
	ldr	r0, [sp, #4]
	movs	r1, #128
	orrs	r0, r1
	str	r0, [sp, #4]
	.loc	4 791 5                         @ ../../../../Library/StdDriver/src/qspi.c:791:5
	b	.LBB13_24
.Ltmp253:
.LBB13_24:
	.loc	4 793 12                        @ ../../../../Library/StdDriver/src/qspi.c:793:12
	ldr	r0, [sp, #4]
	.loc	4 793 5 is_stmt 0               @ ../../../../Library/StdDriver/src/qspi.c:793:5
	add	sp, #16
	bx	lr
.Ltmp254:
.Lfunc_end13:
	.size	QSPI_GetStatus, .Lfunc_end13-QSPI_GetStatus
	.cfi_endproc
	.cantunwind
	.fnend
                                        @ -- End function
	.file	5 "E:\\ROBOCON2024\\01. Coding\\Nuvoton\\demo_robot_3wheel\\SampleCode\\NuCodeGen\\DemoCodeGen\\KEIL" "../../../../Library/Device/Nuvoton/M251/Include/qspi_reg.h"
	.section	".note.GNU-stack","",%progbits
	.eabi_attribute	30, 6	@ Tag_ABI_optimization_goals
	.ARM_attribute	16, 1	@ Tag_AV_eba