	.text
	.syntax unified
	.eabi_attribute	67, "2.09"	@ Tag_conformance
	.cpu	cortex-m23
	.eabi_attribute	6, 16	@ Tag_CPU_arch
	.eabi_attribute	7, 77	@ Tag_CPU_arch_profile
	.eabi_attribute	8, 0	@ Tag_ARM_ISA_use
	.eabi_attribute	9, 3	@ Tag_THUMB_ISA_use
	.eabi_attribute	34, 0	@ Tag_CPU_unaligned_access
	.eabi_attribute	17, 1	@ Tag_ABI_PCS_GOT_use
	.eabi_attribute	20, 2	@ Tag_ABI_FP_denormal
	.eabi_attribute	21, 0	@ Tag_ABI_FP_exceptions
	.eabi_attribute	23, 1	@ Tag_ABI_FP_number_model
	.eabi_attribute	24, 1	@ Tag_ABI_align_needed
	.eabi_attribute	25, 1	@ Tag_ABI_align_preserved
	.eabi_attribute	38, 1	@ Tag_ABI_FP_16bit_format
	.eabi_attribute	18, 2	@ Tag_ABI_PCS_wchar_t
	.eabi_attribute	26, 1	@ Tag_ABI_enum_size
	.eabi_attribute	14, 0	@ Tag_ABI_PCS_R9_use
	.file	"retarget.c"
	.file	1 "E:\\ROBOCON2024\\01. Coding\\Nuvoton\\demo_robot_3wheel\\SampleCode\\NuCodeGen\\DemoCodeGen\\KEIL" "../../../../Library/StdDriver/src/retarget.c"
	.file	2 "C:\\Keil_v5\\ARM\\ARMCLANG\\Bin\\..\\include" "stdio.h"
	.file	3 "C:\\Keil_v5\\ARM\\ARMCLANG\\Bin\\..\\include" "stdint.h"
	.file	4 "E:\\ROBOCON2024\\01. Coding\\Nuvoton\\demo_robot_3wheel\\SampleCode\\NuCodeGen\\DemoCodeGen\\KEIL" "../../../../Library/Device/Nuvoton/M251/Include/M251.h"
	.file	5 "E:\\ROBOCON2024\\01. Coding\\Nuvoton\\demo_robot_3wheel\\SampleCode\\NuCodeGen\\DemoCodeGen\\KEIL" "../../../../Library/Device/Nuvoton/M251/Include/uart_reg.h"
	.section	.text.SH_Return,"ax",%progbits
	.hidden	SH_Return                       @ -- Begin function SH_Return
	.globl	SH_Return
	.p2align	1
	.type	SH_Return,%function
	.code	16                              @ @SH_Return
	.thumb_func
SH_Return:
.Lfunc_begin0:
	.loc	1 173 0                         @ ../../../../Library/StdDriver/src/retarget.c:173:0
	.fnstart
	.cfi_sections .debug_frame
	.cfi_startproc
@ %bb.0:
	.pad	#12
	sub	sp, #12
	.cfi_def_cfa_offset 12
	str	r0, [sp, #8]
	str	r1, [sp, #4]
	str	r2, [sp]
	movs	r0, #0
.Ltmp0:
	.loc	1 174 5 prologue_end            @ ../../../../Library/StdDriver/src/retarget.c:174:5
	add	sp, #12
	bx	lr
.Ltmp1:
.Lfunc_end0:
	.size	SH_Return, .Lfunc_end0-SH_Return
	.cfi_endproc
	.cantunwind
	.fnend
                                        @ -- End function
	.section	.text.ProcessHardFault,"ax",%progbits
	.hidden	ProcessHardFault                @ -- Begin function ProcessHardFault
	.weak	ProcessHardFault
	.p2align	2
	.type	ProcessHardFault,%function
	.code	16                              @ @ProcessHardFault
	.thumb_func
ProcessHardFault:
.Lfunc_begin1:
	.loc	1 187 0                         @ ../../../../Library/StdDriver/src/retarget.c:187:0
	.fnstart
	.cfi_startproc
@ %bb.0:
	.save	{r7, lr}
	push	{r7, lr}
	.cfi_def_cfa_offset 8
	.cfi_offset lr, -4
	.cfi_offset r7, -8
	.pad	#24
	sub	sp, #24
	.cfi_def_cfa_offset 32
	str	r0, [sp, #16]
	str	r1, [sp, #12]
	str	r2, [sp, #8]
	add	r0, sp, #16
.Ltmp2:
	.loc	1 202 13 prologue_end           @ ../../../../Library/StdDriver/src/retarget.c:202:13
	ldrb	r0, [r0]
	lsls	r0, r0, #29
	cmp	r0, #0
	bpl	.LBB1_2
	b	.LBB1_1
.LBB1_1:
.Ltmp3:
	.loc	1 204 30                        @ ../../../../Library/StdDriver/src/retarget.c:204:30
	ldr	r0, [sp, #8]
	.loc	1 204 16 is_stmt 0              @ ../../../../Library/StdDriver/src/retarget.c:204:16
	str	r0, [sp, #4]
	.loc	1 205 9 is_stmt 1               @ ../../../../Library/StdDriver/src/retarget.c:205:9
	b	.LBB1_3
.Ltmp4:
.LBB1_2:
	.loc	1 208 30                        @ ../../../../Library/StdDriver/src/retarget.c:208:30
	ldr	r0, [sp, #12]
	.loc	1 208 16 is_stmt 0              @ ../../../../Library/StdDriver/src/retarget.c:208:16
	str	r0, [sp, #4]
	b	.LBB1_3
.Ltmp5:
.LBB1_3:
	.loc	1 225 12 is_stmt 1              @ ../../../../Library/StdDriver/src/retarget.c:225:12
	ldr	r0, [sp, #4]
	ldr	r0, [r0, #24]
	ldrh	r0, [r0]
	.loc	1 225 10 is_stmt 0              @ ../../../../Library/StdDriver/src/retarget.c:225:10
	str	r0, [sp]
.Ltmp6:
	.loc	1 227 9 is_stmt 1               @ ../../../../Library/StdDriver/src/retarget.c:227:9
	ldr	r0, [sp]
	ldr	r1, __arm_cp.1_0
.Ltmp7:
	.loc	1 227 9 is_stmt 0               @ ../../../../Library/StdDriver/src/retarget.c:227:9
	cmp	r0, r1
	bne	.LBB1_5
	b	.LBB1_4
.LBB1_4:
.Ltmp8:
	.loc	1 233 25 is_stmt 1              @ ../../../../Library/StdDriver/src/retarget.c:233:25
	ldr	r1, __arm_cp.1_2
	movs	r0, #0
	str	r0, [r1]
	.loc	1 234 9                         @ ../../../../Library/StdDriver/src/retarget.c:234:9
	ldr	r1, [sp, #4]
	.loc	1 234 15 is_stmt 0              @ ../../../../Library/StdDriver/src/retarget.c:234:15
	ldr	r0, [r1, #24]
	adds	r0, r0, #2
	str	r0, [r1, #24]
	.loc	1 235 16 is_stmt 1              @ ../../../../Library/StdDriver/src/retarget.c:235:16
	ldr	r0, [sp, #16]
	.loc	1 235 9 is_stmt 0               @ ../../../../Library/StdDriver/src/retarget.c:235:9
	str	r0, [sp, #20]
	b	.LBB1_9
.Ltmp9:
.LBB1_5:
	.loc	1 238 5 is_stmt 1               @ ../../../../Library/StdDriver/src/retarget.c:238:5
	ldr	r0, __arm_cp.1_1
	bl	printf
	.loc	1 239 15                        @ ../../../../Library/StdDriver/src/retarget.c:239:15
	ldr	r0, [sp, #4]
	.loc	1 239 5 is_stmt 0               @ ../../../../Library/StdDriver/src/retarget.c:239:5
	bl	DumpStack
	.loc	1 242 5 is_stmt 1               @ ../../../../Library/StdDriver/src/retarget.c:242:5
	b	.LBB1_6
.LBB1_6:                                @ =>This Inner Loop Header: Depth=1
	.loc	1 242 18 is_stmt 0              @ ../../../../Library/StdDriver/src/retarget.c:242:18
	ldr	r0, [sp, #4]
	.loc	1 242 17                        @ ../../../../Library/StdDriver/src/retarget.c:242:17
	ldr	r0, [r0]
	movs	r1, #1
	.loc	1 242 15                        @ ../../../../Library/StdDriver/src/retarget.c:242:15
	orrs	r0, r1
	.loc	1 242 5                         @ ../../../../Library/StdDriver/src/retarget.c:242:5
	cbz	r0, .LBB1_8
	b	.LBB1_7
.LBB1_7:                                @   in Loop: Header=BB1_6 Depth=1
	b	.LBB1_6
.LBB1_8:
	.loc	1 244 12 is_stmt 1              @ ../../../../Library/StdDriver/src/retarget.c:244:12
	ldr	r0, [sp, #16]
	.loc	1 244 5 is_stmt 0               @ ../../../../Library/StdDriver/src/retarget.c:244:5
	str	r0, [sp, #20]
	b	.LBB1_9
.LBB1_9:
	.loc	1 245 1 is_stmt 1               @ ../../../../Library/StdDriver/src/retarget.c:245:1
	ldr	r0, [sp, #20]
	add	sp, #24
	pop	{r7, pc}
.Ltmp10:
	.p2align	2
@ %bb.10:
	.loc	1 0 1 is_stmt 0                 @ ../../../../Library/StdDriver/src/retarget.c:0:1
__arm_cp.1_0:
	.long	48811                           @ 0xbeab
.Lcpi_end0:
	.size	__arm_cp.1_0, .Lcpi_end0-__arm_cp.1_0
__arm_cp.1_1:
	.long	.L.str
.Lcpi_end1:
	.size	__arm_cp.1_1, .Lcpi_end1-__arm_cp.1_1
__arm_cp.1_2:
	.long	g_ICE_Connected
.Lcpi_end2:
	.size	__arm_cp.1_2, .Lcpi_end2-__arm_cp.1_2
.Lfunc_end1:
	.size	ProcessHardFault, .Lfunc_end1-ProcessHardFault
	.cfi_endproc
	.cantunwind
	.fnend
                                        @ -- End function
	.section	.text.DumpStack,"ax",%progbits
	.p2align	1                               @ -- Begin function DumpStack
	.type	DumpStack,%function
	.code	16                              @ @DumpStack
	.thumb_func
DumpStack:
.Lfunc_begin2:
	.loc	1 105 0 is_stmt 1               @ ../../../../Library/StdDriver/src/retarget.c:105:0
	.fnstart
	.cfi_startproc
@ %bb.0:
	.pad	#4
	sub	sp, #4
	.cfi_def_cfa_offset 4
	str	r0, [sp]
.Ltmp11:
	.loc	1 116 1 prologue_end            @ ../../../../Library/StdDriver/src/retarget.c:116:1
	add	sp, #4
	bx	lr
.Ltmp12:
.Lfunc_end2:
	.size	DumpStack, .Lfunc_end2-DumpStack
	.cfi_endproc
	.cantunwind
	.fnend
                                        @ -- End function
	.section	.text.SendChar_ToUART,"ax",%progbits
	.hidden	SendChar_ToUART                 @ -- Begin function SendChar_ToUART
	.globl	SendChar_ToUART
	.p2align	2
	.type	SendChar_ToUART,%function
	.code	16                              @ @SendChar_ToUART
	.thumb_func
SendChar_ToUART:
.Lfunc_begin3:
	.loc	1 257 0                         @ ../../../../Library/StdDriver/src/retarget.c:257:0
	.fnstart
	.cfi_startproc
@ %bb.0:
	.pad	#4
	sub	sp, #4
	.cfi_def_cfa_offset 4
	str	r0, [sp]
.Ltmp13:
	.loc	1 258 5 prologue_end            @ ../../../../Library/StdDriver/src/retarget.c:258:5
	b	.LBB3_1
.LBB3_1:                                @ =>This Inner Loop Header: Depth=1
	.loc	1 0 5 is_stmt 0                 @ ../../../../Library/StdDriver/src/retarget.c:0:5
	ldr	r0, __arm_cp.3_0
	.loc	1 258 24                        @ ../../../../Library/StdDriver/src/retarget.c:258:24
	ldr	r0, [r0]
	.loc	1 258 5                         @ ../../../../Library/StdDriver/src/retarget.c:258:5
	lsls	r0, r0, #8
	cmp	r0, #0
	bpl	.LBB3_3
	b	.LBB3_2
.LBB3_2:                                @   in Loop: Header=BB3_1 Depth=1
	b	.LBB3_1
.LBB3_3:
	.loc	1 0 5                           @ ../../../../Library/StdDriver/src/retarget.c:0:5
	mov	r0, sp
.Ltmp14:
	.loc	1 260 15 is_stmt 1              @ ../../../../Library/StdDriver/src/retarget.c:260:15
	ldrb	r0, [r0]
.Ltmp15:
	.loc	1 260 9 is_stmt 0               @ ../../../../Library/StdDriver/src/retarget.c:260:9
	cmp	r0, #10
	bne	.LBB3_8
	b	.LBB3_4
.LBB3_4:
	.loc	1 0 9                           @ ../../../../Library/StdDriver/src/retarget.c:0:9
	ldr	r1, __arm_cp.3_1
	movs	r0, #13
.Ltmp16:
	.loc	1 262 25 is_stmt 1              @ ../../../../Library/StdDriver/src/retarget.c:262:25
	str	r0, [r1]
	.loc	1 264 9                         @ ../../../../Library/StdDriver/src/retarget.c:264:9
	b	.LBB3_5
.LBB3_5:                                @ =>This Inner Loop Header: Depth=1
	.loc	1 0 9 is_stmt 0                 @ ../../../../Library/StdDriver/src/retarget.c:0:9
	ldr	r0, __arm_cp.3_0
	.loc	1 264 28                        @ ../../../../Library/StdDriver/src/retarget.c:264:28
	ldr	r0, [r0]
	.loc	1 264 9                         @ ../../../../Library/StdDriver/src/retarget.c:264:9
	lsls	r0, r0, #8
	cmp	r0, #0
	bpl	.LBB3_7
	b	.LBB3_6
.LBB3_6:                                @   in Loop: Header=BB3_5 Depth=1
	b	.LBB3_5
.LBB3_7:
	.loc	1 265 5 is_stmt 1               @ ../../../../Library/StdDriver/src/retarget.c:265:5
	b	.LBB3_8
.Ltmp17:
.LBB3_8:
	.loc	1 267 33                        @ ../../../../Library/StdDriver/src/retarget.c:267:33
	ldr	r0, [sp]
	ldr	r1, __arm_cp.3_1
	.loc	1 267 21 is_stmt 0              @ ../../../../Library/StdDriver/src/retarget.c:267:21
	str	r0, [r1]
	.loc	1 268 1 is_stmt 1               @ ../../../../Library/StdDriver/src/retarget.c:268:1
	add	sp, #4
	bx	lr
.Ltmp18:
	.p2align	2
@ %bb.9:
	.loc	1 0 1 is_stmt 0                 @ ../../../../Library/StdDriver/src/retarget.c:0:1
__arm_cp.3_0:
	.long	1074200600                      @ 0x40070018
.Lcpi_end3:
	.size	__arm_cp.3_0, .Lcpi_end3-__arm_cp.3_0
__arm_cp.3_1:
	.long	1074200576                      @ 0x40070000
.Lcpi_end4:
	.size	__arm_cp.3_1, .Lcpi_end4-__arm_cp.3_1
.Lfunc_end3:
	.size	SendChar_ToUART, .Lfunc_end3-SendChar_ToUART
	.cfi_endproc
	.cantunwind
	.fnend
                                        @ -- End function
	.section	.text.SendChar,"ax",%progbits
	.hidden	SendChar                        @ -- Begin function SendChar
	.weak	SendChar
	.p2align	1
	.type	SendChar,%function
	.code	16                              @ @SendChar
	.thumb_func
SendChar:
.Lfunc_begin4:
	.loc	1 347 0 is_stmt 1               @ ../../../../Library/StdDriver/src/retarget.c:347:0
	.fnstart
	.cfi_startproc
@ %bb.0:
	.save	{r7, lr}
	push	{r7, lr}
	.cfi_def_cfa_offset 8
	.cfi_offset lr, -4
	.cfi_offset r7, -8
	.pad	#8
	sub	sp, #8
	.cfi_def_cfa_offset 16
	str	r0, [sp, #4]
.Ltmp19:
	.loc	1 379 21 prologue_end           @ ../../../../Library/StdDriver/src/retarget.c:379:21
	ldr	r0, [sp, #4]
	.loc	1 379 5 is_stmt 0               @ ../../../../Library/StdDriver/src/retarget.c:379:5
	bl	SendChar_ToUART
	.loc	1 381 1 is_stmt 1               @ ../../../../Library/StdDriver/src/retarget.c:381:1
	add	sp, #8
	pop	{r7, pc}
.Ltmp20:
.Lfunc_end4:
	.size	SendChar, .Lfunc_end4-SendChar
	.cfi_endproc
	.cantunwind
	.fnend
                                        @ -- End function
	.section	.text.GetChar,"ax",%progbits
	.hidden	GetChar                         @ -- Begin function GetChar
	.globl	GetChar
	.p2align	2
	.type	GetChar,%function
	.code	16                              @ @GetChar
	.thumb_func
GetChar:
.Lfunc_begin5:
	.loc	1 393 0                         @ ../../../../Library/StdDriver/src/retarget.c:393:0
	.fnstart
	.cfi_startproc
@ %bb.0:
	.loc	1 443 5 prologue_end            @ ../../../../Library/StdDriver/src/retarget.c:443:5
	b	.LBB5_1
.LBB5_1:                                @ =>This Inner Loop Header: Depth=1
	.loc	1 0 5 is_stmt 0                 @ ../../../../Library/StdDriver/src/retarget.c:0:5
	ldr	r0, __arm_cp.5_0
.Ltmp21:
	.loc	1 445 26 is_stmt 1              @ ../../../../Library/StdDriver/src/retarget.c:445:26
	ldr	r0, [r0]
.Ltmp22:
	.loc	1 445 13 is_stmt 0              @ ../../../../Library/StdDriver/src/retarget.c:445:13
	lsls	r0, r0, #17
	cmp	r0, #0
	bmi	.LBB5_3
	b	.LBB5_2
.LBB5_2:
	.loc	1 0 13                          @ ../../../../Library/StdDriver/src/retarget.c:0:13
	ldr	r0, __arm_cp.5_1
.Ltmp23:
	.loc	1 447 39 is_stmt 1              @ ../../../../Library/StdDriver/src/retarget.c:447:39
	ldr	r0, [r0]
	.loc	1 447 13 is_stmt 0              @ ../../../../Library/StdDriver/src/retarget.c:447:13
	uxtb	r0, r0
	bx	lr
.Ltmp24:
.LBB5_3:                                @   in Loop: Header=BB5_1 Depth=1
	.loc	1 443 5 is_stmt 1               @ ../../../../Library/StdDriver/src/retarget.c:443:5
	b	.LBB5_1
.Ltmp25:
	.p2align	2
@ %bb.4:
	.loc	1 0 5 is_stmt 0                 @ ../../../../Library/StdDriver/src/retarget.c:0:5
__arm_cp.5_0:
	.long	1074200600                      @ 0x40070018
.Lcpi_end5:
	.size	__arm_cp.5_0, .Lcpi_end5-__arm_cp.5_0
__arm_cp.5_1:
	.long	1074200576                      @ 0x40070000
.Lcpi_end6:
	.size	__arm_cp.5_1, .Lcpi_end6-__arm_cp.5_1
.Lfunc_end5:
	.size	GetChar, .Lfunc_end5-GetChar
	.cfi_endproc
	.cantunwind
	.fnend
                                        @ -- End function
	.section	.text.kbhit,"ax",%progbits
	.hidden	kbhit                           @ -- Begin function kbhit
	.globl	kbhit
	.p2align	2
	.type	kbhit,%function
	.code	16                              @ @kbhit
	.thumb_func
kbhit:
.Lfunc_begin6:
	.loc	1 465 0 is_stmt 1               @ ../../../../Library/StdDriver/src/retarget.c:465:0
	.fnstart
	.cfi_startproc
@ %bb.0:
	ldr	r0, __arm_cp.6_0
.Ltmp26:
	.loc	1 466 27 prologue_end           @ ../../../../Library/StdDriver/src/retarget.c:466:27
	ldr	r0, [r0]
	movw	r1, #16384
	.loc	1 466 35 is_stmt 0              @ ../../../../Library/StdDriver/src/retarget.c:466:35
	ands	r0, r1
	.loc	1 466 63                        @ ../../../../Library/StdDriver/src/retarget.c:466:63
	lsrs	r0, r0, #14
	.loc	1 466 5                         @ ../../../../Library/StdDriver/src/retarget.c:466:5
	bx	lr
.Ltmp27:
	.p2align	2
@ %bb.1:
	.loc	1 0 5                           @ ../../../../Library/StdDriver/src/retarget.c:0:5
__arm_cp.6_0:
	.long	1074200600                      @ 0x40070018
.Lcpi_end7:
	.size	__arm_cp.6_0, .Lcpi_end7-__arm_cp.6_0
.Lfunc_end6:
	.size	kbhit, .Lfunc_end6-kbhit
	.cfi_endproc
	.cantunwind
	.fnend
                                        @ -- End function
	.section	.text.IsDebugFifoEmpty,"ax",%progbits
	.hidden	IsDebugFifoEmpty                @ -- Begin function IsDebugFifoEmpty
	.globl	IsDebugFifoEmpty
	.p2align	2
	.type	IsDebugFifoEmpty,%function
	.code	16                              @ @IsDebugFifoEmpty
	.thumb_func
IsDebugFifoEmpty:
.Lfunc_begin7:
	.loc	1 479 0 is_stmt 1               @ ../../../../Library/StdDriver/src/retarget.c:479:0
	.fnstart
	.cfi_startproc
@ %bb.0:
	ldr	r0, __arm_cp.7_0
.Ltmp28:
	.loc	1 480 26 prologue_end           @ ../../../../Library/StdDriver/src/retarget.c:480:26
	ldr	r0, [r0]
	movs	r1, #1
	lsls	r1, r1, #28
	.loc	1 480 34 is_stmt 0              @ ../../../../Library/StdDriver/src/retarget.c:480:34
	ands	r0, r1
	.loc	1 480 63                        @ ../../../../Library/StdDriver/src/retarget.c:480:63
	lsrs	r0, r0, #28
	.loc	1 480 5                         @ ../../../../Library/StdDriver/src/retarget.c:480:5
	bx	lr
.Ltmp29:
	.p2align	2
@ %bb.1:
	.loc	1 0 5                           @ ../../../../Library/StdDriver/src/retarget.c:0:5
__arm_cp.7_0:
	.long	1074200600                      @ 0x40070018
.Lcpi_end8:
	.size	__arm_cp.7_0, .Lcpi_end8-__arm_cp.7_0
.Lfunc_end7:
	.size	IsDebugFifoEmpty, .Lfunc_end7-IsDebugFifoEmpty
	.cfi_endproc
	.cantunwind
	.fnend
                                        @ -- End function
	.section	.text._ttywrch,"ax",%progbits
	.hidden	_ttywrch                        @ -- Begin function _ttywrch
	.globl	_ttywrch
	.p2align	1
	.type	_ttywrch,%function
	.code	16                              @ @_ttywrch
	.thumb_func
_ttywrch:
.Lfunc_begin8:
	.loc	1 492 0 is_stmt 1               @ ../../../../Library/StdDriver/src/retarget.c:492:0
	.fnstart
	.cfi_startproc
@ %bb.0:
	.save	{r7, lr}
	push	{r7, lr}
	.cfi_def_cfa_offset 8
	.cfi_offset lr, -4
	.cfi_offset r7, -8
	.pad	#8
	sub	sp, #8
	.cfi_def_cfa_offset 16
	str	r0, [sp, #4]
.Ltmp30:
	.loc	1 493 14 prologue_end           @ ../../../../Library/StdDriver/src/retarget.c:493:14
	ldr	r0, [sp, #4]
	.loc	1 493 5 is_stmt 0               @ ../../../../Library/StdDriver/src/retarget.c:493:5
	bl	SendChar
	.loc	1 494 5 is_stmt 1               @ ../../../../Library/StdDriver/src/retarget.c:494:5
	add	sp, #8
	pop	{r7, pc}
.Ltmp31:
.Lfunc_end8:
	.size	_ttywrch, .Lfunc_end8-_ttywrch
	.cfi_endproc
	.cantunwind
	.fnend
                                        @ -- End function
	.section	.text.fputc,"ax",%progbits
	.hidden	fputc                           @ -- Begin function fputc
	.globl	fputc
	.p2align	1
	.type	fputc,%function
	.code	16                              @ @fputc
	.thumb_func
fputc:
.Lfunc_begin9:
	.loc	1 547 0                         @ ../../../../Library/StdDriver/src/retarget.c:547:0
	.fnstart
	.cfi_startproc
@ %bb.0:
	.save	{r7, lr}
	push	{r7, lr}
	.cfi_def_cfa_offset 8
	.cfi_offset lr, -4
	.cfi_offset r7, -8
	.pad	#8
	sub	sp, #8
	.cfi_def_cfa_offset 16
	str	r0, [sp, #4]
	str	r1, [sp]
.Ltmp32:
	.loc	1 548 14 prologue_end           @ ../../../../Library/StdDriver/src/retarget.c:548:14
	ldr	r0, [sp, #4]
	.loc	1 548 5 is_stmt 0               @ ../../../../Library/StdDriver/src/retarget.c:548:5
	bl	SendChar
	.loc	1 549 12 is_stmt 1              @ ../../../../Library/StdDriver/src/retarget.c:549:12
	ldr	r0, [sp, #4]
	.loc	1 549 5 is_stmt 0               @ ../../../../Library/StdDriver/src/retarget.c:549:5
	add	sp, #8
	pop	{r7, pc}
.Ltmp33:
.Lfunc_end9:
	.size	fputc, .Lfunc_end9-fputc
	.cfi_endproc
	.cantunwind
	.fnend
                                        @ -- End function
	.section	.text.fgetc,"ax",%progbits
	.hidden	fgetc                           @ -- Begin function fgetc
	.globl	fgetc
	.p2align	1
	.type	fgetc,%function
	.code	16                              @ @fgetc
	.thumb_func
fgetc:
.Lfunc_begin10:
	.loc	1 639 0 is_stmt 1               @ ../../../../Library/StdDriver/src/retarget.c:639:0
	.fnstart
	.cfi_startproc
@ %bb.0:
	.save	{r7, lr}
	push	{r7, lr}
	.cfi_def_cfa_offset 8
	.cfi_offset lr, -4
	.cfi_offset r7, -8
	.pad	#8
	sub	sp, #8
	.cfi_def_cfa_offset 16
	str	r0, [sp, #4]
.Ltmp34:
	.loc	1 640 18 prologue_end           @ ../../../../Library/StdDriver/src/retarget.c:640:18
	bl	GetChar
	.loc	1 640 5 is_stmt 0               @ ../../../../Library/StdDriver/src/retarget.c:640:5
	add	sp, #8
	pop	{r7, pc}
.Ltmp35:
.Lfunc_end10:
	.size	fgetc, .Lfunc_end10-fgetc
	.cfi_endproc
	.cantunwind
	.fnend
                                        @ -- End function
	.section	.text.ferror,"ax",%progbits
	.hidden	ferror                          @ -- Begin function ferror
	.globl	ferror
	.p2align	1
	.type	ferror,%function
	.code	16                              @ @ferror
	.thumb_func
ferror:
.Lfunc_begin11:
	.loc	1 659 0 is_stmt 1               @ ../../../../Library/StdDriver/src/retarget.c:659:0
	.fnstart
	.cfi_startproc
@ %bb.0:
	.pad	#4
	sub	sp, #4
	.cfi_def_cfa_offset 4
	str	r0, [sp]
	movs	r0, #0
	mvns	r0, r0
.Ltmp36:
	.loc	1 660 5 prologue_end            @ ../../../../Library/StdDriver/src/retarget.c:660:5
	add	sp, #4
	bx	lr
.Ltmp37:
.Lfunc_end11:
	.size	ferror, .Lfunc_end11-ferror
	.cfi_endproc
	.cantunwind
	.fnend
                                        @ -- End function
	.type	g_ICE_Connected,%object         @ @g_ICE_Connected
	.section	.data.g_ICE_Connected,"aw",%progbits
	.p2align	2, 0x0
g_ICE_Connected:
	.long	1                               @ 0x1
	.size	g_ICE_Connected, 4

	.type	.L.str,%object                  @ @.str
	.section	.rodata.str1.1,"aMS",%progbits,1
.L.str:
	.asciz	"  HardFault!\n\n"
	.size	.L.str, 15

	.hidden	__stdout                        @ @__stdout
	.type	__stdout,%object
	.section	.bss.__stdout,"aw",%nobits
	.globl	__stdout
	.p2align	2, 0x0
__stdout:
	.zero	84
	.size	__stdout, 84

	.hidden	__stdin                         @ @__stdin
	.type	__stdin,%object
	.section	.bss.__stdin,"aw",%nobits
	.globl	__stdin
	.p2align	2, 0x0
__stdin:
	.zero	84
	.size	__stdin, 84

	.section	".note.GNU-stack","",%progbits
	.eabi_attribute	30, 6	@ Tag_ABI_optimization_goals
	.ARM_attribute	16, 1	@ Tag_AV_eba