	.text
	.syntax unified
	.eabi_attribute	67, "2.09"	@ Tag_conformance
	.cpu	cortex-m23
	.eabi_attribute	6, 16	@ Tag_CPU_arch
	.eabi_attribute	7, 77	@ Tag_CPU_arch_profile
	.eabi_attribute	8, 0	@ Tag_ARM_ISA_use
	.eabi_attribute	9, 3	@ Tag_THUMB_ISA_use
	.eabi_attribute	34, 0	@ Tag_CPU_unaligned_access
	.eabi_attribute	17, 1	@ Tag_ABI_PCS_GOT_use
	.eabi_attribute	20, 2	@ Tag_ABI_FP_denormal
	.eabi_attribute	21, 0	@ Tag_ABI_FP_exceptions
	.eabi_attribute	23, 1	@ Tag_ABI_FP_number_model
	.eabi_attribute	24, 1	@ Tag_ABI_align_needed
	.eabi_attribute	25, 1	@ Tag_ABI_align_preserved
	.eabi_attribute	38, 1	@ Tag_ABI_FP_16bit_format
	.eabi_attribute	18, 2	@ Tag_ABI_PCS_wchar_t
	.eabi_attribute	26, 1	@ Tag_ABI_enum_size
	.eabi_attribute	14, 0	@ Tag_ABI_PCS_R9_use
	.file	"rtc.c"
	.file	1 "C:\\Keil_v5\\ARM\\ARMCLANG\\Bin\\..\\include" "stdint.h"
	.file	2 "E:\\ROBOCON2024\\01. Coding\\Nuvoton\\demo_robot_3wheel\\SampleCode\\NuCodeGen\\DemoCodeGen\\KEIL" "../../../../Library/StdDriver/src/rtc.c"
	.file	3 "E:\\ROBOCON2024\\01. Coding\\Nuvoton\\demo_robot_3wheel\\SampleCode\\NuCodeGen\\DemoCodeGen\\KEIL" "../../../../Library/Device/Nuvoton/M251/Include/rtc_reg.h"
	.file	4 "E:\\ROBOCON2024\\01. Coding\\Nuvoton\\demo_robot_3wheel\\SampleCode\\NuCodeGen\\DemoCodeGen\\KEIL" "../../../../Library/Device/Nuvoton/M251/Include/clk_reg.h"
	.section	.text.RTC_Open,"ax",%progbits
	.hidden	RTC_Open                        @ -- Begin function RTC_Open
	.globl	RTC_Open
	.p2align	2
	.type	RTC_Open,%function
	.code	16                              @ @RTC_Open
	.thumb_func
RTC_Open:
.Lfunc_begin0:
	.loc	2 68 0                          @ ../../../../Library/StdDriver/src/rtc.c:68:0
	.fnstart
	.cfi_sections .debug_frame
	.cfi_startproc
@ %bb.0:
	.save	{r7, lr}
	push	{r7, lr}
	.cfi_def_cfa_offset 8
	.cfi_offset lr, -4
	.cfi_offset r7, -8
	.pad	#16
	sub	sp, #16
	.cfi_def_cfa_offset 24
	str	r0, [sp, #8]
.Ltmp0:
	.loc	2 69 32 prologue_end            @ ../../../../Library/StdDriver/src/rtc.c:69:32
	ldr	r0, __arm_cp.0_0
	ldr	r0, [r0]
	.loc	2 69 14 is_stmt 0               @ ../../../../Library/StdDriver/src/rtc.c:69:14
	str	r0, [sp, #4]
	ldr	r0, __arm_cp.0_1
	ldr	r1, __arm_cp.0_2
	.loc	2 71 15 is_stmt 1               @ ../../../../Library/StdDriver/src/rtc.c:71:15
	str	r1, [r0]
.Ltmp1:
	.loc	2 73 14                         @ ../../../../Library/StdDriver/src/rtc.c:73:14
	ldr	r0, [r0]
.Ltmp2:
	.loc	2 73 9 is_stmt 0                @ ../../../../Library/StdDriver/src/rtc.c:73:9
	cmp	r0, #1
	beq	.LBB0_7
	b	.LBB0_1
.LBB0_1:
	.loc	2 0 9                           @ ../../../../Library/StdDriver/src/rtc.c:0:9
	ldr	r1, __arm_cp.0_1
	ldr	r0, __arm_cp.0_2
.Ltmp3:
	.loc	2 75 19 is_stmt 1               @ ../../../../Library/StdDriver/src/rtc.c:75:19
	str	r0, [r1]
	.loc	2 77 9                          @ ../../../../Library/StdDriver/src/rtc.c:77:9
	b	.LBB0_2
.LBB0_2:                                @ =>This Inner Loop Header: Depth=1
	.loc	2 0 9 is_stmt 0                 @ ../../../../Library/StdDriver/src/rtc.c:0:9
	ldr	r0, __arm_cp.0_1
	.loc	2 77 21                         @ ../../../../Library/StdDriver/src/rtc.c:77:21
	ldr	r0, [r0]
	.loc	2 77 9                          @ ../../../../Library/StdDriver/src/rtc.c:77:9
	cmp	r0, #1
	beq	.LBB0_6
	b	.LBB0_3
.LBB0_3:                                @   in Loop: Header=BB0_2 Depth=1
.Ltmp4:
	.loc	2 79 17 is_stmt 1               @ ../../../../Library/StdDriver/src/rtc.c:79:17
	ldr	r0, [sp, #4]
.Ltmp5:
	.loc	2 79 17 is_stmt 0               @ ../../../../Library/StdDriver/src/rtc.c:79:17
	cbnz	r0, .LBB0_5
	b	.LBB0_4
.LBB0_4:
	.loc	2 0 17                          @ ../../../../Library/StdDriver/src/rtc.c:0:17
	movs	r0, #0
	mvns	r0, r0
.Ltmp6:
	.loc	2 79 39                         @ ../../../../Library/StdDriver/src/rtc.c:79:39
	str	r0, [sp, #12]
	b	.LBB0_11
.Ltmp7:
.LBB0_5:                                @   in Loop: Header=BB0_2 Depth=1
	.loc	2 81 28 is_stmt 1               @ ../../../../Library/StdDriver/src/rtc.c:81:28
	ldr	r0, [sp, #4]
	subs	r0, r0, #1
	str	r0, [sp, #4]
.Ltmp8:
	.loc	2 77 9                          @ ../../../../Library/StdDriver/src/rtc.c:77:9
	b	.LBB0_2
.LBB0_6:
	.loc	2 83 5                          @ ../../../../Library/StdDriver/src/rtc.c:83:5
	b	.LBB0_7
.Ltmp9:
.LBB0_7:
	.loc	2 85 9                          @ ../../../../Library/StdDriver/src/rtc.c:85:9
	ldr	r0, [sp, #8]
.Ltmp10:
	.loc	2 85 9 is_stmt 0                @ ../../../../Library/StdDriver/src/rtc.c:85:9
	cbnz	r0, .LBB0_9
	b	.LBB0_8
.LBB0_8:
.Ltmp11:
	.loc	2 88 5 is_stmt 1                @ ../../../../Library/StdDriver/src/rtc.c:88:5
	b	.LBB0_10
.Ltmp12:
.LBB0_9:
	.loc	2 92 28                         @ ../../../../Library/StdDriver/src/rtc.c:92:28
	ldr	r0, [sp, #8]
	.loc	2 92 9 is_stmt 0                @ ../../../../Library/StdDriver/src/rtc.c:92:9
	bl	RTC_SetDateAndTime
	b	.LBB0_10
.Ltmp13:
.LBB0_10:
	.loc	2 0 9                           @ ../../../../Library/StdDriver/src/rtc.c:0:9
	movs	r0, #0
	.loc	2 95 5 is_stmt 1                @ ../../../../Library/StdDriver/src/rtc.c:95:5
	str	r0, [sp, #12]
	b	.LBB0_11
.LBB0_11:
	.loc	2 96 1                          @ ../../../../Library/StdDriver/src/rtc.c:96:1
	ldr	r0, [sp, #12]
	add	sp, #16
	pop	{r7, pc}
.Ltmp14:
	.p2align	2
@ %bb.12:
	.loc	2 0 1 is_stmt 0                 @ ../../../../Library/StdDriver/src/rtc.c:0:1
__arm_cp.0_0:
	.long	SystemCoreClock
.Lcpi_end0:
	.size	__arm_cp.0_0, .Lcpi_end0-__arm_cp.0_0
__arm_cp.0_1:
	.long	1074008064                      @ 0x40041000
.Lcpi_end1:
	.size	__arm_cp.0_1, .Lcpi_end1-__arm_cp.0_1
__arm_cp.0_2:
	.long	2783646551                      @ 0xa5eb1357
.Lcpi_end2:
	.size	__arm_cp.0_2, .Lcpi_end2-__arm_cp.0_2
.Lfunc_end0:
	.size	RTC_Open, .Lfunc_end0-RTC_Open
	.cfi_endproc
	.cantunwind
	.fnend
                                        @ -- End function
	.section	.text.RTC_SetDateAndTime,"ax",%progbits
	.hidden	RTC_SetDateAndTime              @ -- Begin function RTC_SetDateAndTime
	.globl	RTC_SetDateAndTime
	.p2align	2
	.type	RTC_SetDateAndTime,%function
	.code	16                              @ @RTC_SetDateAndTime
	.thumb_func
RTC_SetDateAndTime:
.Lfunc_begin1:
	.loc	2 370 0 is_stmt 1               @ ../../../../Library/StdDriver/src/rtc.c:370:0
	.fnstart
	.cfi_startproc
@ %bb.0:
	.pad	#16
	sub	sp, #16
	.cfi_def_cfa_offset 16
	str	r0, [sp, #12]
.Ltmp15:
	.loc	2 371 9 prologue_end            @ ../../../../Library/StdDriver/src/rtc.c:371:9
	ldr	r0, [sp, #12]
.Ltmp16:
	.loc	2 371 9 is_stmt 0               @ ../../../../Library/StdDriver/src/rtc.c:371:9
	cbnz	r0, .LBB1_2
	b	.LBB1_1
.LBB1_1:
.Ltmp17:
	.loc	2 374 5 is_stmt 1               @ ../../../../Library/StdDriver/src/rtc.c:374:5
	b	.LBB1_8
.Ltmp18:
.LBB1_2:
	.loc	2 383 13                        @ ../../../../Library/StdDriver/src/rtc.c:383:13
	ldr	r0, [sp, #12]
	.loc	2 383 19 is_stmt 0              @ ../../../../Library/StdDriver/src/rtc.c:383:19
	ldr	r0, [r0, #28]
.Ltmp19:
	.loc	2 383 13                        @ ../../../../Library/StdDriver/src/rtc.c:383:13
	cbnz	r0, .LBB1_6
	b	.LBB1_3
.LBB1_3:
	.loc	2 0 13                          @ ../../../../Library/StdDriver/src/rtc.c:0:13
	ldr	r1, __arm_cp.1_0
.Ltmp20:
	.loc	2 385 25 is_stmt 1              @ ../../../../Library/StdDriver/src/rtc.c:385:25
	ldr	r0, [r1]
	movs	r2, #1
	bics	r0, r2
	str	r0, [r1]
.Ltmp21:
	.loc	2 390 17                        @ ../../../../Library/StdDriver/src/rtc.c:390:17
	ldr	r0, [sp, #12]
	.loc	2 390 23 is_stmt 0              @ ../../../../Library/StdDriver/src/rtc.c:390:23
	ldr	r0, [r0, #32]
.Ltmp22:
	.loc	2 390 17                        @ ../../../../Library/StdDriver/src/rtc.c:390:17
	cmp	r0, #2
	bne	.LBB1_5
	b	.LBB1_4
.LBB1_4:
.Ltmp23:
	.loc	2 392 17 is_stmt 1              @ ../../../../Library/StdDriver/src/rtc.c:392:17
	ldr	r1, [sp, #12]
	.loc	2 392 31 is_stmt 0              @ ../../../../Library/StdDriver/src/rtc.c:392:31
	ldr	r0, [r1, #16]
	adds	r0, #20
	str	r0, [r1, #16]
	.loc	2 393 13 is_stmt 1              @ ../../../../Library/StdDriver/src/rtc.c:393:13
	b	.LBB1_5
.Ltmp24:
.LBB1_5:
	.loc	2 394 9                         @ ../../../../Library/StdDriver/src/rtc.c:394:9
	b	.LBB1_7
.Ltmp25:
.LBB1_6:
	.loc	2 0 9 is_stmt 0                 @ ../../../../Library/StdDriver/src/rtc.c:0:9
	ldr	r1, __arm_cp.1_0
.Ltmp26:
	.loc	2 397 25 is_stmt 1              @ ../../../../Library/StdDriver/src/rtc.c:397:25
	ldr	r0, [r1]
	movs	r2, #1
	orrs	r0, r2
	str	r0, [r1]
	b	.LBB1_7
.Ltmp27:
.LBB1_7:
	.loc	2 401 24                        @ ../../../../Library/StdDriver/src/rtc.c:401:24
	ldr	r0, [sp, #12]
	.loc	2 401 30 is_stmt 0              @ ../../../../Library/StdDriver/src/rtc.c:401:30
	ldr	r0, [r0, #12]
	ldr	r1, __arm_cp.1_1
	.loc	2 401 22                        @ ../../../../Library/StdDriver/src/rtc.c:401:22
	str	r0, [r1]
	.loc	2 406 24 is_stmt 1              @ ../../../../Library/StdDriver/src/rtc.c:406:24
	ldr	r0, [sp, #12]
	.loc	2 406 30 is_stmt 0              @ ../../../../Library/StdDriver/src/rtc.c:406:30
	ldr	r0, [r0]
	.loc	2 406 38                        @ ../../../../Library/StdDriver/src/rtc.c:406:38
	movw	r2, #2000
	subs	r0, r0, r2
	movs	r1, #10
	.loc	2 406 54                        @ ../../../../Library/StdDriver/src/rtc.c:406:54
	str	r1, [sp]                        @ 4-byte Spill
	udiv	r0, r0, r1
	.loc	2 406 62                        @ ../../../../Library/StdDriver/src/rtc.c:406:62
	lsls	r0, r0, #20
	.loc	2 406 20                        @ ../../../../Library/StdDriver/src/rtc.c:406:20
	str	r0, [sp, #8]
	.loc	2 407 25 is_stmt 1              @ ../../../../Library/StdDriver/src/rtc.c:407:25
	ldr	r0, [sp, #12]
	.loc	2 407 31 is_stmt 0              @ ../../../../Library/StdDriver/src/rtc.c:407:31
	ldr	r0, [r0]
	.loc	2 407 39                        @ ../../../../Library/StdDriver/src/rtc.c:407:39
	subs	r0, r0, r2
	.loc	2 407 55                        @ ../../../../Library/StdDriver/src/rtc.c:407:55
	udiv	r3, r0, r1
	mov	r2, r1
	muls	r2, r3, r2
	subs	r0, r0, r2
	.loc	2 407 63                        @ ../../../../Library/StdDriver/src/rtc.c:407:63
	lsls	r2, r0, #16
	.loc	2 407 19                        @ ../../../../Library/StdDriver/src/rtc.c:407:19
	ldr	r0, [sp, #8]
	orrs	r0, r2
	str	r0, [sp, #8]
	.loc	2 408 24 is_stmt 1              @ ../../../../Library/StdDriver/src/rtc.c:408:24
	ldr	r0, [sp, #12]
	.loc	2 408 30 is_stmt 0              @ ../../../../Library/StdDriver/src/rtc.c:408:30
	ldr	r0, [r0, #4]
	.loc	2 408 40                        @ ../../../../Library/StdDriver/src/rtc.c:408:40
	udiv	r0, r0, r1
	.loc	2 408 48                        @ ../../../../Library/StdDriver/src/rtc.c:408:48
	lsls	r2, r0, #12
	.loc	2 408 19                        @ ../../../../Library/StdDriver/src/rtc.c:408:19
	ldr	r0, [sp, #8]
	orrs	r0, r2
	str	r0, [sp, #8]
	.loc	2 409 24 is_stmt 1              @ ../../../../Library/StdDriver/src/rtc.c:409:24
	ldr	r0, [sp, #12]
	.loc	2 409 30 is_stmt 0              @ ../../../../Library/StdDriver/src/rtc.c:409:30
	ldr	r0, [r0, #4]
	.loc	2 409 40                        @ ../../../../Library/StdDriver/src/rtc.c:409:40
	udiv	r3, r0, r1
	mov	r2, r1
	muls	r2, r3, r2
	subs	r0, r0, r2
	.loc	2 409 48                        @ ../../../../Library/StdDriver/src/rtc.c:409:48
	lsls	r2, r0, #8
	.loc	2 409 19                        @ ../../../../Library/StdDriver/src/rtc.c:409:19
	ldr	r0, [sp, #8]
	orrs	r0, r2
	str	r0, [sp, #8]
	.loc	2 410 24 is_stmt 1              @ ../../../../Library/StdDriver/src/rtc.c:410:24
	ldr	r0, [sp, #12]
	.loc	2 410 30 is_stmt 0              @ ../../../../Library/StdDriver/src/rtc.c:410:30
	ldr	r0, [r0, #8]
	.loc	2 410 40                        @ ../../../../Library/StdDriver/src/rtc.c:410:40
	udiv	r0, r0, r1
	.loc	2 410 48                        @ ../../../../Library/StdDriver/src/rtc.c:410:48
	lsls	r2, r0, #4
	.loc	2 410 19                        @ ../../../../Library/StdDriver/src/rtc.c:410:19
	ldr	r0, [sp, #8]
	orrs	r0, r2
	str	r0, [sp, #8]
	.loc	2 411 23 is_stmt 1              @ ../../../../Library/StdDriver/src/rtc.c:411:23
	ldr	r0, [sp, #12]
	.loc	2 411 29 is_stmt 0              @ ../../../../Library/StdDriver/src/rtc.c:411:29
	ldr	r0, [r0, #8]
	.loc	2 411 40                        @ ../../../../Library/StdDriver/src/rtc.c:411:40
	udiv	r3, r0, r1
	mov	r2, r1
	muls	r2, r3, r2
	subs	r2, r0, r2
	.loc	2 411 19                        @ ../../../../Library/StdDriver/src/rtc.c:411:19
	ldr	r0, [sp, #8]
	orrs	r0, r2
	str	r0, [sp, #8]
	.loc	2 413 25 is_stmt 1              @ ../../../../Library/StdDriver/src/rtc.c:413:25
	ldr	r0, [sp, #12]
	.loc	2 413 31 is_stmt 0              @ ../../../../Library/StdDriver/src/rtc.c:413:31
	ldr	r0, [r0, #16]
	.loc	2 413 41                        @ ../../../../Library/StdDriver/src/rtc.c:413:41
	udiv	r0, r0, r1
	.loc	2 413 49                        @ ../../../../Library/StdDriver/src/rtc.c:413:49
	lsls	r0, r0, #20
	.loc	2 413 21                        @ ../../../../Library/StdDriver/src/rtc.c:413:21
	str	r0, [sp, #4]
	.loc	2 414 25 is_stmt 1              @ ../../../../Library/StdDriver/src/rtc.c:414:25
	ldr	r0, [sp, #12]
	.loc	2 414 31 is_stmt 0              @ ../../../../Library/StdDriver/src/rtc.c:414:31
	ldr	r0, [r0, #16]
	.loc	2 414 41                        @ ../../../../Library/StdDriver/src/rtc.c:414:41
	udiv	r3, r0, r1
	mov	r2, r1
	muls	r2, r3, r2
	subs	r0, r0, r2
	.loc	2 414 49                        @ ../../../../Library/StdDriver/src/rtc.c:414:49
	lsls	r2, r0, #16
	.loc	2 414 20                        @ ../../../../Library/StdDriver/src/rtc.c:414:20
	ldr	r0, [sp, #4]
	orrs	r0, r2
	str	r0, [sp, #4]
	.loc	2 415 25 is_stmt 1              @ ../../../../Library/StdDriver/src/rtc.c:415:25
	ldr	r0, [sp, #12]
	.loc	2 415 31 is_stmt 0              @ ../../../../Library/StdDriver/src/rtc.c:415:31
	ldr	r0, [r0, #20]
	.loc	2 415 41                        @ ../../../../Library/StdDriver/src/rtc.c:415:41
	udiv	r0, r0, r1
	.loc	2 415 49                        @ ../../../../Library/StdDriver/src/rtc.c:415:49
	lsls	r2, r0, #12
	.loc	2 415 20                        @ ../../../../Library/StdDriver/src/rtc.c:415:20
	ldr	r0, [sp, #4]
	orrs	r0, r2
	str	r0, [sp, #4]
	.loc	2 416 25 is_stmt 1              @ ../../../../Library/StdDriver/src/rtc.c:416:25
	ldr	r0, [sp, #12]
	.loc	2 416 31 is_stmt 0              @ ../../../../Library/StdDriver/src/rtc.c:416:31
	ldr	r0, [r0, #20]
	.loc	2 416 41                        @ ../../../../Library/StdDriver/src/rtc.c:416:41
	udiv	r3, r0, r1
	mov	r2, r1
	muls	r2, r3, r2
	subs	r0, r0, r2
	.loc	2 416 49                        @ ../../../../Library/StdDriver/src/rtc.c:416:49
	lsls	r2, r0, #8
	.loc	2 416 20                        @ ../../../../Library/StdDriver/src/rtc.c:416:20
	ldr	r0, [sp, #4]
	orrs	r0, r2
	str	r0, [sp, #4]
	.loc	2 417 25 is_stmt 1              @ ../../../../Library/StdDriver/src/rtc.c:417:25
	ldr	r0, [sp, #12]
	.loc	2 417 31 is_stmt 0              @ ../../../../Library/StdDriver/src/rtc.c:417:31
	ldr	r0, [r0, #24]
	.loc	2 417 41                        @ ../../../../Library/StdDriver/src/rtc.c:417:41
	udiv	r0, r0, r1
	.loc	2 417 49                        @ ../../../../Library/StdDriver/src/rtc.c:417:49
	lsls	r2, r0, #4
	.loc	2 417 20                        @ ../../../../Library/StdDriver/src/rtc.c:417:20
	ldr	r0, [sp, #4]
	orrs	r0, r2
	str	r0, [sp, #4]
	.loc	2 418 24 is_stmt 1              @ ../../../../Library/StdDriver/src/rtc.c:418:24
	ldr	r0, [sp, #12]
	.loc	2 418 30 is_stmt 0              @ ../../../../Library/StdDriver/src/rtc.c:418:30
	ldr	r0, [r0, #24]
	.loc	2 418 40                        @ ../../../../Library/StdDriver/src/rtc.c:418:40
	udiv	r2, r0, r1
	muls	r1, r2, r1
	subs	r1, r0, r1
	.loc	2 418 20                        @ ../../../../Library/StdDriver/src/rtc.c:418:20
	ldr	r0, [sp, #4]
	orrs	r0, r1
	str	r0, [sp, #4]
	.loc	2 424 31 is_stmt 1              @ ../../../../Library/StdDriver/src/rtc.c:424:31
	ldr	r0, [sp, #8]
	ldr	r1, __arm_cp.1_2
	.loc	2 424 19 is_stmt 0              @ ../../../../Library/StdDriver/src/rtc.c:424:19
	str	r0, [r1]
	.loc	2 425 31 is_stmt 1              @ ../../../../Library/StdDriver/src/rtc.c:425:31
	ldr	r0, [sp, #4]
	ldr	r1, __arm_cp.1_3
	.loc	2 425 19 is_stmt 0              @ ../../../../Library/StdDriver/src/rtc.c:425:19
	str	r0, [r1]
	b	.LBB1_8
.Ltmp28:
.LBB1_8:
	.loc	2 427 1 is_stmt 1               @ ../../../../Library/StdDriver/src/rtc.c:427:1
	add	sp, #16
	bx	lr
.Ltmp29:
	.p2align	2
@ %bb.9:
	.loc	2 0 1 is_stmt 0                 @ ../../../../Library/StdDriver/src/rtc.c:0:1
__arm_cp.1_0:
	.long	1074008084                      @ 0x40041014
.Lcpi_end3:
	.size	__arm_cp.1_0, .Lcpi_end3-__arm_cp.1_0
__arm_cp.1_1:
	.long	1074008088                      @ 0x40041018
.Lcpi_end4:
	.size	__arm_cp.1_1, .Lcpi_end4-__arm_cp.1_1
__arm_cp.1_2:
	.long	1074008080                      @ 0x40041010
.Lcpi_end5:
	.size	__arm_cp.1_2, .Lcpi_end5-__arm_cp.1_2
__arm_cp.1_3:
	.long	1074008076                      @ 0x4004100c
.Lcpi_end6:
	.size	__arm_cp.1_3, .Lcpi_end6-__arm_cp.1_3
.Lfunc_end1:
	.size	RTC_SetDateAndTime, .Lfunc_end1-RTC_SetDateAndTime
	.cfi_endproc
	.cantunwind
	.fnend
                                        @ -- End function
	.section	.text.RTC_Close,"ax",%progbits
	.hidden	RTC_Close                       @ -- Begin function RTC_Close
	.globl	RTC_Close
	.p2align	2
	.type	RTC_Close,%function
	.code	16                              @ @RTC_Close
	.thumb_func
RTC_Close:
.Lfunc_begin2:
	.loc	2 106 0 is_stmt 1               @ ../../../../Library/StdDriver/src/rtc.c:106:0
	.fnstart
	.cfi_startproc
@ %bb.0:
	ldr	r1, __arm_cp.2_0
.Ltmp30:
	.loc	2 107 18 prologue_end           @ ../../../../Library/StdDriver/src/rtc.c:107:18
	ldr	r0, [r1]
	movs	r2, #2
	bics	r0, r2
	str	r0, [r1]
	.loc	2 108 1                         @ ../../../../Library/StdDriver/src/rtc.c:108:1
	bx	lr
.Ltmp31:
	.p2align	2
@ %bb.1:
	.loc	2 0 1 is_stmt 0                 @ ../../../../Library/StdDriver/src/rtc.c:0:1
__arm_cp.2_0:
	.long	1073742344                      @ 0x40000208
.Lcpi_end7:
	.size	__arm_cp.2_0, .Lcpi_end7-__arm_cp.2_0
.Lfunc_end2:
	.size	RTC_Close, .Lfunc_end2-RTC_Close
	.cfi_endproc
	.cantunwind
	.fnend
                                        @ -- End function
	.section	.text.RTC_32KCalibration,"ax",%progbits
	.hidden	RTC_32KCalibration              @ -- Begin function RTC_32KCalibration
	.globl	RTC_32KCalibration
	.p2align	2
	.type	RTC_32KCalibration,%function
	.code	16                              @ @RTC_32KCalibration
	.thumb_func
RTC_32KCalibration:
.Lfunc_begin3:
	.loc	2 118 0 is_stmt 1               @ ../../../../Library/StdDriver/src/rtc.c:118:0
	.fnstart
	.cfi_startproc
@ %bb.0:
	.pad	#12
	sub	sp, #12
	.cfi_def_cfa_offset 12
	str	r0, [sp, #8]
.Ltmp32:
	.loc	2 127 32 prologue_end           @ ../../../../Library/StdDriver/src/rtc.c:127:32
	ldr	r0, [sp, #8]
	ldr	r1, __arm_cp.3_0
	.loc	2 127 51 is_stmt 0              @ ../../../../Library/StdDriver/src/rtc.c:127:51
	sdiv	r3, r0, r1
	mov	r2, r1
	muls	r2, r3, r2
	subs	r0, r0, r2
	.loc	2 127 19                        @ ../../../../Library/StdDriver/src/rtc.c:127:19
	str	r0, [sp]
	.loc	2 129 23 is_stmt 1              @ ../../../../Library/StdDriver/src/rtc.c:129:23
	ldr	r0, [sp]
	.loc	2 129 37 is_stmt 0              @ ../../../../Library/StdDriver/src/rtc.c:129:37
	lsls	r0, r0, #6
	.loc	2 129 43                        @ ../../../../Library/StdDriver/src/rtc.c:129:43
	udiv	r0, r0, r1
	.loc	2 129 19                        @ ../../../../Library/StdDriver/src/rtc.c:129:19
	str	r0, [sp]
	.loc	2 130 19 is_stmt 1              @ ../../../../Library/StdDriver/src/rtc.c:130:19
	ldr	r0, [sp]
	movs	r1, #63
	ands	r0, r1
	str	r0, [sp]
.Ltmp33:
	.loc	2 136 9                         @ ../../../../Library/StdDriver/src/rtc.c:136:9
	ldr	r0, [sp, #8]
	ldr	r1, __arm_cp.3_1
.Ltmp34:
	.loc	2 136 9 is_stmt 0               @ ../../../../Library/StdDriver/src/rtc.c:136:9
	cmp	r0, r1
	blo	.LBB3_2
	b	.LBB3_1
.LBB3_1:
	.loc	2 0 9                           @ ../../../../Library/StdDriver/src/rtc.c:0:9
	ldr	r0, __arm_cp.3_4
.Ltmp35:
	.loc	2 138 23 is_stmt 1              @ ../../../../Library/StdDriver/src/rtc.c:138:23
	str	r0, [sp]
	.loc	2 139 5                         @ ../../../../Library/StdDriver/src/rtc.c:139:5
	b	.LBB3_13
.Ltmp36:
.LBB3_2:
	.loc	2 140 14                        @ ../../../../Library/StdDriver/src/rtc.c:140:14
	ldr	r0, [sp, #8]
	ldr	r1, __arm_cp.3_2
.Ltmp37:
	.loc	2 140 14 is_stmt 0              @ ../../../../Library/StdDriver/src/rtc.c:140:14
	cmp	r0, r1
	bhi	.LBB3_4
	b	.LBB3_3
.LBB3_3:
	.loc	2 0 14                          @ ../../../../Library/StdDriver/src/rtc.c:0:14
	movs	r0, #0
.Ltmp38:
	.loc	2 142 23 is_stmt 1              @ ../../../../Library/StdDriver/src/rtc.c:142:23
	str	r0, [sp]
	.loc	2 143 5                         @ ../../../../Library/StdDriver/src/rtc.c:143:5
	b	.LBB3_12
.Ltmp39:
.LBB3_4:
	.loc	2 0 5 is_stmt 0                 @ ../../../../Library/StdDriver/src/rtc.c:0:5
	movs	r0, #0
.Ltmp40:
	.loc	2 147 23 is_stmt 1              @ ../../../../Library/StdDriver/src/rtc.c:147:23
	str	r0, [sp, #4]
	.loc	2 147 14 is_stmt 0              @ ../../../../Library/StdDriver/src/rtc.c:147:14
	b	.LBB3_5
.LBB3_5:                                @ =>This Inner Loop Header: Depth=1
.Ltmp41:
	.loc	2 147 28                        @ ../../../../Library/StdDriver/src/rtc.c:147:28
	ldr	r0, [sp, #4]
.Ltmp42:
	.loc	2 147 9                         @ ../../../../Library/StdDriver/src/rtc.c:147:9
	cmp	r0, #31
	bhi	.LBB3_11
	b	.LBB3_6
.LBB3_6:                                @   in Loop: Header=BB3_5 Depth=1
.Ltmp43:
	.loc	2 149 18 is_stmt 1              @ ../../../../Library/StdDriver/src/rtc.c:149:18
	ldr	r0, [sp, #8]
	.loc	2 149 53 is_stmt 0              @ ../../../../Library/StdDriver/src/rtc.c:149:53
	ldr	r2, [sp, #4]
	ldr	r1, __arm_cp.3_0
	.loc	2 149 62                        @ ../../../../Library/StdDriver/src/rtc.c:149:62
	muls	r1, r2, r1
	ldr	r2, __arm_cp.3_3
	.loc	2 149 50                        @ ../../../../Library/StdDriver/src/rtc.c:149:50
	adds	r1, r1, r2
	.loc	2 149 72                        @ ../../../../Library/StdDriver/src/rtc.c:149:72
	cmp	r0, r1
	blo	.LBB3_9
	b	.LBB3_7
.LBB3_7:                                @   in Loop: Header=BB3_5 Depth=1
	.loc	2 149 76                        @ ../../../../Library/StdDriver/src/rtc.c:149:76
	ldr	r0, [sp, #8]
	.loc	2 149 111                       @ ../../../../Library/StdDriver/src/rtc.c:149:111
	ldr	r1, [sp, #4]
	.loc	2 149 120                       @ ../../../../Library/StdDriver/src/rtc.c:149:120
	adds	r2, r1, #1
	ldr	r1, __arm_cp.3_0
	.loc	2 149 125                       @ ../../../../Library/StdDriver/src/rtc.c:149:125
	muls	r1, r2, r1
	ldr	r2, __arm_cp.3_3
	.loc	2 149 107                       @ ../../../../Library/StdDriver/src/rtc.c:149:107
	adds	r1, r1, r2
.Ltmp44:
	.loc	2 149 17                        @ ../../../../Library/StdDriver/src/rtc.c:149:17
	cmp	r0, r1
	bhs	.LBB3_9
	b	.LBB3_8
.LBB3_8:
.Ltmp45:
	.loc	2 151 35 is_stmt 1              @ ../../../../Library/StdDriver/src/rtc.c:151:35
	ldr	r0, [sp, #4]
	.loc	2 151 44 is_stmt 0              @ ../../../../Library/StdDriver/src/rtc.c:151:44
	lsls	r1, r0, #8
	.loc	2 151 31                        @ ../../../../Library/StdDriver/src/rtc.c:151:31
	ldr	r0, [sp]
	adds	r0, r0, r1
	str	r0, [sp]
	.loc	2 152 17 is_stmt 1              @ ../../../../Library/StdDriver/src/rtc.c:152:17
	b	.LBB3_11
.Ltmp46:
.LBB3_9:                                @   in Loop: Header=BB3_5 Depth=1
	.loc	2 154 9                         @ ../../../../Library/StdDriver/src/rtc.c:154:9
	b	.LBB3_10
.Ltmp47:
.LBB3_10:                               @   in Loop: Header=BB3_5 Depth=1
	.loc	2 147 54                        @ ../../../../Library/StdDriver/src/rtc.c:147:54
	ldr	r0, [sp, #4]
	adds	r0, r0, #1
	str	r0, [sp, #4]
	.loc	2 147 9 is_stmt 0               @ ../../../../Library/StdDriver/src/rtc.c:147:9
	b	.LBB3_5
.Ltmp48:
.LBB3_11:
	.loc	2 0 9                           @ ../../../../Library/StdDriver/src/rtc.c:0:9
	b	.LBB3_12
.LBB3_12:
	b	.LBB3_13
.LBB3_13:
	.loc	2 158 30 is_stmt 1              @ ../../../../Library/StdDriver/src/rtc.c:158:30
	ldr	r0, [sp]
	ldr	r1, __arm_cp.3_5
	.loc	2 158 18 is_stmt 0              @ ../../../../Library/StdDriver/src/rtc.c:158:18
	str	r0, [r1]
	.loc	2 159 1 is_stmt 1               @ ../../../../Library/StdDriver/src/rtc.c:159:1
	add	sp, #12
	bx	lr
.Ltmp49:
	.p2align	2
@ %bb.14:
	.loc	2 0 1 is_stmt 0                 @ ../../../../Library/StdDriver/src/rtc.c:0:1
__arm_cp.3_0:
	.long	10000                           @ 0x2710
.Lcpi_end8:
	.size	__arm_cp.3_0, .Lcpi_end8-__arm_cp.3_0
__arm_cp.3_1:
	.long	327840000                       @ 0x138a7100
.Lcpi_end9:
	.size	__arm_cp.3_1, .Lcpi_end9-__arm_cp.3_1
__arm_cp.3_2:
	.long	327519999                       @ 0x13858eff
.Lcpi_end10:
	.size	__arm_cp.3_2, .Lcpi_end10-__arm_cp.3_2
__arm_cp.3_3:
	.long	327520000                       @ 0x13858f00
.Lcpi_end11:
	.size	__arm_cp.3_3, .Lcpi_end11-__arm_cp.3_3
__arm_cp.3_4:
	.long	7999                            @ 0x1f3f
.Lcpi_end12:
	.size	__arm_cp.3_4, .Lcpi_end12-__arm_cp.3_4
__arm_cp.3_5:
	.long	1074008072                      @ 0x40041008
.Lcpi_end13:
	.size	__arm_cp.3_5, .Lcpi_end13-__arm_cp.3_5
.Lfunc_end3:
	.size	RTC_32KCalibration, .Lfunc_end3-RTC_32KCalibration
	.cfi_endproc
	.cantunwind
	.fnend
                                        @ -- End function
	.section	.text.RTC_GetDateAndTime,"ax",%progbits
	.hidden	RTC_GetDateAndTime              @ -- Begin function RTC_GetDateAndTime
	.globl	RTC_GetDateAndTime
	.p2align	2
	.type	RTC_GetDateAndTime,%function
	.code	16                              @ @RTC_GetDateAndTime
	.thumb_func
RTC_GetDateAndTime:
.Lfunc_begin4:
	.loc	2 179 0 is_stmt 1               @ ../../../../Library/StdDriver/src/rtc.c:179:0
	.fnstart
	.cfi_startproc
@ %bb.0:
	.save	{r4, r5, r6, r7, lr}
	push	{r4, r5, r6, r7, lr}
	.cfi_def_cfa_offset 20
	.cfi_offset lr, -4
	.cfi_offset r7, -8
	.cfi_offset r6, -12
	.cfi_offset r5, -16
	.cfi_offset r4, -20
	.pad	#24
	sub	sp, #24
	.cfi_def_cfa_offset 44
	str	r0, [sp, #20]
	ldr	r0, __arm_cp.4_0
.Ltmp50:
	.loc	2 182 31 prologue_end           @ ../../../../Library/StdDriver/src/rtc.c:182:31
	ldr	r0, [r0]
	movs	r1, #1
	.loc	2 182 38 is_stmt 0              @ ../../../../Library/StdDriver/src/rtc.c:182:38
	ands	r0, r1
	.loc	2 182 5                         @ ../../../../Library/StdDriver/src/rtc.c:182:5
	ldr	r1, [sp, #20]
	.loc	2 182 24                        @ ../../../../Library/StdDriver/src/rtc.c:182:24
	str	r0, [r1, #28]
	ldr	r0, __arm_cp.4_1
	.loc	2 183 31 is_stmt 1              @ ../../../../Library/StdDriver/src/rtc.c:183:31
	ldr	r0, [r0]
	movs	r1, #7
	.loc	2 183 39 is_stmt 0              @ ../../../../Library/StdDriver/src/rtc.c:183:39
	ands	r0, r1
	.loc	2 183 5                         @ ../../../../Library/StdDriver/src/rtc.c:183:5
	ldr	r1, [sp, #20]
	.loc	2 183 24                        @ ../../../../Library/StdDriver/src/rtc.c:183:24
	str	r0, [r1, #12]
	ldr	r0, __arm_cp.4_2
	.loc	2 186 26 is_stmt 1              @ ../../../../Library/StdDriver/src/rtc.c:186:26
	ldr	r1, [r0]
	movs	r7, #15
	lsls	r2, r7, #20
	.loc	2 186 30 is_stmt 0              @ ../../../../Library/StdDriver/src/rtc.c:186:30
	ands	r1, r2
	.loc	2 186 53                        @ ../../../../Library/StdDriver/src/rtc.c:186:53
	lsrs	r1, r1, #20
	.loc	2 186 18                        @ ../../../../Library/StdDriver/src/rtc.c:186:18
	ldr	r2, __arm_cp.4_3
	str	r2, [sp, #12]                   @ 4-byte Spill
	str	r1, [r2]
	.loc	2 187 26 is_stmt 1              @ ../../../../Library/StdDriver/src/rtc.c:187:26
	ldr	r1, [r0]
	lsls	r2, r7, #16
	.loc	2 187 30 is_stmt 0              @ ../../../../Library/StdDriver/src/rtc.c:187:30
	str	r2, [sp]                        @ 4-byte Spill
	ands	r1, r2
	.loc	2 187 50                        @ ../../../../Library/StdDriver/src/rtc.c:187:50
	lsrs	r1, r1, #16
	.loc	2 187 18                        @ ../../../../Library/StdDriver/src/rtc.c:187:18
	ldr	r5, __arm_cp.4_4
	str	r1, [r5]
	.loc	2 188 26 is_stmt 1              @ ../../../../Library/StdDriver/src/rtc.c:188:26
	ldr	r1, [r0]
	movw	r2, #4096
	.loc	2 188 30 is_stmt 0              @ ../../../../Library/StdDriver/src/rtc.c:188:30
	ands	r1, r2
	.loc	2 188 52                        @ ../../../../Library/StdDriver/src/rtc.c:188:52
	lsrs	r1, r1, #12
	.loc	2 188 18                        @ ../../../../Library/StdDriver/src/rtc.c:188:18
	ldr	r3, __arm_cp.4_5
	str	r1, [r3]
	.loc	2 189 26 is_stmt 1              @ ../../../../Library/StdDriver/src/rtc.c:189:26
	ldr	r1, [r0]
	movw	r2, #3840
	.loc	2 189 30 is_stmt 0              @ ../../../../Library/StdDriver/src/rtc.c:189:30
	str	r2, [sp, #4]                    @ 4-byte Spill
	ands	r1, r2
	.loc	2 189 49                        @ ../../../../Library/StdDriver/src/rtc.c:189:49
	lsrs	r1, r1, #8
	.loc	2 189 18                        @ ../../../../Library/StdDriver/src/rtc.c:189:18
	ldr	r4, __arm_cp.4_6
	str	r1, [r4]
	.loc	2 190 26 is_stmt 1              @ ../../../../Library/StdDriver/src/rtc.c:190:26
	ldr	r1, [r0]
	movs	r2, #48
	.loc	2 190 30 is_stmt 0              @ ../../../../Library/StdDriver/src/rtc.c:190:30
	ands	r1, r2
	.loc	2 190 52                        @ ../../../../Library/StdDriver/src/rtc.c:190:52
	lsrs	r1, r1, #4
	.loc	2 190 18                        @ ../../../../Library/StdDriver/src/rtc.c:190:18
	ldr	r2, __arm_cp.4_7
	str	r1, [r2]
	.loc	2 191 26 is_stmt 1              @ ../../../../Library/StdDriver/src/rtc.c:191:26
	ldr	r0, [r0]
	.loc	2 191 30 is_stmt 0              @ ../../../../Library/StdDriver/src/rtc.c:191:30
	ands	r0, r7
	.loc	2 191 18                        @ ../../../../Library/StdDriver/src/rtc.c:191:18
	ldr	r1, __arm_cp.4_8
	str	r1, [sp, #8]                    @ 4-byte Spill
	str	r0, [r1]
	ldr	r6, __arm_cp.4_9
	.loc	2 194 25 is_stmt 1              @ ../../../../Library/StdDriver/src/rtc.c:194:25
	ldr	r0, [r6]
	movs	r1, #3
	lsls	r1, r1, #20
	.loc	2 194 30 is_stmt 0              @ ../../../../Library/StdDriver/src/rtc.c:194:30
	ands	r0, r1
	.loc	2 194 52                        @ ../../../../Library/StdDriver/src/rtc.c:194:52
	lsrs	r0, r0, #20
	.loc	2 194 17                        @ ../../../../Library/StdDriver/src/rtc.c:194:17
	ldr	r1, __arm_cp.4_10
	str	r0, [r1]
	.loc	2 195 25 is_stmt 1              @ ../../../../Library/StdDriver/src/rtc.c:195:25
	ldr	r1, [sp]                        @ 4-byte Reload
	ldr	r0, [r6]
	.loc	2 195 30 is_stmt 0              @ ../../../../Library/StdDriver/src/rtc.c:195:30
	ands	r0, r1
	.loc	2 195 49                        @ ../../../../Library/StdDriver/src/rtc.c:195:49
	lsrs	r0, r0, #16
	.loc	2 195 17                        @ ../../../../Library/StdDriver/src/rtc.c:195:17
	ldr	r1, __arm_cp.4_11
	str	r0, [r1]
	.loc	2 196 25 is_stmt 1              @ ../../../../Library/StdDriver/src/rtc.c:196:25
	ldr	r0, [r6]
	movw	r1, #28672
	.loc	2 196 30 is_stmt 0              @ ../../../../Library/StdDriver/src/rtc.c:196:30
	ands	r0, r1
	.loc	2 196 53                        @ ../../../../Library/StdDriver/src/rtc.c:196:53
	lsrs	r0, r0, #12
	.loc	2 196 17                        @ ../../../../Library/StdDriver/src/rtc.c:196:17
	ldr	r1, __arm_cp.4_12
	str	r0, [r1]
	.loc	2 197 25 is_stmt 1              @ ../../../../Library/StdDriver/src/rtc.c:197:25
	ldr	r1, [sp, #4]                    @ 4-byte Reload
	ldr	r0, [r6]
	.loc	2 197 30 is_stmt 0              @ ../../../../Library/StdDriver/src/rtc.c:197:30
	ands	r0, r1
	.loc	2 197 50                        @ ../../../../Library/StdDriver/src/rtc.c:197:50
	lsrs	r0, r0, #8
	.loc	2 197 17                        @ ../../../../Library/StdDriver/src/rtc.c:197:17
	ldr	r1, __arm_cp.4_13
	str	r0, [r1]
	.loc	2 198 25 is_stmt 1              @ ../../../../Library/StdDriver/src/rtc.c:198:25
	ldr	r0, [r6]
	movs	r1, #112
	.loc	2 198 30 is_stmt 0              @ ../../../../Library/StdDriver/src/rtc.c:198:30
	ands	r0, r1
	.loc	2 198 53                        @ ../../../../Library/StdDriver/src/rtc.c:198:53
	lsrs	r0, r0, #4
	.loc	2 198 17                        @ ../../../../Library/StdDriver/src/rtc.c:198:17
	ldr	r1, __arm_cp.4_14
	str	r0, [r1]
	.loc	2 199 25 is_stmt 1              @ ../../../../Library/StdDriver/src/rtc.c:199:25
	ldr	r1, [sp, #8]                    @ 4-byte Reload
	ldr	r0, [sp, #12]                   @ 4-byte Reload
	ldr	r6, [r6]
	.loc	2 199 30 is_stmt 0              @ ../../../../Library/StdDriver/src/rtc.c:199:30
	ands	r6, r7
	.loc	2 199 17                        @ ../../../../Library/StdDriver/src/rtc.c:199:17
	ldr	r7, __arm_cp.4_15
	str	r6, [r7]
	.loc	2 202 16 is_stmt 1              @ ../../../../Library/StdDriver/src/rtc.c:202:16
	ldr	r7, [r0]
	movs	r0, #10
	.loc	2 202 28 is_stmt 0              @ ../../../../Library/StdDriver/src/rtc.c:202:28
	mov	r6, r0
	muls	r6, r7, r6
	.loc	2 202 13                        @ ../../../../Library/StdDriver/src/rtc.c:202:13
	str	r6, [sp, #16]
	.loc	2 203 15 is_stmt 1              @ ../../../../Library/StdDriver/src/rtc.c:203:15
	ldr	r6, [r5]
	.loc	2 203 12 is_stmt 0              @ ../../../../Library/StdDriver/src/rtc.c:203:12
	ldr	r5, [sp, #16]
	adds	r5, r5, r6
	str	r5, [sp, #16]
	.loc	2 204 21 is_stmt 1              @ ../../../../Library/StdDriver/src/rtc.c:204:21
	ldr	r5, [sp, #16]
	movw	r6, #2000
	.loc	2 204 28 is_stmt 0              @ ../../../../Library/StdDriver/src/rtc.c:204:28
	adds	r5, r5, r6
	.loc	2 204 5                         @ ../../../../Library/StdDriver/src/rtc.c:204:5
	ldr	r6, [sp, #20]
	.loc	2 204 19                        @ ../../../../Library/StdDriver/src/rtc.c:204:19
	str	r5, [r6]
	.loc	2 207 15 is_stmt 1              @ ../../../../Library/StdDriver/src/rtc.c:207:15
	ldr	r5, [r3]
	.loc	2 207 28 is_stmt 0              @ ../../../../Library/StdDriver/src/rtc.c:207:28
	mov	r3, r0
	muls	r3, r5, r3
	.loc	2 207 12                        @ ../../../../Library/StdDriver/src/rtc.c:207:12
	str	r3, [sp, #16]
	.loc	2 208 22 is_stmt 1              @ ../../../../Library/StdDriver/src/rtc.c:208:22
	ldr	r3, [sp, #16]
	.loc	2 208 31 is_stmt 0              @ ../../../../Library/StdDriver/src/rtc.c:208:31
	ldr	r4, [r4]
	.loc	2 208 29                        @ ../../../../Library/StdDriver/src/rtc.c:208:29
	adds	r3, r3, r4
	.loc	2 208 5                         @ ../../../../Library/StdDriver/src/rtc.c:208:5
	ldr	r4, [sp, #20]
	.loc	2 208 20                        @ ../../../../Library/StdDriver/src/rtc.c:208:20
	str	r3, [r4, #4]
	.loc	2 211 15 is_stmt 1              @ ../../../../Library/StdDriver/src/rtc.c:211:15
	ldr	r2, [r2]
	.loc	2 211 26 is_stmt 0              @ ../../../../Library/StdDriver/src/rtc.c:211:26
	muls	r0, r2, r0
	.loc	2 211 12                        @ ../../../../Library/StdDriver/src/rtc.c:211:12
	str	r0, [sp, #16]
	.loc	2 212 21 is_stmt 1              @ ../../../../Library/StdDriver/src/rtc.c:212:21
	ldr	r0, [sp, #16]
	.loc	2 212 31 is_stmt 0              @ ../../../../Library/StdDriver/src/rtc.c:212:31
	ldr	r1, [r1]
	.loc	2 212 29                        @ ../../../../Library/StdDriver/src/rtc.c:212:29
	adds	r0, r0, r1
	.loc	2 212 5                         @ ../../../../Library/StdDriver/src/rtc.c:212:5
	ldr	r1, [sp, #20]
	.loc	2 212 18                        @ ../../../../Library/StdDriver/src/rtc.c:212:18
	str	r0, [r1, #8]
.Ltmp51:
	.loc	2 215 9 is_stmt 1               @ ../../../../Library/StdDriver/src/rtc.c:215:9
	ldr	r0, [sp, #20]
	.loc	2 215 15 is_stmt 0              @ ../../../../Library/StdDriver/src/rtc.c:215:15
	ldr	r0, [r0, #28]
.Ltmp52:
	.loc	2 215 9                         @ ../../../../Library/StdDriver/src/rtc.c:215:9
	cbnz	r0, .LBB4_5
	b	.LBB4_1
.LBB4_1:
.Ltmp53:
	.loc	2 217 19 is_stmt 1              @ ../../../../Library/StdDriver/src/rtc.c:217:19
	ldr	r0, __arm_cp.4_10
	ldr	r1, [r0]
	movs	r0, #10
	.loc	2 217 31 is_stmt 0              @ ../../../../Library/StdDriver/src/rtc.c:217:31
	muls	r0, r1, r0
	.loc	2 217 16                        @ ../../../../Library/StdDriver/src/rtc.c:217:16
	str	r0, [sp, #16]
	.loc	2 218 19 is_stmt 1              @ ../../../../Library/StdDriver/src/rtc.c:218:19
	ldr	r0, __arm_cp.4_11
	ldr	r1, [r0]
	.loc	2 218 16 is_stmt 0              @ ../../../../Library/StdDriver/src/rtc.c:218:16
	ldr	r0, [sp, #16]
	adds	r0, r0, r1
	str	r0, [sp, #16]
	.loc	2 219 25 is_stmt 1              @ ../../../../Library/StdDriver/src/rtc.c:219:25
	ldr	r0, [sp, #16]
	.loc	2 219 9 is_stmt 0               @ ../../../../Library/StdDriver/src/rtc.c:219:9
	ldr	r1, [sp, #20]
	.loc	2 219 23                        @ ../../../../Library/StdDriver/src/rtc.c:219:23
	str	r0, [r1, #16]
.Ltmp54:
	.loc	2 221 13 is_stmt 1              @ ../../../../Library/StdDriver/src/rtc.c:221:13
	ldr	r0, [sp, #20]
	.loc	2 221 19 is_stmt 0              @ ../../../../Library/StdDriver/src/rtc.c:221:19
	ldr	r0, [r0, #16]
.Ltmp55:
	.loc	2 221 13                        @ ../../../../Library/StdDriver/src/rtc.c:221:13
	cmp	r0, #21
	blo	.LBB4_3
	b	.LBB4_2
.LBB4_2:
.Ltmp56:
	.loc	2 223 13 is_stmt 1              @ ../../../../Library/StdDriver/src/rtc.c:223:13
	ldr	r1, [sp, #20]
	movs	r0, #2
	.loc	2 223 28 is_stmt 0              @ ../../../../Library/StdDriver/src/rtc.c:223:28
	str	r0, [r1, #32]
	.loc	2 224 13 is_stmt 1              @ ../../../../Library/StdDriver/src/rtc.c:224:13
	ldr	r1, [sp, #20]
	.loc	2 224 27 is_stmt 0              @ ../../../../Library/StdDriver/src/rtc.c:224:27
	ldr	r0, [r1, #16]
	subs	r0, #20
	str	r0, [r1, #16]
	.loc	2 225 9 is_stmt 1               @ ../../../../Library/StdDriver/src/rtc.c:225:9
	b	.LBB4_4
.Ltmp57:
.LBB4_3:
	.loc	2 228 13                        @ ../../../../Library/StdDriver/src/rtc.c:228:13
	ldr	r1, [sp, #20]
	movs	r0, #1
	.loc	2 228 27 is_stmt 0              @ ../../../../Library/StdDriver/src/rtc.c:228:27
	str	r0, [r1, #32]
	b	.LBB4_4
.Ltmp58:
.LBB4_4:
	.loc	2 231 20 is_stmt 1              @ ../../../../Library/StdDriver/src/rtc.c:231:20
	ldr	r0, __arm_cp.4_12
	ldr	r2, [r0]
	movs	r0, #10
	.loc	2 231 32 is_stmt 0              @ ../../../../Library/StdDriver/src/rtc.c:231:32
	mov	r1, r0
	muls	r1, r2, r1
	.loc	2 231 17                        @ ../../../../Library/StdDriver/src/rtc.c:231:17
	str	r1, [sp, #16]
	.loc	2 232 19 is_stmt 1              @ ../../../../Library/StdDriver/src/rtc.c:232:19
	ldr	r1, __arm_cp.4_13
	ldr	r2, [r1]
	.loc	2 232 16 is_stmt 0              @ ../../../../Library/StdDriver/src/rtc.c:232:16
	ldr	r1, [sp, #16]
	adds	r1, r1, r2
	str	r1, [sp, #16]
	.loc	2 233 27 is_stmt 1              @ ../../../../Library/StdDriver/src/rtc.c:233:27
	ldr	r1, [sp, #16]
	.loc	2 233 9 is_stmt 0               @ ../../../../Library/StdDriver/src/rtc.c:233:9
	ldr	r2, [sp, #20]
	.loc	2 233 25                        @ ../../../../Library/StdDriver/src/rtc.c:233:25
	str	r1, [r2, #20]
	.loc	2 235 20 is_stmt 1              @ ../../../../Library/StdDriver/src/rtc.c:235:20
	ldr	r1, __arm_cp.4_14
	ldr	r1, [r1]
	.loc	2 235 32 is_stmt 0              @ ../../../../Library/StdDriver/src/rtc.c:235:32
	muls	r0, r1, r0
	.loc	2 235 17                        @ ../../../../Library/StdDriver/src/rtc.c:235:17
	str	r0, [sp, #16]
	.loc	2 236 19 is_stmt 1              @ ../../../../Library/StdDriver/src/rtc.c:236:19
	ldr	r0, __arm_cp.4_15
	ldr	r1, [r0]
	.loc	2 236 16 is_stmt 0              @ ../../../../Library/StdDriver/src/rtc.c:236:16
	ldr	r0, [sp, #16]
	adds	r0, r0, r1
	str	r0, [sp, #16]
	.loc	2 237 27 is_stmt 1              @ ../../../../Library/StdDriver/src/rtc.c:237:27
	ldr	r0, [sp, #16]
	.loc	2 237 9 is_stmt 0               @ ../../../../Library/StdDriver/src/rtc.c:237:9
	ldr	r1, [sp, #20]
	.loc	2 237 25                        @ ../../../../Library/StdDriver/src/rtc.c:237:25
	str	r0, [r1, #24]
	.loc	2 238 5 is_stmt 1               @ ../../../../Library/StdDriver/src/rtc.c:238:5
	b	.LBB4_6
.Ltmp59:
.LBB4_5:
	.loc	2 241 20                        @ ../../../../Library/StdDriver/src/rtc.c:241:20
	ldr	r0, __arm_cp.4_10
	ldr	r2, [r0]
	movs	r0, #10
	.loc	2 241 32 is_stmt 0              @ ../../../../Library/StdDriver/src/rtc.c:241:32
	mov	r1, r0
	muls	r1, r2, r1
	.loc	2 241 17                        @ ../../../../Library/StdDriver/src/rtc.c:241:17
	str	r1, [sp, #16]
	.loc	2 242 19 is_stmt 1              @ ../../../../Library/StdDriver/src/rtc.c:242:19
	ldr	r1, __arm_cp.4_11
	ldr	r2, [r1]
	.loc	2 242 16 is_stmt 0              @ ../../../../Library/StdDriver/src/rtc.c:242:16
	ldr	r1, [sp, #16]
	adds	r1, r1, r2
	str	r1, [sp, #16]
	.loc	2 243 25 is_stmt 1              @ ../../../../Library/StdDriver/src/rtc.c:243:25
	ldr	r1, [sp, #16]
	.loc	2 243 9 is_stmt 0               @ ../../../../Library/StdDriver/src/rtc.c:243:9
	ldr	r2, [sp, #20]
	.loc	2 243 23                        @ ../../../../Library/StdDriver/src/rtc.c:243:23
	str	r1, [r2, #16]
	.loc	2 245 20 is_stmt 1              @ ../../../../Library/StdDriver/src/rtc.c:245:20
	ldr	r1, __arm_cp.4_12
	ldr	r2, [r1]
	.loc	2 245 31 is_stmt 0              @ ../../../../Library/StdDriver/src/rtc.c:245:31
	mov	r1, r0
	muls	r1, r2, r1
	.loc	2 245 17                        @ ../../../../Library/StdDriver/src/rtc.c:245:17
	str	r1, [sp, #16]
	.loc	2 246 20 is_stmt 1              @ ../../../../Library/StdDriver/src/rtc.c:246:20
	ldr	r1, __arm_cp.4_13
	ldr	r2, [r1]
	.loc	2 246 16 is_stmt 0              @ ../../../../Library/StdDriver/src/rtc.c:246:16
	ldr	r1, [sp, #16]
	adds	r1, r1, r2
	str	r1, [sp, #16]
	.loc	2 247 27 is_stmt 1              @ ../../../../Library/StdDriver/src/rtc.c:247:27
	ldr	r1, [sp, #16]
	.loc	2 247 9 is_stmt 0               @ ../../../../Library/StdDriver/src/rtc.c:247:9
	ldr	r2, [sp, #20]
	.loc	2 247 25                        @ ../../../../Library/StdDriver/src/rtc.c:247:25
	str	r1, [r2, #20]
	.loc	2 249 20 is_stmt 1              @ ../../../../Library/StdDriver/src/rtc.c:249:20
	ldr	r1, __arm_cp.4_14
	ldr	r1, [r1]
	.loc	2 249 31 is_stmt 0              @ ../../../../Library/StdDriver/src/rtc.c:249:31
	muls	r0, r1, r0
	.loc	2 249 17                        @ ../../../../Library/StdDriver/src/rtc.c:249:17
	str	r0, [sp, #16]
	.loc	2 250 19 is_stmt 1              @ ../../../../Library/StdDriver/src/rtc.c:250:19
	ldr	r0, __arm_cp.4_15
	ldr	r1, [r0]
	.loc	2 250 16 is_stmt 0              @ ../../../../Library/StdDriver/src/rtc.c:250:16
	ldr	r0, [sp, #16]
	adds	r0, r0, r1
	str	r0, [sp, #16]
	.loc	2 251 27 is_stmt 1              @ ../../../../Library/StdDriver/src/rtc.c:251:27
	ldr	r0, [sp, #16]
	.loc	2 251 9 is_stmt 0               @ ../../../../Library/StdDriver/src/rtc.c:251:9
	ldr	r1, [sp, #20]
	.loc	2 251 25                        @ ../../../../Library/StdDriver/src/rtc.c:251:25
	str	r0, [r1, #24]
	b	.LBB4_6
.Ltmp60:
.LBB4_6:
	.loc	2 253 1 is_stmt 1               @ ../../../../Library/StdDriver/src/rtc.c:253:1
	add	sp, #24
	pop	{r4, r5, r6, r7, pc}
.Ltmp61:
	.p2align	2
@ %bb.7:
	.loc	2 0 1 is_stmt 0                 @ ../../../../Library/StdDriver/src/rtc.c:0:1
__arm_cp.4_0:
	.long	1074008084                      @ 0x40041014
.Lcpi_end14:
	.size	__arm_cp.4_0, .Lcpi_end14-__arm_cp.4_0
__arm_cp.4_1:
	.long	1074008088                      @ 0x40041018
.Lcpi_end15:
	.size	__arm_cp.4_1, .Lcpi_end15-__arm_cp.4_1
__arm_cp.4_2:
	.long	1074008080                      @ 0x40041010
.Lcpi_end16:
	.size	__arm_cp.4_2, .Lcpi_end16-__arm_cp.4_2
__arm_cp.4_3:
	.long	g_u32HiYear
.Lcpi_end17:
	.size	__arm_cp.4_3, .Lcpi_end17-__arm_cp.4_3
__arm_cp.4_4:
	.long	g_u32LoYear
.Lcpi_end18:
	.size	__arm_cp.4_4, .Lcpi_end18-__arm_cp.4_4
__arm_cp.4_5:
	.long	g_u32HiMonth
.Lcpi_end19:
	.size	__arm_cp.4_5, .Lcpi_end19-__arm_cp.4_5
__arm_cp.4_6:
	.long	g_u32LoMonth
.Lcpi_end20:
	.size	__arm_cp.4_6, .Lcpi_end20-__arm_cp.4_6
__arm_cp.4_7:
	.long	g_u32HiDay
.Lcpi_end21:
	.size	__arm_cp.4_7, .Lcpi_end21-__arm_cp.4_7
__arm_cp.4_8:
	.long	g_u32LoDay
.Lcpi_end22:
	.size	__arm_cp.4_8, .Lcpi_end22-__arm_cp.4_8
__arm_cp.4_9:
	.long	1074008076                      @ 0x4004100c
.Lcpi_end23:
	.size	__arm_cp.4_9, .Lcpi_end23-__arm_cp.4_9
__arm_cp.4_10:
	.long	g_u32HiHour
.Lcpi_end24:
	.size	__arm_cp.4_10, .Lcpi_end24-__arm_cp.4_10
__arm_cp.4_11:
	.long	g_u32LoHour
.Lcpi_end25:
	.size	__arm_cp.4_11, .Lcpi_end25-__arm_cp.4_11
__arm_cp.4_12:
	.long	g_u32HiMin
.Lcpi_end26:
	.size	__arm_cp.4_12, .Lcpi_end26-__arm_cp.4_12
__arm_cp.4_13:
	.long	g_u32LoMin
.Lcpi_end27:
	.size	__arm_cp.4_13, .Lcpi_end27-__arm_cp.4_13
__arm_cp.4_14:
	.long	g_u32HiSec
.Lcpi_end28:
	.size	__arm_cp.4_14, .Lcpi_end28-__arm_cp.4_14
__arm_cp.4_15:
	.long	g_u32LoSec
.Lcpi_end29:
	.size	__arm_cp.4_15, .Lcpi_end29-__arm_cp.4_15
.Lfunc_end4:
	.size	RTC_GetDateAndTime, .Lfunc_end4-RTC_GetDateAndTime
	.cfi_endproc
	.cantunwind
	.fnend
                                        @ -- End function
	.section	.text.RTC_GetAlarmDateAndTime,"ax",%progbits
	.hidden	RTC_GetAlarmDateAndTime         @ -- Begin function RTC_GetAlarmDateAndTime
	.globl	RTC_GetAlarmDateAndTime
	.p2align	2
	.type	RTC_GetAlarmDateAndTime,%function
	.code	16                              @ @RTC_GetAlarmDateAndTime
	.thumb_func
RTC_GetAlarmDateAndTime:
.Lfunc_begin5:
	.loc	2 273 0 is_stmt 1               @ ../../../../Library/StdDriver/src/rtc.c:273:0
	.fnstart
	.cfi_startproc
@ %bb.0:
	.save	{r4, r5, r6, r7, lr}
	push	{r4, r5, r6, r7, lr}
	.cfi_def_cfa_offset 20
	.cfi_offset lr, -4
	.cfi_offset r7, -8
	.cfi_offset r6, -12
	.cfi_offset r5, -16
	.cfi_offset r4, -20
	.pad	#24
	sub	sp, #24
	.cfi_def_cfa_offset 44
	str	r0, [sp, #20]
	ldr	r0, __arm_cp.5_0
.Ltmp62:
	.loc	2 276 31 prologue_end           @ ../../../../Library/StdDriver/src/rtc.c:276:31
	ldr	r0, [r0]
	movs	r1, #1
	.loc	2 276 38 is_stmt 0              @ ../../../../Library/StdDriver/src/rtc.c:276:38
	ands	r0, r1
	.loc	2 276 5                         @ ../../../../Library/StdDriver/src/rtc.c:276:5
	ldr	r1, [sp, #20]
	.loc	2 276 24                        @ ../../../../Library/StdDriver/src/rtc.c:276:24
	str	r0, [r1, #28]
	ldr	r0, __arm_cp.5_1
	.loc	2 277 31 is_stmt 1              @ ../../../../Library/StdDriver/src/rtc.c:277:31
	ldr	r0, [r0]
	movs	r1, #7
	.loc	2 277 39 is_stmt 0              @ ../../../../Library/StdDriver/src/rtc.c:277:39
	ands	r0, r1
	.loc	2 277 5                         @ ../../../../Library/StdDriver/src/rtc.c:277:5
	ldr	r1, [sp, #20]
	.loc	2 277 24                        @ ../../../../Library/StdDriver/src/rtc.c:277:24
	str	r0, [r1, #12]
	ldr	r0, __arm_cp.5_2
	.loc	2 280 26 is_stmt 1              @ ../../../../Library/StdDriver/src/rtc.c:280:26
	ldr	r1, [r0]
	movs	r7, #15
	lsls	r2, r7, #20
	.loc	2 280 31 is_stmt 0              @ ../../../../Library/StdDriver/src/rtc.c:280:31
	ands	r1, r2
	.loc	2 280 55                        @ ../../../../Library/StdDriver/src/rtc.c:280:55
	lsrs	r1, r1, #20
	.loc	2 280 18                        @ ../../../../Library/StdDriver/src/rtc.c:280:18
	ldr	r2, __arm_cp.5_3
	str	r2, [sp, #12]                   @ 4-byte Spill
	str	r1, [r2]
	.loc	2 281 26 is_stmt 1              @ ../../../../Library/StdDriver/src/rtc.c:281:26
	ldr	r1, [r0]
	lsls	r2, r7, #16
	.loc	2 281 31 is_stmt 0              @ ../../../../Library/StdDriver/src/rtc.c:281:31
	str	r2, [sp]                        @ 4-byte Spill
	ands	r1, r2
	.loc	2 281 52                        @ ../../../../Library/StdDriver/src/rtc.c:281:52
	lsrs	r1, r1, #16
	.loc	2 281 18                        @ ../../../../Library/StdDriver/src/rtc.c:281:18
	ldr	r5, __arm_cp.5_4
	str	r1, [r5]
	.loc	2 282 26 is_stmt 1              @ ../../../../Library/StdDriver/src/rtc.c:282:26
	ldr	r1, [r0]
	movw	r2, #4096
	.loc	2 282 31 is_stmt 0              @ ../../../../Library/StdDriver/src/rtc.c:282:31
	ands	r1, r2
	.loc	2 282 54                        @ ../../../../Library/StdDriver/src/rtc.c:282:54
	lsrs	r1, r1, #12
	.loc	2 282 18                        @ ../../../../Library/StdDriver/src/rtc.c:282:18
	ldr	r3, __arm_cp.5_5
	str	r1, [r3]
	.loc	2 283 26 is_stmt 1              @ ../../../../Library/StdDriver/src/rtc.c:283:26
	ldr	r1, [r0]
	movw	r2, #3840
	.loc	2 283 31 is_stmt 0              @ ../../../../Library/StdDriver/src/rtc.c:283:31
	str	r2, [sp, #4]                    @ 4-byte Spill
	ands	r1, r2
	.loc	2 283 51                        @ ../../../../Library/StdDriver/src/rtc.c:283:51
	lsrs	r1, r1, #8
	.loc	2 283 18                        @ ../../../../Library/StdDriver/src/rtc.c:283:18
	ldr	r4, __arm_cp.5_6
	str	r1, [r4]
	.loc	2 284 26 is_stmt 1              @ ../../../../Library/StdDriver/src/rtc.c:284:26
	ldr	r1, [r0]
	movs	r2, #48
	.loc	2 284 31 is_stmt 0              @ ../../../../Library/StdDriver/src/rtc.c:284:31
	ands	r1, r2
	.loc	2 284 54                        @ ../../../../Library/StdDriver/src/rtc.c:284:54
	lsrs	r1, r1, #4
	.loc	2 284 18                        @ ../../../../Library/StdDriver/src/rtc.c:284:18
	ldr	r2, __arm_cp.5_7
	str	r1, [r2]
	.loc	2 285 26 is_stmt 1              @ ../../../../Library/StdDriver/src/rtc.c:285:26
	ldr	r0, [r0]
	.loc	2 285 31 is_stmt 0              @ ../../../../Library/StdDriver/src/rtc.c:285:31
	ands	r0, r7
	.loc	2 285 18                        @ ../../../../Library/StdDriver/src/rtc.c:285:18
	ldr	r1, __arm_cp.5_8
	str	r1, [sp, #8]                    @ 4-byte Spill
	str	r0, [r1]
	ldr	r6, __arm_cp.5_9
	.loc	2 288 25 is_stmt 1              @ ../../../../Library/StdDriver/src/rtc.c:288:25
	ldr	r0, [r6]
	movs	r1, #3
	lsls	r1, r1, #20
	.loc	2 288 30 is_stmt 0              @ ../../../../Library/StdDriver/src/rtc.c:288:30
	ands	r0, r1
	.loc	2 288 52                        @ ../../../../Library/StdDriver/src/rtc.c:288:52
	lsrs	r0, r0, #20
	.loc	2 288 17                        @ ../../../../Library/StdDriver/src/rtc.c:288:17
	ldr	r1, __arm_cp.5_10
	str	r0, [r1]
	.loc	2 289 25 is_stmt 1              @ ../../../../Library/StdDriver/src/rtc.c:289:25
	ldr	r1, [sp]                        @ 4-byte Reload
	ldr	r0, [r6]
	.loc	2 289 30 is_stmt 0              @ ../../../../Library/StdDriver/src/rtc.c:289:30
	ands	r0, r1
	.loc	2 289 49                        @ ../../../../Library/StdDriver/src/rtc.c:289:49
	lsrs	r0, r0, #16
	.loc	2 289 17                        @ ../../../../Library/StdDriver/src/rtc.c:289:17
	ldr	r1, __arm_cp.5_11
	str	r0, [r1]
	.loc	2 290 25 is_stmt 1              @ ../../../../Library/StdDriver/src/rtc.c:290:25
	ldr	r0, [r6]
	movw	r1, #28672
	.loc	2 290 30 is_stmt 0              @ ../../../../Library/StdDriver/src/rtc.c:290:30
	ands	r0, r1
	.loc	2 290 53                        @ ../../../../Library/StdDriver/src/rtc.c:290:53
	lsrs	r0, r0, #12
	.loc	2 290 17                        @ ../../../../Library/StdDriver/src/rtc.c:290:17
	ldr	r1, __arm_cp.5_12
	str	r0, [r1]
	.loc	2 291 25 is_stmt 1              @ ../../../../Library/StdDriver/src/rtc.c:291:25
	ldr	r1, [sp, #4]                    @ 4-byte Reload
	ldr	r0, [r6]
	.loc	2 291 30 is_stmt 0              @ ../../../../Library/StdDriver/src/rtc.c:291:30
	ands	r0, r1
	.loc	2 291 50                        @ ../../../../Library/StdDriver/src/rtc.c:291:50
	lsrs	r0, r0, #8
	.loc	2 291 17                        @ ../../../../Library/StdDriver/src/rtc.c:291:17
	ldr	r1, __arm_cp.5_13
	str	r0, [r1]
	.loc	2 292 25 is_stmt 1              @ ../../../../Library/StdDriver/src/rtc.c:292:25
	ldr	r0, [r6]
	movs	r1, #112
	.loc	2 292 30 is_stmt 0              @ ../../../../Library/StdDriver/src/rtc.c:292:30
	ands	r0, r1
	.loc	2 292 53                        @ ../../../../Library/StdDriver/src/rtc.c:292:53
	lsrs	r0, r0, #4
	.loc	2 292 17                        @ ../../../../Library/StdDriver/src/rtc.c:292:17
	ldr	r1, __arm_cp.5_14
	str	r0, [r1]
	.loc	2 293 25 is_stmt 1              @ ../../../../Library/StdDriver/src/rtc.c:293:25
	ldr	r1, [sp, #8]                    @ 4-byte Reload
	ldr	r0, [sp, #12]                   @ 4-byte Reload
	ldr	r6, [r6]
	.loc	2 293 30 is_stmt 0              @ ../../../../Library/StdDriver/src/rtc.c:293:30
	ands	r6, r7
	.loc	2 293 17                        @ ../../../../Library/StdDriver/src/rtc.c:293:17
	ldr	r7, __arm_cp.5_15
	str	r6, [r7]
	.loc	2 296 16 is_stmt 1              @ ../../../../Library/StdDriver/src/rtc.c:296:16
	ldr	r7, [r0]
	movs	r0, #10
	.loc	2 296 28 is_stmt 0              @ ../../../../Library/StdDriver/src/rtc.c:296:28
	mov	r6, r0
	muls	r6, r7, r6
	.loc	2 296 13                        @ ../../../../Library/StdDriver/src/rtc.c:296:13
	str	r6, [sp, #16]
	.loc	2 297 15 is_stmt 1              @ ../../../../Library/StdDriver/src/rtc.c:297:15
	ldr	r6, [r5]
	.loc	2 297 12 is_stmt 0              @ ../../../../Library/StdDriver/src/rtc.c:297:12
	ldr	r5, [sp, #16]
	adds	r5, r5, r6
	str	r5, [sp, #16]
	.loc	2 298 21 is_stmt 1              @ ../../../../Library/StdDriver/src/rtc.c:298:21
	ldr	r5, [sp, #16]
	movw	r6, #2000
	.loc	2 298 28 is_stmt 0              @ ../../../../Library/StdDriver/src/rtc.c:298:28
	adds	r5, r5, r6
	.loc	2 298 5                         @ ../../../../Library/StdDriver/src/rtc.c:298:5
	ldr	r6, [sp, #20]
	.loc	2 298 19                        @ ../../../../Library/StdDriver/src/rtc.c:298:19
	str	r5, [r6]
	.loc	2 301 15 is_stmt 1              @ ../../../../Library/StdDriver/src/rtc.c:301:15
	ldr	r5, [r3]
	.loc	2 301 28 is_stmt 0              @ ../../../../Library/StdDriver/src/rtc.c:301:28
	mov	r3, r0
	muls	r3, r5, r3
	.loc	2 301 12                        @ ../../../../Library/StdDriver/src/rtc.c:301:12
	str	r3, [sp, #16]
	.loc	2 302 22 is_stmt 1              @ ../../../../Library/StdDriver/src/rtc.c:302:22
	ldr	r3, [sp, #16]
	.loc	2 302 31 is_stmt 0              @ ../../../../Library/StdDriver/src/rtc.c:302:31
	ldr	r4, [r4]
	.loc	2 302 29                        @ ../../../../Library/StdDriver/src/rtc.c:302:29
	adds	r3, r3, r4
	.loc	2 302 5                         @ ../../../../Library/StdDriver/src/rtc.c:302:5
	ldr	r4, [sp, #20]
	.loc	2 302 20                        @ ../../../../Library/StdDriver/src/rtc.c:302:20
	str	r3, [r4, #4]
	.loc	2 305 15 is_stmt 1              @ ../../../../Library/StdDriver/src/rtc.c:305:15
	ldr	r2, [r2]
	.loc	2 305 26 is_stmt 0              @ ../../../../Library/StdDriver/src/rtc.c:305:26
	muls	r0, r2, r0
	.loc	2 305 12                        @ ../../../../Library/StdDriver/src/rtc.c:305:12
	str	r0, [sp, #16]
	.loc	2 306 20 is_stmt 1              @ ../../../../Library/StdDriver/src/rtc.c:306:20
	ldr	r0, [sp, #16]
	.loc	2 306 29 is_stmt 0              @ ../../../../Library/StdDriver/src/rtc.c:306:29
	ldr	r1, [r1]
	.loc	2 306 27                        @ ../../../../Library/StdDriver/src/rtc.c:306:27
	adds	r0, r0, r1
	.loc	2 306 5                         @ ../../../../Library/StdDriver/src/rtc.c:306:5
	ldr	r1, [sp, #20]
	.loc	2 306 18                        @ ../../../../Library/StdDriver/src/rtc.c:306:18
	str	r0, [r1, #8]
.Ltmp63:
	.loc	2 309 9 is_stmt 1               @ ../../../../Library/StdDriver/src/rtc.c:309:9
	ldr	r0, [sp, #20]
	.loc	2 309 15 is_stmt 0              @ ../../../../Library/StdDriver/src/rtc.c:309:15
	ldr	r0, [r0, #28]
.Ltmp64:
	.loc	2 309 9                         @ ../../../../Library/StdDriver/src/rtc.c:309:9
	cbnz	r0, .LBB5_5
	b	.LBB5_1
.LBB5_1:
.Ltmp65:
	.loc	2 311 20 is_stmt 1              @ ../../../../Library/StdDriver/src/rtc.c:311:20
	ldr	r0, __arm_cp.5_10
	ldr	r1, [r0]
	movs	r0, #10
	.loc	2 311 32 is_stmt 0              @ ../../../../Library/StdDriver/src/rtc.c:311:32
	muls	r0, r1, r0
	.loc	2 311 17                        @ ../../../../Library/StdDriver/src/rtc.c:311:17
	str	r0, [sp, #16]
	.loc	2 312 19 is_stmt 1              @ ../../../../Library/StdDriver/src/rtc.c:312:19
	ldr	r0, __arm_cp.5_11
	ldr	r1, [r0]
	.loc	2 312 16 is_stmt 0              @ ../../../../Library/StdDriver/src/rtc.c:312:16
	ldr	r0, [sp, #16]
	adds	r0, r0, r1
	str	r0, [sp, #16]
	.loc	2 313 25 is_stmt 1              @ ../../../../Library/StdDriver/src/rtc.c:313:25
	ldr	r0, [sp, #16]
	.loc	2 313 9 is_stmt 0               @ ../../../../Library/StdDriver/src/rtc.c:313:9
	ldr	r1, [sp, #20]
	.loc	2 313 23                        @ ../../../../Library/StdDriver/src/rtc.c:313:23
	str	r0, [r1, #16]
.Ltmp66:
	.loc	2 315 13 is_stmt 1              @ ../../../../Library/StdDriver/src/rtc.c:315:13
	ldr	r0, [sp, #20]
	.loc	2 315 19 is_stmt 0              @ ../../../../Library/StdDriver/src/rtc.c:315:19
	ldr	r0, [r0, #16]
.Ltmp67:
	.loc	2 315 13                        @ ../../../../Library/StdDriver/src/rtc.c:315:13
	cmp	r0, #21
	blo	.LBB5_3
	b	.LBB5_2
.LBB5_2:
.Ltmp68:
	.loc	2 317 13 is_stmt 1              @ ../../../../Library/StdDriver/src/rtc.c:317:13
	ldr	r1, [sp, #20]
	movs	r0, #2
	.loc	2 317 28 is_stmt 0              @ ../../../../Library/StdDriver/src/rtc.c:317:28
	str	r0, [r1, #32]
	.loc	2 318 13 is_stmt 1              @ ../../../../Library/StdDriver/src/rtc.c:318:13
	ldr	r1, [sp, #20]
	.loc	2 318 27 is_stmt 0              @ ../../../../Library/StdDriver/src/rtc.c:318:27
	ldr	r0, [r1, #16]
	subs	r0, #20
	str	r0, [r1, #16]
	.loc	2 319 9 is_stmt 1               @ ../../../../Library/StdDriver/src/rtc.c:319:9
	b	.LBB5_4
.Ltmp69:
.LBB5_3:
	.loc	2 322 13                        @ ../../../../Library/StdDriver/src/rtc.c:322:13
	ldr	r1, [sp, #20]
	movs	r0, #1
	.loc	2 322 27 is_stmt 0              @ ../../../../Library/StdDriver/src/rtc.c:322:27
	str	r0, [r1, #32]
	b	.LBB5_4
.Ltmp70:
.LBB5_4:
	.loc	2 325 20 is_stmt 1              @ ../../../../Library/StdDriver/src/rtc.c:325:20
	ldr	r0, __arm_cp.5_12
	ldr	r2, [r0]
	movs	r0, #10
	.loc	2 325 31 is_stmt 0              @ ../../../../Library/StdDriver/src/rtc.c:325:31
	mov	r1, r0
	muls	r1, r2, r1
	.loc	2 325 17                        @ ../../../../Library/StdDriver/src/rtc.c:325:17
	str	r1, [sp, #16]
	.loc	2 326 19 is_stmt 1              @ ../../../../Library/StdDriver/src/rtc.c:326:19
	ldr	r1, __arm_cp.5_13
	ldr	r2, [r1]
	.loc	2 326 16 is_stmt 0              @ ../../../../Library/StdDriver/src/rtc.c:326:16
	ldr	r1, [sp, #16]
	adds	r1, r1, r2
	str	r1, [sp, #16]
	.loc	2 327 27 is_stmt 1              @ ../../../../Library/StdDriver/src/rtc.c:327:27
	ldr	r1, [sp, #16]
	.loc	2 327 9 is_stmt 0               @ ../../../../Library/StdDriver/src/rtc.c:327:9
	ldr	r2, [sp, #20]
	.loc	2 327 25                        @ ../../../../Library/StdDriver/src/rtc.c:327:25
	str	r1, [r2, #20]
	.loc	2 329 20 is_stmt 1              @ ../../../../Library/StdDriver/src/rtc.c:329:20
	ldr	r1, __arm_cp.5_14
	ldr	r1, [r1]
	.loc	2 329 31 is_stmt 0              @ ../../../../Library/StdDriver/src/rtc.c:329:31
	muls	r0, r1, r0
	.loc	2 329 17                        @ ../../../../Library/StdDriver/src/rtc.c:329:17
	str	r0, [sp, #16]
	.loc	2 330 19 is_stmt 1              @ ../../../../Library/StdDriver/src/rtc.c:330:19
	ldr	r0, __arm_cp.5_15
	ldr	r1, [r0]
	.loc	2 330 16 is_stmt 0              @ ../../../../Library/StdDriver/src/rtc.c:330:16
	ldr	r0, [sp, #16]
	adds	r0, r0, r1
	str	r0, [sp, #16]
	.loc	2 331 27 is_stmt 1              @ ../../../../Library/StdDriver/src/rtc.c:331:27
	ldr	r0, [sp, #16]
	.loc	2 331 9 is_stmt 0               @ ../../../../Library/StdDriver/src/rtc.c:331:9
	ldr	r1, [sp, #20]
	.loc	2 331 25                        @ ../../../../Library/StdDriver/src/rtc.c:331:25
	str	r0, [r1, #24]
	.loc	2 333 5 is_stmt 1               @ ../../../../Library/StdDriver/src/rtc.c:333:5
	b	.LBB5_6
.Ltmp71:
.LBB5_5:
	.loc	2 336 20                        @ ../../../../Library/StdDriver/src/rtc.c:336:20
	ldr	r0, __arm_cp.5_10
	ldr	r2, [r0]
	movs	r0, #10
	.loc	2 336 32 is_stmt 0              @ ../../../../Library/StdDriver/src/rtc.c:336:32
	mov	r1, r0
	muls	r1, r2, r1
	.loc	2 336 17                        @ ../../../../Library/StdDriver/src/rtc.c:336:17
	str	r1, [sp, #16]
	.loc	2 337 20 is_stmt 1              @ ../../../../Library/StdDriver/src/rtc.c:337:20
	ldr	r1, __arm_cp.5_11
	ldr	r2, [r1]
	.loc	2 337 16 is_stmt 0              @ ../../../../Library/StdDriver/src/rtc.c:337:16
	ldr	r1, [sp, #16]
	adds	r1, r1, r2
	str	r1, [sp, #16]
	.loc	2 338 25 is_stmt 1              @ ../../../../Library/StdDriver/src/rtc.c:338:25
	ldr	r1, [sp, #16]
	.loc	2 338 9 is_stmt 0               @ ../../../../Library/StdDriver/src/rtc.c:338:9
	ldr	r2, [sp, #20]
	.loc	2 338 23                        @ ../../../../Library/StdDriver/src/rtc.c:338:23
	str	r1, [r2, #16]
	.loc	2 340 20 is_stmt 1              @ ../../../../Library/StdDriver/src/rtc.c:340:20
	ldr	r1, __arm_cp.5_12
	ldr	r2, [r1]
	.loc	2 340 31 is_stmt 0              @ ../../../../Library/StdDriver/src/rtc.c:340:31
	mov	r1, r0
	muls	r1, r2, r1
	.loc	2 340 17                        @ ../../../../Library/StdDriver/src/rtc.c:340:17
	str	r1, [sp, #16]
	.loc	2 341 19 is_stmt 1              @ ../../../../Library/StdDriver/src/rtc.c:341:19
	ldr	r1, __arm_cp.5_13
	ldr	r2, [r1]
	.loc	2 341 16 is_stmt 0              @ ../../../../Library/StdDriver/src/rtc.c:341:16
	ldr	r1, [sp, #16]
	adds	r1, r1, r2
	str	r1, [sp, #16]
	.loc	2 342 27 is_stmt 1              @ ../../../../Library/StdDriver/src/rtc.c:342:27
	ldr	r1, [sp, #16]
	.loc	2 342 9 is_stmt 0               @ ../../../../Library/StdDriver/src/rtc.c:342:9
	ldr	r2, [sp, #20]
	.loc	2 342 25                        @ ../../../../Library/StdDriver/src/rtc.c:342:25
	str	r1, [r2, #20]
	.loc	2 344 20 is_stmt 1              @ ../../../../Library/StdDriver/src/rtc.c:344:20
	ldr	r1, __arm_cp.5_14
	ldr	r1, [r1]
	.loc	2 344 31 is_stmt 0              @ ../../../../Library/StdDriver/src/rtc.c:344:31
	muls	r0, r1, r0
	.loc	2 344 17                        @ ../../../../Library/StdDriver/src/rtc.c:344:17
	str	r0, [sp, #16]
	.loc	2 345 19 is_stmt 1              @ ../../../../Library/StdDriver/src/rtc.c:345:19
	ldr	r0, __arm_cp.5_15
	ldr	r1, [r0]
	.loc	2 345 16 is_stmt 0              @ ../../../../Library/StdDriver/src/rtc.c:345:16
	ldr	r0, [sp, #16]
	adds	r0, r0, r1
	str	r0, [sp, #16]
	.loc	2 346 27 is_stmt 1              @ ../../../../Library/StdDriver/src/rtc.c:346:27
	ldr	r0, [sp, #16]
	.loc	2 346 9 is_stmt 0               @ ../../../../Library/StdDriver/src/rtc.c:346:9
	ldr	r1, [sp, #20]
	.loc	2 346 25                        @ ../../../../Library/StdDriver/src/rtc.c:346:25
	str	r0, [r1, #24]
	b	.LBB5_6
.Ltmp72:
.LBB5_6:
	.loc	2 348 1 is_stmt 1               @ ../../../../Library/StdDriver/src/rtc.c:348:1
	add	sp, #24
	pop	{r4, r5, r6, r7, pc}
.Ltmp73:
	.p2align	2
@ %bb.7:
	.loc	2 0 1 is_stmt 0                 @ ../../../../Library/StdDriver/src/rtc.c:0:1
__arm_cp.5_0:
	.long	1074008084                      @ 0x40041014
.Lcpi_end30:
	.size	__arm_cp.5_0, .Lcpi_end30-__arm_cp.5_0
__arm_cp.5_1:
	.long	1074008088                      @ 0x40041018
.Lcpi_end31:
	.size	__arm_cp.5_1, .Lcpi_end31-__arm_cp.5_1
__arm_cp.5_2:
	.long	1074008096                      @ 0x40041020
.Lcpi_end32:
	.size	__arm_cp.5_2, .Lcpi_end32-__arm_cp.5_2
__arm_cp.5_3:
	.long	g_u32HiYear
.Lcpi_end33:
	.size	__arm_cp.5_3, .Lcpi_end33-__arm_cp.5_3
__arm_cp.5_4:
	.long	g_u32LoYear
.Lcpi_end34:
	.size	__arm_cp.5_4, .Lcpi_end34-__arm_cp.5_4
__arm_cp.5_5:
	.long	g_u32HiMonth
.Lcpi_end35:
	.size	__arm_cp.5_5, .Lcpi_end35-__arm_cp.5_5
__arm_cp.5_6:
	.long	g_u32LoMonth
.Lcpi_end36:
	.size	__arm_cp.5_6, .Lcpi_end36-__arm_cp.5_6
__arm_cp.5_7:
	.long	g_u32HiDay
.Lcpi_end37:
	.size	__arm_cp.5_7, .Lcpi_end37-__arm_cp.5_7
__arm_cp.5_8:
	.long	g_u32LoDay
.Lcpi_end38:
	.size	__arm_cp.5_8, .Lcpi_end38-__arm_cp.5_8
__arm_cp.5_9:
	.long	1074008092                      @ 0x4004101c
.Lcpi_end39:
	.size	__arm_cp.5_9, .Lcpi_end39-__arm_cp.5_9
__arm_cp.5_10:
	.long	g_u32HiHour
.Lcpi_end40:
	.size	__arm_cp.5_10, .Lcpi_end40-__arm_cp.5_10
__arm_cp.5_11:
	.long	g_u32LoHour
.Lcpi_end41:
	.size	__arm_cp.5_11, .Lcpi_end41-__arm_cp.5_11
__arm_cp.5_12:
	.long	g_u32HiMin
.Lcpi_end42:
	.size	__arm_cp.5_12, .Lcpi_end42-__arm_cp.5_12
__arm_cp.5_13:
	.long	g_u32LoMin
.Lcpi_end43:
	.size	__arm_cp.5_13, .Lcpi_end43-__arm_cp.5_13
__arm_cp.5_14:
	.long	g_u32HiSec
.Lcpi_end44:
	.size	__arm_cp.5_14, .Lcpi_end44-__arm_cp.5_14
__arm_cp.5_15:
	.long	g_u32LoSec
.Lcpi_end45:
	.size	__arm_cp.5_15, .Lcpi_end45-__arm_cp.5_15
.Lfunc_end5:
	.size	RTC_GetAlarmDateAndTime, .Lfunc_end5-RTC_GetAlarmDateAndTime
	.cfi_endproc
	.cantunwind
	.fnend
                                        @ -- End function
	.section	.text.RTC_SetAlarmDateAndTime,"ax",%progbits
	.hidden	RTC_SetAlarmDateAndTime         @ -- Begin function RTC_SetAlarmDateAndTime
	.globl	RTC_SetAlarmDateAndTime
	.p2align	2
	.type	RTC_SetAlarmDateAndTime,%function
	.code	16                              @ @RTC_SetAlarmDateAndTime
	.thumb_func
RTC_SetAlarmDateAndTime:
.Lfunc_begin6:
	.loc	2 449 0 is_stmt 1               @ ../../../../Library/StdDriver/src/rtc.c:449:0
	.fnstart
	.cfi_startproc
@ %bb.0:
	.pad	#16
	sub	sp, #16
	.cfi_def_cfa_offset 16
	str	r0, [sp, #12]
.Ltmp74:
	.loc	2 450 9 prologue_end            @ ../../../../Library/StdDriver/src/rtc.c:450:9
	ldr	r0, [sp, #12]
.Ltmp75:
	.loc	2 450 9 is_stmt 0               @ ../../../../Library/StdDriver/src/rtc.c:450:9
	cbnz	r0, .LBB6_2
	b	.LBB6_1
.LBB6_1:
.Ltmp76:
	.loc	2 453 5 is_stmt 1               @ ../../../../Library/StdDriver/src/rtc.c:453:5
	b	.LBB6_8
.Ltmp77:
.LBB6_2:
	.loc	2 462 13                        @ ../../../../Library/StdDriver/src/rtc.c:462:13
	ldr	r0, [sp, #12]
	.loc	2 462 19 is_stmt 0              @ ../../../../Library/StdDriver/src/rtc.c:462:19
	ldr	r0, [r0, #28]
.Ltmp78:
	.loc	2 462 13                        @ ../../../../Library/StdDriver/src/rtc.c:462:13
	cbnz	r0, .LBB6_6
	b	.LBB6_3
.LBB6_3:
	.loc	2 0 13                          @ ../../../../Library/StdDriver/src/rtc.c:0:13
	ldr	r1, __arm_cp.6_0
.Ltmp79:
	.loc	2 464 25 is_stmt 1              @ ../../../../Library/StdDriver/src/rtc.c:464:25
	ldr	r0, [r1]
	movs	r2, #1
	bics	r0, r2
	str	r0, [r1]
.Ltmp80:
	.loc	2 469 17                        @ ../../../../Library/StdDriver/src/rtc.c:469:17
	ldr	r0, [sp, #12]
	.loc	2 469 23 is_stmt 0              @ ../../../../Library/StdDriver/src/rtc.c:469:23
	ldr	r0, [r0, #32]
.Ltmp81:
	.loc	2 469 17                        @ ../../../../Library/StdDriver/src/rtc.c:469:17
	cmp	r0, #2
	bne	.LBB6_5
	b	.LBB6_4
.LBB6_4:
.Ltmp82:
	.loc	2 471 17 is_stmt 1              @ ../../../../Library/StdDriver/src/rtc.c:471:17
	ldr	r1, [sp, #12]
	.loc	2 471 31 is_stmt 0              @ ../../../../Library/StdDriver/src/rtc.c:471:31
	ldr	r0, [r1, #16]
	adds	r0, #20
	str	r0, [r1, #16]
	.loc	2 472 13 is_stmt 1              @ ../../../../Library/StdDriver/src/rtc.c:472:13
	b	.LBB6_5
.Ltmp83:
.LBB6_5:
	.loc	2 473 9                         @ ../../../../Library/StdDriver/src/rtc.c:473:9
	b	.LBB6_7
.Ltmp84:
.LBB6_6:
	.loc	2 0 9 is_stmt 0                 @ ../../../../Library/StdDriver/src/rtc.c:0:9
	ldr	r1, __arm_cp.6_0
.Ltmp85:
	.loc	2 476 25 is_stmt 1              @ ../../../../Library/StdDriver/src/rtc.c:476:25
	ldr	r0, [r1]
	movs	r2, #1
	orrs	r0, r2
	str	r0, [r1]
	b	.LBB6_7
.Ltmp86:
.LBB6_7:
	.loc	2 482 25                        @ ../../../../Library/StdDriver/src/rtc.c:482:25
	ldr	r0, [sp, #12]
	.loc	2 482 31 is_stmt 0              @ ../../../../Library/StdDriver/src/rtc.c:482:31
	ldr	r0, [r0]
	.loc	2 482 39                        @ ../../../../Library/StdDriver/src/rtc.c:482:39
	movw	r2, #2000
	subs	r0, r0, r2
	movs	r1, #10
	.loc	2 482 55                        @ ../../../../Library/StdDriver/src/rtc.c:482:55
	str	r1, [sp]                        @ 4-byte Spill
	udiv	r0, r0, r1
	.loc	2 482 63                        @ ../../../../Library/StdDriver/src/rtc.c:482:63
	lsls	r0, r0, #20
	.loc	2 482 21                        @ ../../../../Library/StdDriver/src/rtc.c:482:21
	str	r0, [sp, #8]
	.loc	2 483 26 is_stmt 1              @ ../../../../Library/StdDriver/src/rtc.c:483:26
	ldr	r0, [sp, #12]
	.loc	2 483 32 is_stmt 0              @ ../../../../Library/StdDriver/src/rtc.c:483:32
	ldr	r0, [r0]
	.loc	2 483 40                        @ ../../../../Library/StdDriver/src/rtc.c:483:40
	subs	r0, r0, r2
	.loc	2 483 56                        @ ../../../../Library/StdDriver/src/rtc.c:483:56
	udiv	r3, r0, r1
	mov	r2, r1
	muls	r2, r3, r2
	subs	r0, r0, r2
	.loc	2 483 64                        @ ../../../../Library/StdDriver/src/rtc.c:483:64
	lsls	r2, r0, #16
	.loc	2 483 20                        @ ../../../../Library/StdDriver/src/rtc.c:483:20
	ldr	r0, [sp, #8]
	orrs	r0, r2
	str	r0, [sp, #8]
	.loc	2 484 25 is_stmt 1              @ ../../../../Library/StdDriver/src/rtc.c:484:25
	ldr	r0, [sp, #12]
	.loc	2 484 31 is_stmt 0              @ ../../../../Library/StdDriver/src/rtc.c:484:31
	ldr	r0, [r0, #4]
	.loc	2 484 41                        @ ../../../../Library/StdDriver/src/rtc.c:484:41
	udiv	r0, r0, r1
	.loc	2 484 49                        @ ../../../../Library/StdDriver/src/rtc.c:484:49
	lsls	r2, r0, #12
	.loc	2 484 20                        @ ../../../../Library/StdDriver/src/rtc.c:484:20
	ldr	r0, [sp, #8]
	orrs	r0, r2
	str	r0, [sp, #8]
	.loc	2 485 25 is_stmt 1              @ ../../../../Library/StdDriver/src/rtc.c:485:25
	ldr	r0, [sp, #12]
	.loc	2 485 31 is_stmt 0              @ ../../../../Library/StdDriver/src/rtc.c:485:31
	ldr	r0, [r0, #4]
	.loc	2 485 41                        @ ../../../../Library/StdDriver/src/rtc.c:485:41
	udiv	r3, r0, r1
	mov	r2, r1
	muls	r2, r3, r2
	subs	r0, r0, r2
	.loc	2 485 49                        @ ../../../../Library/StdDriver/src/rtc.c:485:49
	lsls	r2, r0, #8
	.loc	2 485 20                        @ ../../../../Library/StdDriver/src/rtc.c:485:20
	ldr	r0, [sp, #8]
	orrs	r0, r2
	str	r0, [sp, #8]
	.loc	2 486 25 is_stmt 1              @ ../../../../Library/StdDriver/src/rtc.c:486:25
	ldr	r0, [sp, #12]
	.loc	2 486 31 is_stmt 0              @ ../../../../Library/StdDriver/src/rtc.c:486:31
	ldr	r0, [r0, #8]
	.loc	2 486 41                        @ ../../../../Library/StdDriver/src/rtc.c:486:41
	udiv	r0, r0, r1
	.loc	2 486 49                        @ ../../../../Library/StdDriver/src/rtc.c:486:49
	lsls	r2, r0, #4
	.loc	2 486 20                        @ ../../../../Library/StdDriver/src/rtc.c:486:20
	ldr	r0, [sp, #8]
	orrs	r0, r2
	str	r0, [sp, #8]
	.loc	2 487 24 is_stmt 1              @ ../../../../Library/StdDriver/src/rtc.c:487:24
	ldr	r0, [sp, #12]
	.loc	2 487 30 is_stmt 0              @ ../../../../Library/StdDriver/src/rtc.c:487:30
	ldr	r0, [r0, #8]
	.loc	2 487 40                        @ ../../../../Library/StdDriver/src/rtc.c:487:40
	udiv	r3, r0, r1
	mov	r2, r1
	muls	r2, r3, r2
	subs	r2, r0, r2
	.loc	2 487 20                        @ ../../../../Library/StdDriver/src/rtc.c:487:20
	ldr	r0, [sp, #8]
	orrs	r0, r2
	str	r0, [sp, #8]
	.loc	2 489 25 is_stmt 1              @ ../../../../Library/StdDriver/src/rtc.c:489:25
	ldr	r0, [sp, #12]
	.loc	2 489 31 is_stmt 0              @ ../../../../Library/StdDriver/src/rtc.c:489:31
	ldr	r0, [r0, #16]
	.loc	2 489 41                        @ ../../../../Library/StdDriver/src/rtc.c:489:41
	udiv	r0, r0, r1
	.loc	2 489 49                        @ ../../../../Library/StdDriver/src/rtc.c:489:49
	lsls	r0, r0, #20
	.loc	2 489 21                        @ ../../../../Library/StdDriver/src/rtc.c:489:21
	str	r0, [sp, #4]
	.loc	2 490 25 is_stmt 1              @ ../../../../Library/StdDriver/src/rtc.c:490:25
	ldr	r0, [sp, #12]
	.loc	2 490 31 is_stmt 0              @ ../../../../Library/StdDriver/src/rtc.c:490:31
	ldr	r0, [r0, #16]
	.loc	2 490 41                        @ ../../../../Library/StdDriver/src/rtc.c:490:41
	udiv	r3, r0, r1
	mov	r2, r1
	muls	r2, r3, r2
	subs	r0, r0, r2
	.loc	2 490 49                        @ ../../../../Library/StdDriver/src/rtc.c:490:49
	lsls	r2, r0, #16
	.loc	2 490 20                        @ ../../../../Library/StdDriver/src/rtc.c:490:20
	ldr	r0, [sp, #4]
	orrs	r0, r2
	str	r0, [sp, #4]
	.loc	2 491 25 is_stmt 1              @ ../../../../Library/StdDriver/src/rtc.c:491:25
	ldr	r0, [sp, #12]
	.loc	2 491 31 is_stmt 0              @ ../../../../Library/StdDriver/src/rtc.c:491:31
	ldr	r0, [r0, #20]
	.loc	2 491 41                        @ ../../../../Library/StdDriver/src/rtc.c:491:41
	udiv	r0, r0, r1
	.loc	2 491 49                        @ ../../../../Library/StdDriver/src/rtc.c:491:49
	lsls	r2, r0, #12
	.loc	2 491 20                        @ ../../../../Library/StdDriver/src/rtc.c:491:20
	ldr	r0, [sp, #4]
	orrs	r0, r2
	str	r0, [sp, #4]
	.loc	2 492 25 is_stmt 1              @ ../../../../Library/StdDriver/src/rtc.c:492:25
	ldr	r0, [sp, #12]
	.loc	2 492 31 is_stmt 0              @ ../../../../Library/StdDriver/src/rtc.c:492:31
	ldr	r0, [r0, #20]
	.loc	2 492 41                        @ ../../../../Library/StdDriver/src/rtc.c:492:41
	udiv	r3, r0, r1
	mov	r2, r1
	muls	r2, r3, r2
	subs	r0, r0, r2
	.loc	2 492 49                        @ ../../../../Library/StdDriver/src/rtc.c:492:49
	lsls	r2, r0, #8
	.loc	2 492 20                        @ ../../../../Library/StdDriver/src/rtc.c:492:20
	ldr	r0, [sp, #4]
	orrs	r0, r2
	str	r0, [sp, #4]
	.loc	2 493 25 is_stmt 1              @ ../../../../Library/StdDriver/src/rtc.c:493:25
	ldr	r0, [sp, #12]
	.loc	2 493 31 is_stmt 0              @ ../../../../Library/StdDriver/src/rtc.c:493:31
	ldr	r0, [r0, #24]
	.loc	2 493 41                        @ ../../../../Library/StdDriver/src/rtc.c:493:41
	udiv	r0, r0, r1
	.loc	2 493 49                        @ ../../../../Library/StdDriver/src/rtc.c:493:49
	lsls	r2, r0, #4
	.loc	2 493 20                        @ ../../../../Library/StdDriver/src/rtc.c:493:20
	ldr	r0, [sp, #4]
	orrs	r0, r2
	str	r0, [sp, #4]
	.loc	2 494 24 is_stmt 1              @ ../../../../Library/StdDriver/src/rtc.c:494:24
	ldr	r0, [sp, #12]
	.loc	2 494 30 is_stmt 0              @ ../../../../Library/StdDriver/src/rtc.c:494:30
	ldr	r0, [r0, #24]
	.loc	2 494 40                        @ ../../../../Library/StdDriver/src/rtc.c:494:40
	udiv	r2, r0, r1
	muls	r1, r2, r1
	subs	r1, r0, r1
	.loc	2 494 20                        @ ../../../../Library/StdDriver/src/rtc.c:494:20
	ldr	r0, [sp, #4]
	orrs	r0, r1
	str	r0, [sp, #4]
	.loc	2 497 31 is_stmt 1              @ ../../../../Library/StdDriver/src/rtc.c:497:31
	ldr	r0, [sp, #8]
	ldr	r1, __arm_cp.6_1
	.loc	2 497 19 is_stmt 0              @ ../../../../Library/StdDriver/src/rtc.c:497:19
	str	r0, [r1]
	.loc	2 498 31 is_stmt 1              @ ../../../../Library/StdDriver/src/rtc.c:498:31
	ldr	r0, [sp, #4]
	ldr	r1, __arm_cp.6_2
	.loc	2 498 19 is_stmt 0              @ ../../../../Library/StdDriver/src/rtc.c:498:19
	str	r0, [r1]
	b	.LBB6_8
.Ltmp87:
.LBB6_8:
	.loc	2 500 1 is_stmt 1               @ ../../../../Library/StdDriver/src/rtc.c:500:1
	add	sp, #16
	bx	lr
.Ltmp88:
	.p2align	2
@ %bb.9:
	.loc	2 0 1 is_stmt 0                 @ ../../../../Library/StdDriver/src/rtc.c:0:1
__arm_cp.6_0:
	.long	1074008084                      @ 0x40041014
.Lcpi_end46:
	.size	__arm_cp.6_0, .Lcpi_end46-__arm_cp.6_0
__arm_cp.6_1:
	.long	1074008096                      @ 0x40041020
.Lcpi_end47:
	.size	__arm_cp.6_1, .Lcpi_end47-__arm_cp.6_1
__arm_cp.6_2:
	.long	1074008092                      @ 0x4004101c
.Lcpi_end48:
	.size	__arm_cp.6_2, .Lcpi_end48-__arm_cp.6_2
.Lfunc_end6:
	.size	RTC_SetAlarmDateAndTime, .Lfunc_end6-RTC_SetAlarmDateAndTime
	.cfi_endproc
	.cantunwind
	.fnend
                                        @ -- End function
	.section	.text.RTC_SetDate,"ax",%progbits
	.hidden	RTC_SetDate                     @ -- Begin function RTC_SetDate
	.globl	RTC_SetDate
	.p2align	2
	.type	RTC_SetDate,%function
	.code	16                              @ @RTC_SetDate
	.thumb_func
RTC_SetDate:
.Lfunc_begin7:
	.loc	2 516 0 is_stmt 1               @ ../../../../Library/StdDriver/src/rtc.c:516:0
	.fnstart
	.cfi_startproc
@ %bb.0:
	.pad	#20
	sub	sp, #20
	.cfi_def_cfa_offset 20
	str	r0, [sp, #16]
	str	r1, [sp, #12]
	str	r2, [sp, #8]
	str	r3, [sp, #4]
.Ltmp89:
	.loc	2 519 20 prologue_end           @ ../../../../Library/StdDriver/src/rtc.c:519:20
	ldr	r0, [sp, #16]
	.loc	2 519 28 is_stmt 0              @ ../../../../Library/StdDriver/src/rtc.c:519:28
	movw	r2, #2000
	subs	r0, r0, r2
	movs	r1, #10
	.loc	2 519 44                        @ ../../../../Library/StdDriver/src/rtc.c:519:44
	udiv	r0, r0, r1
	.loc	2 519 52                        @ ../../../../Library/StdDriver/src/rtc.c:519:52
	lsls	r0, r0, #20
	.loc	2 519 16                        @ ../../../../Library/StdDriver/src/rtc.c:519:16
	str	r0, [sp]
	.loc	2 520 21 is_stmt 1              @ ../../../../Library/StdDriver/src/rtc.c:520:21
	ldr	r0, [sp, #16]
	.loc	2 520 29 is_stmt 0              @ ../../../../Library/StdDriver/src/rtc.c:520:29
	subs	r0, r0, r2
	.loc	2 520 45                        @ ../../../../Library/StdDriver/src/rtc.c:520:45
	udiv	r3, r0, r1
	mov	r2, r1
	muls	r2, r3, r2
	subs	r0, r0, r2
	.loc	2 520 53                        @ ../../../../Library/StdDriver/src/rtc.c:520:53
	lsls	r2, r0, #16
	.loc	2 520 15                        @ ../../../../Library/StdDriver/src/rtc.c:520:15
	ldr	r0, [sp]
	orrs	r0, r2
	str	r0, [sp]
	.loc	2 521 20 is_stmt 1              @ ../../../../Library/StdDriver/src/rtc.c:521:20
	ldr	r0, [sp, #12]
	.loc	2 521 29 is_stmt 0              @ ../../../../Library/StdDriver/src/rtc.c:521:29
	udiv	r0, r0, r1
	.loc	2 521 37                        @ ../../../../Library/StdDriver/src/rtc.c:521:37
	lsls	r2, r0, #12
	.loc	2 521 15                        @ ../../../../Library/StdDriver/src/rtc.c:521:15
	ldr	r0, [sp]
	orrs	r0, r2
	str	r0, [sp]
	.loc	2 522 20 is_stmt 1              @ ../../../../Library/StdDriver/src/rtc.c:522:20
	ldr	r0, [sp, #12]
	.loc	2 522 29 is_stmt 0              @ ../../../../Library/StdDriver/src/rtc.c:522:29
	udiv	r3, r0, r1
	mov	r2, r1
	muls	r2, r3, r2
	subs	r0, r0, r2
	.loc	2 522 37                        @ ../../../../Library/StdDriver/src/rtc.c:522:37
	lsls	r2, r0, #8
	.loc	2 522 15                        @ ../../../../Library/StdDriver/src/rtc.c:522:15
	ldr	r0, [sp]
	orrs	r0, r2
	str	r0, [sp]
	.loc	2 523 20 is_stmt 1              @ ../../../../Library/StdDriver/src/rtc.c:523:20
	ldr	r0, [sp, #8]
	.loc	2 523 29 is_stmt 0              @ ../../../../Library/StdDriver/src/rtc.c:523:29
	udiv	r0, r0, r1
	.loc	2 523 37                        @ ../../../../Library/StdDriver/src/rtc.c:523:37
	lsls	r2, r0, #4
	.loc	2 523 15                        @ ../../../../Library/StdDriver/src/rtc.c:523:15
	ldr	r0, [sp]
	orrs	r0, r2
	str	r0, [sp]
	.loc	2 524 19 is_stmt 1              @ ../../../../Library/StdDriver/src/rtc.c:524:19
	ldr	r0, [sp, #8]
	.loc	2 524 28 is_stmt 0              @ ../../../../Library/StdDriver/src/rtc.c:524:28
	udiv	r2, r0, r1
	muls	r1, r2, r1
	subs	r1, r0, r1
	.loc	2 524 15                        @ ../../../../Library/StdDriver/src/rtc.c:524:15
	ldr	r0, [sp]
	orrs	r0, r1
	str	r0, [sp]
	.loc	2 527 20 is_stmt 1              @ ../../../../Library/StdDriver/src/rtc.c:527:20
	ldr	r0, [sp, #4]
	movs	r1, #7
	.loc	2 527 33 is_stmt 0              @ ../../../../Library/StdDriver/src/rtc.c:527:33
	ands	r0, r1
	ldr	r1, __arm_cp.7_0
	.loc	2 527 18                        @ ../../../../Library/StdDriver/src/rtc.c:527:18
	str	r0, [r1]
	.loc	2 530 26 is_stmt 1              @ ../../../../Library/StdDriver/src/rtc.c:530:26
	ldr	r0, [sp]
	ldr	r1, __arm_cp.7_1
	.loc	2 530 14 is_stmt 0              @ ../../../../Library/StdDriver/src/rtc.c:530:14
	str	r0, [r1]
	.loc	2 531 1 is_stmt 1               @ ../../../../Library/StdDriver/src/rtc.c:531:1
	add	sp, #20
	bx	lr
.Ltmp90:
	.p2align	2
@ %bb.1:
	.loc	2 0 1 is_stmt 0                 @ ../../../../Library/StdDriver/src/rtc.c:0:1
__arm_cp.7_0:
	.long	1074008088                      @ 0x40041018
.Lcpi_end49:
	.size	__arm_cp.7_0, .Lcpi_end49-__arm_cp.7_0
__arm_cp.7_1:
	.long	1074008080                      @ 0x40041010
.Lcpi_end50:
	.size	__arm_cp.7_1, .Lcpi_end50-__arm_cp.7_1
.Lfunc_end7:
	.size	RTC_SetDate, .Lfunc_end7-RTC_SetDate
	.cfi_endproc
	.cantunwind
	.fnend
                                        @ -- End function
	.section	.text.RTC_SetTime,"ax",%progbits
	.hidden	RTC_SetTime                     @ -- Begin function RTC_SetTime
	.globl	RTC_SetTime
	.p2align	2
	.type	RTC_SetTime,%function
	.code	16                              @ @RTC_SetTime
	.thumb_func
RTC_SetTime:
.Lfunc_begin8:
	.loc	2 546 0 is_stmt 1               @ ../../../../Library/StdDriver/src/rtc.c:546:0
	.fnstart
	.cfi_startproc
@ %bb.0:
	.save	{r4, lr}
	push	{r4, lr}
	.cfi_def_cfa_offset 8
	.cfi_offset lr, -4
	.cfi_offset r4, -8
	.pad	#24
	sub	sp, #24
	.cfi_def_cfa_offset 32
	ldr	r4, [sp, #32]
	str	r0, [sp, #20]
	str	r1, [sp, #16]
	str	r2, [sp, #12]
	str	r3, [sp, #8]
.Ltmp91:
	.loc	2 550 10 prologue_end           @ ../../../../Library/StdDriver/src/rtc.c:550:10
	ldr	r0, [sp, #8]
	.loc	2 550 39 is_stmt 0              @ ../../../../Library/StdDriver/src/rtc.c:550:39
	cbnz	r0, .LBB8_3
	b	.LBB8_1
.LBB8_1:
	.loc	2 550 43                        @ ../../../../Library/StdDriver/src/rtc.c:550:43
	ldr	r0, [sp, #32]
.Ltmp92:
	.loc	2 550 9                         @ ../../../../Library/StdDriver/src/rtc.c:550:9
	cmp	r0, #2
	bne	.LBB8_3
	b	.LBB8_2
.LBB8_2:
.Ltmp93:
	.loc	2 552 17 is_stmt 1              @ ../../../../Library/StdDriver/src/rtc.c:552:17
	ldr	r0, [sp, #20]
	adds	r0, #20
	str	r0, [sp, #20]
	.loc	2 553 5                         @ ../../../../Library/StdDriver/src/rtc.c:553:5
	b	.LBB8_3
.Ltmp94:
.LBB8_3:
	.loc	2 555 21                        @ ../../../../Library/StdDriver/src/rtc.c:555:21
	ldr	r0, [sp, #20]
	movs	r1, #10
	.loc	2 555 31 is_stmt 0              @ ../../../../Library/StdDriver/src/rtc.c:555:31
	str	r1, [sp]                        @ 4-byte Spill
	udiv	r0, r0, r1
	.loc	2 555 39                        @ ../../../../Library/StdDriver/src/rtc.c:555:39
	lsls	r0, r0, #20
	.loc	2 555 17                        @ ../../../../Library/StdDriver/src/rtc.c:555:17
	str	r0, [sp, #4]
	.loc	2 556 21 is_stmt 1              @ ../../../../Library/StdDriver/src/rtc.c:556:21
	ldr	r0, [sp, #20]
	.loc	2 556 31 is_stmt 0              @ ../../../../Library/StdDriver/src/rtc.c:556:31
	udiv	r3, r0, r1
	mov	r2, r1
	muls	r2, r3, r2
	subs	r0, r0, r2
	.loc	2 556 39                        @ ../../../../Library/StdDriver/src/rtc.c:556:39
	lsls	r2, r0, #16
	.loc	2 556 16                        @ ../../../../Library/StdDriver/src/rtc.c:556:16
	ldr	r0, [sp, #4]
	orrs	r0, r2
	str	r0, [sp, #4]
	.loc	2 557 21 is_stmt 1              @ ../../../../Library/StdDriver/src/rtc.c:557:21
	ldr	r0, [sp, #16]
	.loc	2 557 31 is_stmt 0              @ ../../../../Library/StdDriver/src/rtc.c:557:31
	udiv	r0, r0, r1
	.loc	2 557 39                        @ ../../../../Library/StdDriver/src/rtc.c:557:39
	lsls	r2, r0, #12
	.loc	2 557 16                        @ ../../../../Library/StdDriver/src/rtc.c:557:16
	ldr	r0, [sp, #4]
	orrs	r0, r2
	str	r0, [sp, #4]
	.loc	2 558 21 is_stmt 1              @ ../../../../Library/StdDriver/src/rtc.c:558:21
	ldr	r0, [sp, #16]
	.loc	2 558 31 is_stmt 0              @ ../../../../Library/StdDriver/src/rtc.c:558:31
	udiv	r3, r0, r1
	mov	r2, r1
	muls	r2, r3, r2
	subs	r0, r0, r2
	.loc	2 558 39                        @ ../../../../Library/StdDriver/src/rtc.c:558:39
	lsls	r2, r0, #8
	.loc	2 558 16                        @ ../../../../Library/StdDriver/src/rtc.c:558:16
	ldr	r0, [sp, #4]
	orrs	r0, r2
	str	r0, [sp, #4]
	.loc	2 559 21 is_stmt 1              @ ../../../../Library/StdDriver/src/rtc.c:559:21
	ldr	r0, [sp, #12]
	.loc	2 559 31 is_stmt 0              @ ../../../../Library/StdDriver/src/rtc.c:559:31
	udiv	r0, r0, r1
	.loc	2 559 39                        @ ../../../../Library/StdDriver/src/rtc.c:559:39
	lsls	r2, r0, #4
	.loc	2 559 16                        @ ../../../../Library/StdDriver/src/rtc.c:559:16
	ldr	r0, [sp, #4]
	orrs	r0, r2
	str	r0, [sp, #4]
	.loc	2 560 20 is_stmt 1              @ ../../../../Library/StdDriver/src/rtc.c:560:20
	ldr	r0, [sp, #12]
	.loc	2 560 30 is_stmt 0              @ ../../../../Library/StdDriver/src/rtc.c:560:30
	udiv	r2, r0, r1
	muls	r1, r2, r1
	subs	r1, r0, r1
	.loc	2 560 16                        @ ../../../../Library/StdDriver/src/rtc.c:560:16
	ldr	r0, [sp, #4]
	orrs	r0, r1
	str	r0, [sp, #4]
.Ltmp95:
	.loc	2 566 9 is_stmt 1               @ ../../../../Library/StdDriver/src/rtc.c:566:9
	ldr	r0, [sp, #8]
.Ltmp96:
	.loc	2 566 9 is_stmt 0               @ ../../../../Library/StdDriver/src/rtc.c:566:9
	cbnz	r0, .LBB8_5
	b	.LBB8_4
.LBB8_4:
	.loc	2 0 9                           @ ../../../../Library/StdDriver/src/rtc.c:0:9
	ldr	r1, __arm_cp.8_0
.Ltmp97:
	.loc	2 568 21 is_stmt 1              @ ../../../../Library/StdDriver/src/rtc.c:568:21
	ldr	r0, [r1]
	movs	r2, #1
	bics	r0, r2
	str	r0, [r1]
	.loc	2 569 5                         @ ../../../../Library/StdDriver/src/rtc.c:569:5
	b	.LBB8_6
.Ltmp98:
.LBB8_5:
	.loc	2 0 5 is_stmt 0                 @ ../../../../Library/StdDriver/src/rtc.c:0:5
	ldr	r1, __arm_cp.8_0
.Ltmp99:
	.loc	2 572 21 is_stmt 1              @ ../../../../Library/StdDriver/src/rtc.c:572:21
	ldr	r0, [r1]
	movs	r2, #1
	orrs	r0, r2
	str	r0, [r1]
	b	.LBB8_6
.Ltmp100:
.LBB8_6:
	.loc	2 575 27                        @ ../../../../Library/StdDriver/src/rtc.c:575:27
	ldr	r0, [sp, #4]
	ldr	r1, __arm_cp.8_1
	.loc	2 575 15 is_stmt 0              @ ../../../../Library/StdDriver/src/rtc.c:575:15
	str	r0, [r1]
	.loc	2 576 1 is_stmt 1               @ ../../../../Library/StdDriver/src/rtc.c:576:1
	add	sp, #24
	pop	{r4, pc}
.Ltmp101:
	.p2align	2
@ %bb.7:
	.loc	2 0 1 is_stmt 0                 @ ../../../../Library/StdDriver/src/rtc.c:0:1
__arm_cp.8_0:
	.long	1074008084                      @ 0x40041014
.Lcpi_end51:
	.size	__arm_cp.8_0, .Lcpi_end51-__arm_cp.8_0
__arm_cp.8_1:
	.long	1074008076                      @ 0x4004100c
.Lcpi_end52:
	.size	__arm_cp.8_1, .Lcpi_end52-__arm_cp.8_1
.Lfunc_end8:
	.size	RTC_SetTime, .Lfunc_end8-RTC_SetTime
	.cfi_endproc
	.cantunwind
	.fnend
                                        @ -- End function
	.section	.text.RTC_SetAlarmDate,"ax",%progbits
	.hidden	RTC_SetAlarmDate                @ -- Begin function RTC_SetAlarmDate
	.globl	RTC_SetAlarmDate
	.p2align	2
	.type	RTC_SetAlarmDate,%function
	.code	16                              @ @RTC_SetAlarmDate
	.thumb_func
RTC_SetAlarmDate:
.Lfunc_begin9:
	.loc	2 589 0 is_stmt 1               @ ../../../../Library/StdDriver/src/rtc.c:589:0
	.fnstart
	.cfi_startproc
@ %bb.0:
	.pad	#16
	sub	sp, #16
	.cfi_def_cfa_offset 16
	str	r0, [sp, #12]
	str	r1, [sp, #8]
	str	r2, [sp, #4]
.Ltmp102:
	.loc	2 592 21 prologue_end           @ ../../../../Library/StdDriver/src/rtc.c:592:21
	ldr	r0, [sp, #12]
	.loc	2 592 29 is_stmt 0              @ ../../../../Library/StdDriver/src/rtc.c:592:29
	movw	r2, #2000
	subs	r0, r0, r2
	movs	r1, #10
	.loc	2 592 45                        @ ../../../../Library/StdDriver/src/rtc.c:592:45
	udiv	r0, r0, r1
	.loc	2 592 53                        @ ../../../../Library/StdDriver/src/rtc.c:592:53
	lsls	r0, r0, #20
	.loc	2 592 17                        @ ../../../../Library/StdDriver/src/rtc.c:592:17
	str	r0, [sp]
	.loc	2 593 22 is_stmt 1              @ ../../../../Library/StdDriver/src/rtc.c:593:22
	ldr	r0, [sp, #12]
	.loc	2 593 30 is_stmt 0              @ ../../../../Library/StdDriver/src/rtc.c:593:30
	subs	r0, r0, r2
	.loc	2 593 46                        @ ../../../../Library/StdDriver/src/rtc.c:593:46
	udiv	r3, r0, r1
	mov	r2, r1
	muls	r2, r3, r2
	subs	r0, r0, r2
	.loc	2 593 54                        @ ../../../../Library/StdDriver/src/rtc.c:593:54
	lsls	r2, r0, #16
	.loc	2 593 16                        @ ../../../../Library/StdDriver/src/rtc.c:593:16
	ldr	r0, [sp]
	orrs	r0, r2
	str	r0, [sp]
	.loc	2 594 21 is_stmt 1              @ ../../../../Library/StdDriver/src/rtc.c:594:21
	ldr	r0, [sp, #8]
	.loc	2 594 30 is_stmt 0              @ ../../../../Library/StdDriver/src/rtc.c:594:30
	udiv	r0, r0, r1
	.loc	2 594 38                        @ ../../../../Library/StdDriver/src/rtc.c:594:38
	lsls	r2, r0, #12
	.loc	2 594 16                        @ ../../../../Library/StdDriver/src/rtc.c:594:16
	ldr	r0, [sp]
	orrs	r0, r2
	str	r0, [sp]
	.loc	2 595 21 is_stmt 1              @ ../../../../Library/StdDriver/src/rtc.c:595:21
	ldr	r0, [sp, #8]
	.loc	2 595 30 is_stmt 0              @ ../../../../Library/StdDriver/src/rtc.c:595:30
	udiv	r3, r0, r1
	mov	r2, r1
	muls	r2, r3, r2
	subs	r0, r0, r2
	.loc	2 595 38                        @ ../../../../Library/StdDriver/src/rtc.c:595:38
	lsls	r2, r0, #8
	.loc	2 595 16                        @ ../../../../Library/StdDriver/src/rtc.c:595:16
	ldr	r0, [sp]
	orrs	r0, r2
	str	r0, [sp]
	.loc	2 596 21 is_stmt 1              @ ../../../../Library/StdDriver/src/rtc.c:596:21
	ldr	r0, [sp, #4]
	.loc	2 596 30 is_stmt 0              @ ../../../../Library/StdDriver/src/rtc.c:596:30
	udiv	r0, r0, r1
	.loc	2 596 38                        @ ../../../../Library/StdDriver/src/rtc.c:596:38
	lsls	r2, r0, #4
	.loc	2 596 16                        @ ../../../../Library/StdDriver/src/rtc.c:596:16
	ldr	r0, [sp]
	orrs	r0, r2
	str	r0, [sp]
	.loc	2 597 20 is_stmt 1              @ ../../../../Library/StdDriver/src/rtc.c:597:20
	ldr	r0, [sp, #4]
	.loc	2 597 29 is_stmt 0              @ ../../../../Library/StdDriver/src/rtc.c:597:29
	udiv	r2, r0, r1
	muls	r1, r2, r1
	subs	r1, r0, r1
	.loc	2 597 16                        @ ../../../../Library/StdDriver/src/rtc.c:597:16
	ldr	r0, [sp]
	orrs	r0, r1
	str	r0, [sp]
	.loc	2 601 27 is_stmt 1              @ ../../../../Library/StdDriver/src/rtc.c:601:27
	ldr	r0, [sp]
	ldr	r1, __arm_cp.9_0
	.loc	2 601 15 is_stmt 0              @ ../../../../Library/StdDriver/src/rtc.c:601:15
	str	r0, [r1]
	.loc	2 602 1 is_stmt 1               @ ../../../../Library/StdDriver/src/rtc.c:602:1
	add	sp, #16
	bx	lr
.Ltmp103:
	.p2align	2
@ %bb.1:
	.loc	2 0 1 is_stmt 0                 @ ../../../../Library/StdDriver/src/rtc.c:0:1
__arm_cp.9_0:
	.long	1074008096                      @ 0x40041020
.Lcpi_end53:
	.size	__arm_cp.9_0, .Lcpi_end53-__arm_cp.9_0
.Lfunc_end9:
	.size	RTC_SetAlarmDate, .Lfunc_end9-RTC_SetAlarmDate
	.cfi_endproc
	.cantunwind
	.fnend
                                        @ -- End function
	.section	.text.RTC_SetAlarmTime,"ax",%progbits
	.hidden	RTC_SetAlarmTime                @ -- Begin function RTC_SetAlarmTime
	.globl	RTC_SetAlarmTime
	.p2align	2
	.type	RTC_SetAlarmTime,%function
	.code	16                              @ @RTC_SetAlarmTime
	.thumb_func
RTC_SetAlarmTime:
.Lfunc_begin10:
	.loc	2 617 0 is_stmt 1               @ ../../../../Library/StdDriver/src/rtc.c:617:0
	.fnstart
	.cfi_startproc
@ %bb.0:
	.save	{r4, lr}
	push	{r4, lr}
	.cfi_def_cfa_offset 8
	.cfi_offset lr, -4
	.cfi_offset r4, -8
	.pad	#24
	sub	sp, #24
	.cfi_def_cfa_offset 32
	ldr	r4, [sp, #32]
	str	r0, [sp, #20]
	str	r1, [sp, #16]
	str	r2, [sp, #12]
	str	r3, [sp, #8]
.Ltmp104:
	.loc	2 621 10 prologue_end           @ ../../../../Library/StdDriver/src/rtc.c:621:10
	ldr	r0, [sp, #8]
	.loc	2 621 49 is_stmt 0              @ ../../../../Library/StdDriver/src/rtc.c:621:49
	cbnz	r0, .LBB10_3
	b	.LBB10_1
.LBB10_1:
	.loc	2 621 53                        @ ../../../../Library/StdDriver/src/rtc.c:621:53
	ldr	r0, [sp, #32]
.Ltmp105:
	.loc	2 621 9                         @ ../../../../Library/StdDriver/src/rtc.c:621:9
	cmp	r0, #2
	bne	.LBB10_3
	b	.LBB10_2
.LBB10_2:
.Ltmp106:
	.loc	2 623 17 is_stmt 1              @ ../../../../Library/StdDriver/src/rtc.c:623:17
	ldr	r0, [sp, #20]
	adds	r0, #20
	str	r0, [sp, #20]
	.loc	2 624 5                         @ ../../../../Library/StdDriver/src/rtc.c:624:5
	b	.LBB10_3
.Ltmp107:
.LBB10_3:
	.loc	2 626 21                        @ ../../../../Library/StdDriver/src/rtc.c:626:21
	ldr	r0, [sp, #20]
	movs	r1, #10
	.loc	2 626 31 is_stmt 0              @ ../../../../Library/StdDriver/src/rtc.c:626:31
	str	r1, [sp]                        @ 4-byte Spill
	udiv	r0, r0, r1
	.loc	2 626 39                        @ ../../../../Library/StdDriver/src/rtc.c:626:39
	lsls	r0, r0, #20
	.loc	2 626 17                        @ ../../../../Library/StdDriver/src/rtc.c:626:17
	str	r0, [sp, #4]
	.loc	2 627 21 is_stmt 1              @ ../../../../Library/StdDriver/src/rtc.c:627:21
	ldr	r0, [sp, #20]
	.loc	2 627 31 is_stmt 0              @ ../../../../Library/StdDriver/src/rtc.c:627:31
	udiv	r3, r0, r1
	mov	r2, r1
	muls	r2, r3, r2
	subs	r0, r0, r2
	.loc	2 627 39                        @ ../../../../Library/StdDriver/src/rtc.c:627:39
	lsls	r2, r0, #16
	.loc	2 627 16                        @ ../../../../Library/StdDriver/src/rtc.c:627:16
	ldr	r0, [sp, #4]
	orrs	r0, r2
	str	r0, [sp, #4]
	.loc	2 628 21 is_stmt 1              @ ../../../../Library/StdDriver/src/rtc.c:628:21
	ldr	r0, [sp, #16]
	.loc	2 628 31 is_stmt 0              @ ../../../../Library/StdDriver/src/rtc.c:628:31
	udiv	r0, r0, r1
	.loc	2 628 39                        @ ../../../../Library/StdDriver/src/rtc.c:628:39
	lsls	r2, r0, #12
	.loc	2 628 16                        @ ../../../../Library/StdDriver/src/rtc.c:628:16
	ldr	r0, [sp, #4]
	orrs	r0, r2
	str	r0, [sp, #4]
	.loc	2 629 21 is_stmt 1              @ ../../../../Library/StdDriver/src/rtc.c:629:21
	ldr	r0, [sp, #16]
	.loc	2 629 31 is_stmt 0              @ ../../../../Library/StdDriver/src/rtc.c:629:31
	udiv	r3, r0, r1
	mov	r2, r1
	muls	r2, r3, r2
	subs	r0, r0, r2
	.loc	2 629 39                        @ ../../../../Library/StdDriver/src/rtc.c:629:39
	lsls	r2, r0, #8
	.loc	2 629 16                        @ ../../../../Library/StdDriver/src/rtc.c:629:16
	ldr	r0, [sp, #4]
	orrs	r0, r2
	str	r0, [sp, #4]
	.loc	2 630 21 is_stmt 1              @ ../../../../Library/StdDriver/src/rtc.c:630:21
	ldr	r0, [sp, #12]
	.loc	2 630 31 is_stmt 0              @ ../../../../Library/StdDriver/src/rtc.c:630:31
	udiv	r0, r0, r1
	.loc	2 630 39                        @ ../../../../Library/StdDriver/src/rtc.c:630:39
	lsls	r2, r0, #4
	.loc	2 630 16                        @ ../../../../Library/StdDriver/src/rtc.c:630:16
	ldr	r0, [sp, #4]
	orrs	r0, r2
	str	r0, [sp, #4]
	.loc	2 631 20 is_stmt 1              @ ../../../../Library/StdDriver/src/rtc.c:631:20
	ldr	r0, [sp, #12]
	.loc	2 631 30 is_stmt 0              @ ../../../../Library/StdDriver/src/rtc.c:631:30
	udiv	r2, r0, r1
	muls	r1, r2, r1
	subs	r1, r0, r1
	.loc	2 631 16                        @ ../../../../Library/StdDriver/src/rtc.c:631:16
	ldr	r0, [sp, #4]
	orrs	r0, r1
	str	r0, [sp, #4]
.Ltmp108:
	.loc	2 637 9 is_stmt 1               @ ../../../../Library/StdDriver/src/rtc.c:637:9
	ldr	r0, [sp, #8]
.Ltmp109:
	.loc	2 637 9 is_stmt 0               @ ../../../../Library/StdDriver/src/rtc.c:637:9
	cbnz	r0, .LBB10_5
	b	.LBB10_4
.LBB10_4:
	.loc	2 0 9                           @ ../../../../Library/StdDriver/src/rtc.c:0:9
	ldr	r1, __arm_cp.10_0
.Ltmp110:
	.loc	2 639 21 is_stmt 1              @ ../../../../Library/StdDriver/src/rtc.c:639:21
	ldr	r0, [r1]
	movs	r2, #1
	bics	r0, r2
	str	r0, [r1]
	.loc	2 640 5                         @ ../../../../Library/StdDriver/src/rtc.c:640:5
	b	.LBB10_6
.Ltmp111:
.LBB10_5:
	.loc	2 0 5 is_stmt 0                 @ ../../../../Library/StdDriver/src/rtc.c:0:5
	ldr	r1, __arm_cp.10_0
.Ltmp112:
	.loc	2 643 21 is_stmt 1              @ ../../../../Library/StdDriver/src/rtc.c:643:21
	ldr	r0, [r1]
	movs	r2, #1
	orrs	r0, r2
	str	r0, [r1]
	b	.LBB10_6
.Ltmp113:
.LBB10_6:
	.loc	2 647 27                        @ ../../../../Library/StdDriver/src/rtc.c:647:27
	ldr	r0, [sp, #4]
	ldr	r1, __arm_cp.10_1
	.loc	2 647 15 is_stmt 0              @ ../../../../Library/StdDriver/src/rtc.c:647:15
	str	r0, [r1]
	.loc	2 648 1 is_stmt 1               @ ../../../../Library/StdDriver/src/rtc.c:648:1
	add	sp, #24
	pop	{r4, pc}
.Ltmp114:
	.p2align	2
@ %bb.7:
	.loc	2 0 1 is_stmt 0                 @ ../../../../Library/StdDriver/src/rtc.c:0:1
__arm_cp.10_0:
	.long	1074008084                      @ 0x40041014
.Lcpi_end54:
	.size	__arm_cp.10_0, .Lcpi_end54-__arm_cp.10_0
__arm_cp.10_1:
	.long	1074008092                      @ 0x4004101c
.Lcpi_end55:
	.size	__arm_cp.10_1, .Lcpi_end55-__arm_cp.10_1
.Lfunc_end10:
	.size	RTC_SetAlarmTime, .Lfunc_end10-RTC_SetAlarmTime
	.cfi_endproc
	.cantunwind
	.fnend
                                        @ -- End function
	.section	.text.RTC_SetAlarmDateMask,"ax",%progbits
	.hidden	RTC_SetAlarmDateMask            @ -- Begin function RTC_SetAlarmDateMask
	.globl	RTC_SetAlarmDateMask
	.p2align	2
	.type	RTC_SetAlarmDateMask,%function
	.code	16                              @ @RTC_SetAlarmDateMask
	.thumb_func
RTC_SetAlarmDateMask:
.Lfunc_begin11:
	.loc	2 664 0 is_stmt 1               @ ../../../../Library/StdDriver/src/rtc.c:664:0
	.fnstart
	.cfi_startproc
@ %bb.0:
	.save	{r4, r5, r6, lr}
	push	{r4, r5, r6, lr}
	.cfi_def_cfa_offset 16
	.cfi_offset lr, -4
	.cfi_offset r6, -8
	.cfi_offset r5, -12
	.cfi_offset r4, -16
	.pad	#28
	sub	sp, #28
	.cfi_def_cfa_offset 44
	str	r3, [sp]                        @ 4-byte Spill
	mov	r3, r2
	ldr	r2, [sp]                        @ 4-byte Reload
	mov	r4, r1
	mov	r5, r0
	ldr	r6, [sp, #48]
	ldr	r1, [sp, #44]
                                        @ kill: def $r0 killed $r2
                                        @ kill: def $r0 killed $r3
                                        @ kill: def $r0 killed $r4
                                        @ kill: def $r0 killed $r5
	add	r0, sp, #24
	strb	r5, [r0]
	add	r5, sp, #20
	strb	r4, [r5]
	add	r4, sp, #16
	strb	r3, [r4]
	add	r3, sp, #12
	strb	r2, [r3]
	add	r2, sp, #8
	strb	r1, [r2]
	add	r1, sp, #4
	strb	r6, [r1]
.Ltmp115:
	.loc	2 666 29 prologue_end           @ ../../../../Library/StdDriver/src/rtc.c:666:29
	ldrb	r0, [r0]
	.loc	2 666 41 is_stmt 0              @ ../../../../Library/StdDriver/src/rtc.c:666:41
	lsls	r0, r0, #5
	.loc	2 667 29 is_stmt 1              @ ../../../../Library/StdDriver/src/rtc.c:667:29
	ldrb	r5, [r5]
	.loc	2 667 41 is_stmt 0              @ ../../../../Library/StdDriver/src/rtc.c:667:41
	lsls	r5, r5, #4
	.loc	2 666 68 is_stmt 1              @ ../../../../Library/StdDriver/src/rtc.c:666:68
	orrs	r0, r5
	.loc	2 668 29                        @ ../../../../Library/StdDriver/src/rtc.c:668:29
	ldrb	r4, [r4]
	.loc	2 668 41 is_stmt 0              @ ../../../../Library/StdDriver/src/rtc.c:668:41
	lsls	r4, r4, #3
	.loc	2 667 65 is_stmt 1              @ ../../../../Library/StdDriver/src/rtc.c:667:65
	orrs	r0, r4
	.loc	2 669 29                        @ ../../../../Library/StdDriver/src/rtc.c:669:29
	ldrb	r3, [r3]
	.loc	2 669 41 is_stmt 0              @ ../../../../Library/StdDriver/src/rtc.c:669:41
	lsls	r3, r3, #2
	.loc	2 668 67 is_stmt 1              @ ../../../../Library/StdDriver/src/rtc.c:668:67
	orrs	r0, r3
	.loc	2 670 29                        @ ../../../../Library/StdDriver/src/rtc.c:670:29
	ldrb	r2, [r2]
	.loc	2 670 41 is_stmt 0              @ ../../../../Library/StdDriver/src/rtc.c:670:41
	lsls	r2, r2, #1
	.loc	2 669 64 is_stmt 1              @ ../../../../Library/StdDriver/src/rtc.c:669:64
	orrs	r0, r2
	.loc	2 671 29                        @ ../../../../Library/StdDriver/src/rtc.c:671:29
	ldrb	r1, [r1]
	.loc	2 670 67                        @ ../../../../Library/StdDriver/src/rtc.c:670:67
	orrs	r0, r1
	ldr	r1, __arm_cp.11_0
	.loc	2 666 16                        @ ../../../../Library/StdDriver/src/rtc.c:666:16
	str	r0, [r1]
	.loc	2 672 1                         @ ../../../../Library/StdDriver/src/rtc.c:672:1
	add	sp, #28
	pop	{r4, r5, r6, pc}
.Ltmp116:
	.p2align	2
@ %bb.1:
	.loc	2 0 1 is_stmt 0                 @ ../../../../Library/StdDriver/src/rtc.c:0:1
__arm_cp.11_0:
	.long	1074008120                      @ 0x40041038
.Lcpi_end56:
	.size	__arm_cp.11_0, .Lcpi_end56-__arm_cp.11_0
.Lfunc_end11:
	.size	RTC_SetAlarmDateMask, .Lfunc_end11-RTC_SetAlarmDateMask
	.cfi_endproc
	.cantunwind
	.fnend
                                        @ -- End function
	.section	.text.RTC_SetAlarmTimeMask,"ax",%progbits
	.hidden	RTC_SetAlarmTimeMask            @ -- Begin function RTC_SetAlarmTimeMask
	.globl	RTC_SetAlarmTimeMask
	.p2align	2
	.type	RTC_SetAlarmTimeMask,%function
	.code	16                              @ @RTC_SetAlarmTimeMask
	.thumb_func
RTC_SetAlarmTimeMask:
.Lfunc_begin12:
	.loc	2 688 0 is_stmt 1               @ ../../../../Library/StdDriver/src/rtc.c:688:0
	.fnstart
	.cfi_startproc
@ %bb.0:
	.save	{r4, r5, r6, lr}
	push	{r4, r5, r6, lr}
	.cfi_def_cfa_offset 16
	.cfi_offset lr, -4
	.cfi_offset r6, -8
	.cfi_offset r5, -12
	.cfi_offset r4, -16
	.pad	#28
	sub	sp, #28
	.cfi_def_cfa_offset 44
	str	r3, [sp]                        @ 4-byte Spill
	mov	r3, r2
	ldr	r2, [sp]                        @ 4-byte Reload
	mov	r4, r1
	mov	r5, r0
	ldr	r6, [sp, #48]
	ldr	r1, [sp, #44]
                                        @ kill: def $r0 killed $r2
                                        @ kill: def $r0 killed $r3
                                        @ kill: def $r0 killed $r4
                                        @ kill: def $r0 killed $r5
	add	r0, sp, #24
	strb	r5, [r0]
	add	r5, sp, #20
	strb	r4, [r5]
	add	r4, sp, #16
	strb	r3, [r4]
	add	r3, sp, #12
	strb	r2, [r3]
	add	r2, sp, #8
	strb	r1, [r2]
	add	r1, sp, #4
	strb	r6, [r1]
.Ltmp117:
	.loc	2 690 29 prologue_end           @ ../../../../Library/StdDriver/src/rtc.c:690:29
	ldrb	r0, [r0]
	.loc	2 690 41 is_stmt 0              @ ../../../../Library/StdDriver/src/rtc.c:690:41
	lsls	r0, r0, #5
	.loc	2 691 29 is_stmt 1              @ ../../../../Library/StdDriver/src/rtc.c:691:29
	ldrb	r5, [r5]
	.loc	2 691 41 is_stmt 0              @ ../../../../Library/StdDriver/src/rtc.c:691:41
	lsls	r5, r5, #4
	.loc	2 690 66 is_stmt 1              @ ../../../../Library/StdDriver/src/rtc.c:690:66
	orrs	r0, r5
	.loc	2 692 29                        @ ../../../../Library/StdDriver/src/rtc.c:692:29
	ldrb	r4, [r4]
	.loc	2 692 41 is_stmt 0              @ ../../../../Library/StdDriver/src/rtc.c:692:41
	lsls	r4, r4, #3
	.loc	2 691 63 is_stmt 1              @ ../../../../Library/StdDriver/src/rtc.c:691:63
	orrs	r0, r4
	.loc	2 693 29                        @ ../../../../Library/StdDriver/src/rtc.c:693:29
	ldrb	r3, [r3]
	.loc	2 693 41 is_stmt 0              @ ../../../../Library/StdDriver/src/rtc.c:693:41
	lsls	r3, r3, #2
	.loc	2 692 67 is_stmt 1              @ ../../../../Library/StdDriver/src/rtc.c:692:67
	orrs	r0, r3
	.loc	2 694 29                        @ ../../../../Library/StdDriver/src/rtc.c:694:29
	ldrb	r2, [r2]
	.loc	2 694 41 is_stmt 0              @ ../../../../Library/StdDriver/src/rtc.c:694:41
	lsls	r2, r2, #1
	.loc	2 693 64 is_stmt 1              @ ../../../../Library/StdDriver/src/rtc.c:693:64
	orrs	r0, r2
	.loc	2 695 29                        @ ../../../../Library/StdDriver/src/rtc.c:695:29
	ldrb	r1, [r1]
	.loc	2 694 67                        @ ../../../../Library/StdDriver/src/rtc.c:694:67
	orrs	r0, r1
	ldr	r1, __arm_cp.12_0
	.loc	2 690 16                        @ ../../../../Library/StdDriver/src/rtc.c:690:16
	str	r0, [r1]
	.loc	2 696 1                         @ ../../../../Library/StdDriver/src/rtc.c:696:1
	add	sp, #28
	pop	{r4, r5, r6, pc}
.Ltmp118:
	.p2align	2
@ %bb.1:
	.loc	2 0 1 is_stmt 0                 @ ../../../../Library/StdDriver/src/rtc.c:0:1
__arm_cp.12_0:
	.long	1074008116                      @ 0x40041034
.Lcpi_end57:
	.size	__arm_cp.12_0, .Lcpi_end57-__arm_cp.12_0
.Lfunc_end12:
	.size	RTC_SetAlarmTimeMask, .Lfunc_end12-RTC_SetAlarmTimeMask
	.cfi_endproc
	.cantunwind
	.fnend
                                        @ -- End function
	.section	.text.RTC_GetDayOfWeek,"ax",%progbits
	.hidden	RTC_GetDayOfWeek                @ -- Begin function RTC_GetDayOfWeek
	.globl	RTC_GetDayOfWeek
	.p2align	2
	.type	RTC_GetDayOfWeek,%function
	.code	16                              @ @RTC_GetDayOfWeek
	.thumb_func
RTC_GetDayOfWeek:
.Lfunc_begin13:
	.loc	2 713 0 is_stmt 1               @ ../../../../Library/StdDriver/src/rtc.c:713:0
	.fnstart
	.cfi_startproc
@ %bb.0:
	ldr	r0, __arm_cp.13_0
.Ltmp119:
	.loc	2 714 18 prologue_end           @ ../../../../Library/StdDriver/src/rtc.c:714:18
	ldr	r0, [r0]
	movs	r1, #7
	.loc	2 714 26 is_stmt 0              @ ../../../../Library/StdDriver/src/rtc.c:714:26
	ands	r0, r1
	.loc	2 714 5                         @ ../../../../Library/StdDriver/src/rtc.c:714:5
	bx	lr
.Ltmp120:
	.p2align	2
@ %bb.1:
	.loc	2 0 5                           @ ../../../../Library/StdDriver/src/rtc.c:0:5
__arm_cp.13_0:
	.long	1074008088                      @ 0x40041018
.Lcpi_end58:
	.size	__arm_cp.13_0, .Lcpi_end58-__arm_cp.13_0
.Lfunc_end13:
	.size	RTC_GetDayOfWeek, .Lfunc_end13-RTC_GetDayOfWeek
	.cfi_endproc
	.cantunwind
	.fnend
                                        @ -- End function
	.section	.text.RTC_SetTickPeriod,"ax",%progbits
	.hidden	RTC_SetTickPeriod               @ -- Begin function RTC_SetTickPeriod
	.globl	RTC_SetTickPeriod
	.p2align	2
	.type	RTC_SetTickPeriod,%function
	.code	16                              @ @RTC_SetTickPeriod
	.thumb_func
RTC_SetTickPeriod:
.Lfunc_begin14:
	.loc	2 735 0 is_stmt 1               @ ../../../../Library/StdDriver/src/rtc.c:735:0
	.fnstart
	.cfi_startproc
@ %bb.0:
	.pad	#4
	sub	sp, #4
	.cfi_def_cfa_offset 4
	str	r0, [sp]
	ldr	r1, __arm_cp.14_0
.Ltmp121:
	.loc	2 737 23 prologue_end           @ ../../../../Library/StdDriver/src/rtc.c:737:23
	ldr	r0, [r1]
	movs	r2, #7
	.loc	2 737 28 is_stmt 0              @ ../../../../Library/StdDriver/src/rtc.c:737:28
	bics	r0, r2
	.loc	2 737 52                        @ ../../../../Library/StdDriver/src/rtc.c:737:52
	ldr	r2, [sp]
	.loc	2 737 50                        @ ../../../../Library/StdDriver/src/rtc.c:737:50
	orrs	r0, r2
	.loc	2 737 15                        @ ../../../../Library/StdDriver/src/rtc.c:737:15
	str	r0, [r1]
	.loc	2 738 1 is_stmt 1               @ ../../../../Library/StdDriver/src/rtc.c:738:1
	add	sp, #4
	bx	lr
.Ltmp122:
	.p2align	2
@ %bb.1:
	.loc	2 0 1 is_stmt 0                 @ ../../../../Library/StdDriver/src/rtc.c:0:1
__arm_cp.14_0:
	.long	1074008112                      @ 0x40041030
.Lcpi_end59:
	.size	__arm_cp.14_0, .Lcpi_end59-__arm_cp.14_0
.Lfunc_end14:
	.size	RTC_SetTickPeriod, .Lfunc_end14-RTC_SetTickPeriod
	.cfi_endproc
	.cantunwind
	.fnend
                                        @ -- End function
	.section	.text.RTC_EnableInt,"ax",%progbits
	.hidden	RTC_EnableInt                   @ -- Begin function RTC_EnableInt
	.globl	RTC_EnableInt
	.p2align	2
	.type	RTC_EnableInt,%function
	.code	16                              @ @RTC_EnableInt
	.thumb_func
RTC_EnableInt:
.Lfunc_begin15:
	.loc	2 752 0 is_stmt 1               @ ../../../../Library/StdDriver/src/rtc.c:752:0
	.fnstart
	.cfi_startproc
@ %bb.0:
	.pad	#4
	sub	sp, #4
	.cfi_def_cfa_offset 4
	str	r0, [sp]
.Ltmp123:
	.loc	2 753 19 prologue_end           @ ../../../../Library/StdDriver/src/rtc.c:753:19
	ldr	r2, [sp]
	ldr	r1, __arm_cp.15_0
	.loc	2 753 16 is_stmt 0              @ ../../../../Library/StdDriver/src/rtc.c:753:16
	ldr	r0, [r1]
	orrs	r0, r2
	str	r0, [r1]
	.loc	2 754 1 is_stmt 1               @ ../../../../Library/StdDriver/src/rtc.c:754:1
	add	sp, #4
	bx	lr
.Ltmp124:
	.p2align	2
@ %bb.1:
	.loc	2 0 1 is_stmt 0                 @ ../../../../Library/StdDriver/src/rtc.c:0:1
__arm_cp.15_0:
	.long	1074008104                      @ 0x40041028
.Lcpi_end60:
	.size	__arm_cp.15_0, .Lcpi_end60-__arm_cp.15_0
.Lfunc_end15:
	.size	RTC_EnableInt, .Lfunc_end15-RTC_EnableInt
	.cfi_endproc
	.cantunwind
	.fnend
                                        @ -- End function
	.section	.text.RTC_DisableInt,"ax",%progbits
	.hidden	RTC_DisableInt                  @ -- Begin function RTC_DisableInt
	.globl	RTC_DisableInt
	.p2align	2
	.type	RTC_DisableInt,%function
	.code	16                              @ @RTC_DisableInt
	.thumb_func
RTC_DisableInt:
.Lfunc_begin16:
	.loc	2 768 0 is_stmt 1               @ ../../../../Library/StdDriver/src/rtc.c:768:0
	.fnstart
	.cfi_startproc
@ %bb.0:
	.pad	#4
	sub	sp, #4
	.cfi_def_cfa_offset 4
	str	r0, [sp]
.Ltmp125:
	.loc	2 770 21 prologue_end           @ ../../../../Library/StdDriver/src/rtc.c:770:21
	ldr	r2, [sp]
	ldr	r1, __arm_cp.16_0
	.loc	2 770 17 is_stmt 0              @ ../../../../Library/StdDriver/src/rtc.c:770:17
	ldr	r0, [r1]
	bics	r0, r2
	str	r0, [r1]
	.loc	2 771 19 is_stmt 1              @ ../../../../Library/StdDriver/src/rtc.c:771:19
	ldr	r0, [sp]
	ldr	r1, __arm_cp.16_1
	.loc	2 771 17 is_stmt 0              @ ../../../../Library/StdDriver/src/rtc.c:771:17
	str	r0, [r1]
	.loc	2 772 1 is_stmt 1               @ ../../../../Library/StdDriver/src/rtc.c:772:1
	add	sp, #4
	bx	lr
.Ltmp126:
	.p2align	2
@ %bb.1:
	.loc	2 0 1 is_stmt 0                 @ ../../../../Library/StdDriver/src/rtc.c:0:1
__arm_cp.16_0:
	.long	1074008104                      @ 0x40041028
.Lcpi_end61:
	.size	__arm_cp.16_0, .Lcpi_end61-__arm_cp.16_0
__arm_cp.16_1:
	.long	1074008108                      @ 0x4004102c
.Lcpi_end62:
	.size	__arm_cp.16_1, .Lcpi_end62-__arm_cp.16_1
.Lfunc_end16:
	.size	RTC_DisableInt, .Lfunc_end16-RTC_DisableInt
	.cfi_endproc
	.cantunwind
	.fnend
                                        @ -- End function
	.section	.text.RTC_EnableSpareAccess,"ax",%progbits
	.hidden	RTC_EnableSpareAccess           @ -- Begin function RTC_EnableSpareAccess
	.globl	RTC_EnableSpareAccess
	.p2align	2
	.type	RTC_EnableSpareAccess,%function
	.code	16                              @ @RTC_EnableSpareAccess
	.thumb_func
RTC_EnableSpareAccess:
.Lfunc_begin17:
	.loc	2 782 0 is_stmt 1               @ ../../../../Library/StdDriver/src/rtc.c:782:0
	.fnstart
	.cfi_startproc
@ %bb.0:
	ldr	r1, __arm_cp.17_0
.Ltmp127:
	.loc	2 784 17 prologue_end           @ ../../../../Library/StdDriver/src/rtc.c:784:17
	ldr	r0, [r1]
	movs	r2, #4
	orrs	r0, r2
	str	r0, [r1]
	.loc	2 785 1                         @ ../../../../Library/StdDriver/src/rtc.c:785:1
	bx	lr
.Ltmp128:
	.p2align	2
@ %bb.1:
	.loc	2 0 1 is_stmt 0                 @ ../../../../Library/StdDriver/src/rtc.c:0:1
__arm_cp.17_0:
	.long	1074008124                      @ 0x4004103c
.Lcpi_end63:
	.size	__arm_cp.17_0, .Lcpi_end63-__arm_cp.17_0
.Lfunc_end17:
	.size	RTC_EnableSpareAccess, .Lfunc_end17-RTC_EnableSpareAccess
	.cfi_endproc
	.cantunwind
	.fnend
                                        @ -- End function
	.section	.text.RTC_DisableSpareRegister,"ax",%progbits
	.hidden	RTC_DisableSpareRegister        @ -- Begin function RTC_DisableSpareRegister
	.globl	RTC_DisableSpareRegister
	.p2align	2
	.type	RTC_DisableSpareRegister,%function
	.code	16                              @ @RTC_DisableSpareRegister
	.thumb_func
RTC_DisableSpareRegister:
.Lfunc_begin18:
	.loc	2 795 0 is_stmt 1               @ ../../../../Library/StdDriver/src/rtc.c:795:0
	.fnstart
	.cfi_startproc
@ %bb.0:
	ldr	r1, __arm_cp.18_0
.Ltmp129:
	.loc	2 797 17 prologue_end           @ ../../../../Library/StdDriver/src/rtc.c:797:17
	ldr	r0, [r1]
	movs	r2, #4
	bics	r0, r2
	str	r0, [r1]
	.loc	2 799 1                         @ ../../../../Library/StdDriver/src/rtc.c:799:1
	bx	lr
.Ltmp130:
	.p2align	2
@ %bb.1:
	.loc	2 0 1 is_stmt 0                 @ ../../../../Library/StdDriver/src/rtc.c:0:1
__arm_cp.18_0:
	.long	1074008124                      @ 0x4004103c
.Lcpi_end64:
	.size	__arm_cp.18_0, .Lcpi_end64-__arm_cp.18_0
.Lfunc_end18:
	.size	RTC_DisableSpareRegister, .Lfunc_end18-RTC_DisableSpareRegister
	.cfi_endproc
	.cantunwind
	.fnend
                                        @ -- End function
	.section	.text.RTC_StaticTamperEnable,"ax",%progbits
	.hidden	RTC_StaticTamperEnable          @ -- Begin function RTC_StaticTamperEnable
	.globl	RTC_StaticTamperEnable
	.p2align	2
	.type	RTC_StaticTamperEnable,%function
	.code	16                              @ @RTC_StaticTamperEnable
	.thumb_func
RTC_StaticTamperEnable:
.Lfunc_begin19:
	.loc	2 819 0 is_stmt 1               @ ../../../../Library/StdDriver/src/rtc.c:819:0
	.fnstart
	.cfi_startproc
@ %bb.0:
	.pad	#24
	sub	sp, #24
	.cfi_def_cfa_offset 24
	str	r0, [sp, #20]
	str	r1, [sp, #16]
	str	r2, [sp, #12]
	ldr	r0, __arm_cp.19_0
.Ltmp131:
	.loc	2 824 19 prologue_end           @ ../../../../Library/StdDriver/src/rtc.c:824:19
	ldr	r0, [r0]
	.loc	2 824 12 is_stmt 0              @ ../../../../Library/StdDriver/src/rtc.c:824:12
	str	r0, [sp, #4]
	.loc	2 826 45 is_stmt 1              @ ../../../../Library/StdDriver/src/rtc.c:826:45
	ldr	r0, [sp, #16]
	.loc	2 826 59 is_stmt 0              @ ../../../../Library/StdDriver/src/rtc.c:826:59
	lsls	r0, r0, #9
	.loc	2 827 19 is_stmt 1              @ ../../../../Library/StdDriver/src/rtc.c:827:19
	ldr	r1, [sp, #12]
	.loc	2 827 33 is_stmt 0              @ ../../../../Library/StdDriver/src/rtc.c:827:33
	lsls	r1, r1, #10
	.loc	2 826 42 is_stmt 1              @ ../../../../Library/StdDriver/src/rtc.c:826:42
	orrs	r0, r1
	movw	r1, #256
	.loc	2 826 87 is_stmt 0              @ ../../../../Library/StdDriver/src/rtc.c:826:87
	adds	r0, r0, r1
	.loc	2 826 15                        @ ../../../../Library/StdDriver/src/rtc.c:826:15
	str	r0, [sp]
	movs	r0, #0
.Ltmp132:
	.loc	2 829 18 is_stmt 1              @ ../../../../Library/StdDriver/src/rtc.c:829:18
	str	r0, [sp, #8]
	.loc	2 829 10 is_stmt 0              @ ../../../../Library/StdDriver/src/rtc.c:829:10
	b	.LBB19_1
.LBB19_1:                               @ =>This Inner Loop Header: Depth=1
.Ltmp133:
	.loc	2 829 25                        @ ../../../../Library/StdDriver/src/rtc.c:829:25
	ldr	r0, [sp, #8]
.Ltmp134:
	.loc	2 829 5                         @ ../../../../Library/StdDriver/src/rtc.c:829:5
	cbnz	r0, .LBB19_6
	b	.LBB19_2
.LBB19_2:                               @   in Loop: Header=BB19_1 Depth=1
.Ltmp135:
	.loc	2 831 13 is_stmt 1              @ ../../../../Library/StdDriver/src/rtc.c:831:13
	ldr	r0, [sp, #20]
	.loc	2 831 41 is_stmt 0              @ ../../../../Library/StdDriver/src/rtc.c:831:41
	ldr	r1, [sp, #8]
.Ltmp136:
	.loc	2 831 13                        @ ../../../../Library/StdDriver/src/rtc.c:831:13
	lsrs	r0, r1
	lsls	r0, r0, #31
	cbz	r0, .LBB19_4
	b	.LBB19_3
.LBB19_3:                               @   in Loop: Header=BB19_1 Depth=1
.Ltmp137:
	.loc	2 833 109 is_stmt 1             @ ../../../../Library/StdDriver/src/rtc.c:833:109
	ldr	r0, [sp, #8]
	.loc	2 833 117 is_stmt 0             @ ../../../../Library/StdDriver/src/rtc.c:833:117
	lsls	r0, r0, #2
	movw	r1, #1792
	.loc	2 833 105                       @ ../../../../Library/StdDriver/src/rtc.c:833:105
	lsls	r1, r0
	.loc	2 833 20                        @ ../../../../Library/StdDriver/src/rtc.c:833:20
	ldr	r0, [sp, #4]
	bics	r0, r1
	str	r0, [sp, #4]
	.loc	2 834 24 is_stmt 1              @ ../../../../Library/StdDriver/src/rtc.c:834:24
	ldr	r1, [sp]
	.loc	2 834 38 is_stmt 0              @ ../../../../Library/StdDriver/src/rtc.c:834:38
	ldr	r0, [sp, #8]
	.loc	2 834 46                        @ ../../../../Library/StdDriver/src/rtc.c:834:46
	lsls	r0, r0, #2
	.loc	2 834 34                        @ ../../../../Library/StdDriver/src/rtc.c:834:34
	lsls	r1, r0
	.loc	2 834 20                        @ ../../../../Library/StdDriver/src/rtc.c:834:20
	ldr	r0, [sp, #4]
	orrs	r0, r1
	str	r0, [sp, #4]
	.loc	2 835 9 is_stmt 1               @ ../../../../Library/StdDriver/src/rtc.c:835:9
	b	.LBB19_4
.Ltmp138:
.LBB19_4:                               @   in Loop: Header=BB19_1 Depth=1
	.loc	2 836 5                         @ ../../../../Library/StdDriver/src/rtc.c:836:5
	b	.LBB19_5
.Ltmp139:
.LBB19_5:                               @   in Loop: Header=BB19_1 Depth=1
	.loc	2 829 62                        @ ../../../../Library/StdDriver/src/rtc.c:829:62
	ldr	r0, [sp, #8]
	adds	r0, r0, #1
	str	r0, [sp, #8]
	.loc	2 829 5 is_stmt 0               @ ../../../../Library/StdDriver/src/rtc.c:829:5
	b	.LBB19_1
.Ltmp140:
.LBB19_6:
	.loc	2 838 20 is_stmt 1              @ ../../../../Library/StdDriver/src/rtc.c:838:20
	ldr	r0, [sp, #4]
	ldr	r1, __arm_cp.19_0
	.loc	2 838 18 is_stmt 0              @ ../../../../Library/StdDriver/src/rtc.c:838:18
	str	r0, [r1]
	.loc	2 840 1 is_stmt 1               @ ../../../../Library/StdDriver/src/rtc.c:840:1
	add	sp, #24
	bx	lr
.Ltmp141:
	.p2align	2
@ %bb.7:
	.loc	2 0 1 is_stmt 0                 @ ../../../../Library/StdDriver/src/rtc.c:0:1
__arm_cp.19_0:
	.long	1074008352                      @ 0x40041120
.Lcpi_end65:
	.size	__arm_cp.19_0, .Lcpi_end65-__arm_cp.19_0
.Lfunc_end19:
	.size	RTC_StaticTamperEnable, .Lfunc_end19-RTC_StaticTamperEnable
	.cfi_endproc
	.cantunwind
	.fnend
                                        @ -- End function
	.section	.text.RTC_StaticTamperDisable,"ax",%progbits
	.hidden	RTC_StaticTamperDisable         @ -- Begin function RTC_StaticTamperDisable
	.globl	RTC_StaticTamperDisable
	.p2align	2
	.type	RTC_StaticTamperDisable,%function
	.code	16                              @ @RTC_StaticTamperDisable
	.thumb_func
RTC_StaticTamperDisable:
.Lfunc_begin20:
	.loc	2 852 0 is_stmt 1               @ ../../../../Library/StdDriver/src/rtc.c:852:0
	.fnstart
	.cfi_startproc
@ %bb.0:
	.pad	#16
	sub	sp, #16
	.cfi_def_cfa_offset 16
	str	r0, [sp, #12]
	ldr	r0, __arm_cp.20_0
.Ltmp142:
	.loc	2 857 19 prologue_end           @ ../../../../Library/StdDriver/src/rtc.c:857:19
	ldr	r0, [r0]
	.loc	2 857 12 is_stmt 0              @ ../../../../Library/StdDriver/src/rtc.c:857:12
	str	r0, [sp, #4]
	movw	r0, #256
	.loc	2 859 15 is_stmt 1              @ ../../../../Library/StdDriver/src/rtc.c:859:15
	str	r0, [sp]
	movs	r0, #0
.Ltmp143:
	.loc	2 861 18                        @ ../../../../Library/StdDriver/src/rtc.c:861:18
	str	r0, [sp, #8]
	.loc	2 861 10 is_stmt 0              @ ../../../../Library/StdDriver/src/rtc.c:861:10
	b	.LBB20_1
.LBB20_1:                               @ =>This Inner Loop Header: Depth=1
.Ltmp144:
	.loc	2 861 25                        @ ../../../../Library/StdDriver/src/rtc.c:861:25
	ldr	r0, [sp, #8]
.Ltmp145:
	.loc	2 861 5                         @ ../../../../Library/StdDriver/src/rtc.c:861:5
	cbnz	r0, .LBB20_6
	b	.LBB20_2
.LBB20_2:                               @   in Loop: Header=BB20_1 Depth=1
.Ltmp146:
	.loc	2 863 13 is_stmt 1              @ ../../../../Library/StdDriver/src/rtc.c:863:13
	ldr	r0, [sp, #12]
	.loc	2 863 41 is_stmt 0              @ ../../../../Library/StdDriver/src/rtc.c:863:41
	ldr	r1, [sp, #8]
.Ltmp147:
	.loc	2 863 13                        @ ../../../../Library/StdDriver/src/rtc.c:863:13
	lsrs	r0, r1
	lsls	r0, r0, #31
	cbz	r0, .LBB20_4
	b	.LBB20_3
.LBB20_3:                               @   in Loop: Header=BB20_1 Depth=1
.Ltmp148:
	.loc	2 865 25 is_stmt 1              @ ../../../../Library/StdDriver/src/rtc.c:865:25
	ldr	r1, [sp]
	.loc	2 865 39 is_stmt 0              @ ../../../../Library/StdDriver/src/rtc.c:865:39
	ldr	r0, [sp, #8]
	.loc	2 865 47                        @ ../../../../Library/StdDriver/src/rtc.c:865:47
	lsls	r0, r0, #2
	.loc	2 865 35                        @ ../../../../Library/StdDriver/src/rtc.c:865:35
	lsls	r1, r0
	.loc	2 865 20                        @ ../../../../Library/StdDriver/src/rtc.c:865:20
	ldr	r0, [sp, #4]
	bics	r0, r1
	str	r0, [sp, #4]
	.loc	2 866 9 is_stmt 1               @ ../../../../Library/StdDriver/src/rtc.c:866:9
	b	.LBB20_4
.Ltmp149:
.LBB20_4:                               @   in Loop: Header=BB20_1 Depth=1
	.loc	2 867 5                         @ ../../../../Library/StdDriver/src/rtc.c:867:5
	b	.LBB20_5
.Ltmp150:
.LBB20_5:                               @   in Loop: Header=BB20_1 Depth=1
	.loc	2 861 62                        @ ../../../../Library/StdDriver/src/rtc.c:861:62
	ldr	r0, [sp, #8]
	adds	r0, r0, #1
	str	r0, [sp, #8]
	.loc	2 861 5 is_stmt 0               @ ../../../../Library/StdDriver/src/rtc.c:861:5
	b	.LBB20_1
.Ltmp151:
.LBB20_6:
	.loc	2 869 20 is_stmt 1              @ ../../../../Library/StdDriver/src/rtc.c:869:20
	ldr	r0, [sp, #4]
	ldr	r1, __arm_cp.20_0
	.loc	2 869 18 is_stmt 0              @ ../../../../Library/StdDriver/src/rtc.c:869:18
	str	r0, [r1]
	.loc	2 870 1 is_stmt 1               @ ../../../../Library/StdDriver/src/rtc.c:870:1
	add	sp, #16
	bx	lr
.Ltmp152:
	.p2align	2
@ %bb.7:
	.loc	2 0 1 is_stmt 0                 @ ../../../../Library/StdDriver/src/rtc.c:0:1
__arm_cp.20_0:
	.long	1074008352                      @ 0x40041120
.Lcpi_end66:
	.size	__arm_cp.20_0, .Lcpi_end66-__arm_cp.20_0
.Lfunc_end20:
	.size	RTC_StaticTamperDisable, .Lfunc_end20-RTC_StaticTamperDisable
	.cfi_endproc
	.cantunwind
	.fnend
                                        @ -- End function
	.type	g_u32HiYear,%object             @ @g_u32HiYear
	.section	.bss.g_u32HiYear,"aw",%nobits
	.p2align	2, 0x0
g_u32HiYear:
	.long	0                               @ 0x0
	.size	g_u32HiYear, 4

	.type	g_u32LoYear,%object             @ @g_u32LoYear
	.section	.bss.g_u32LoYear,"aw",%nobits
	.p2align	2, 0x0
g_u32LoYear:
	.long	0                               @ 0x0
	.size	g_u32LoYear, 4

	.type	g_u32HiMonth,%object            @ @g_u32HiMonth
	.section	.bss.g_u32HiMonth,"aw",%nobits
	.p2align	2, 0x0
g_u32HiMonth:
	.long	0                               @ 0x0
	.size	g_u32HiMonth, 4

	.type	g_u32LoMonth,%object            @ @g_u32LoMonth
	.section	.bss.g_u32LoMonth,"aw",%nobits
	.p2align	2, 0x0
g_u32LoMonth:
	.long	0                               @ 0x0
	.size	g_u32LoMonth, 4

	.type	g_u32HiDay,%object              @ @g_u32HiDay
	.section	.bss.g_u32HiDay,"aw",%nobits
	.p2align	2, 0x0
g_u32HiDay:
	.long	0                               @ 0x0
	.size	g_u32HiDay, 4

	.type	g_u32LoDay,%object              @ @g_u32LoDay
	.section	.bss.g_u32LoDay,"aw",%nobits
	.p2align	2, 0x0
g_u32LoDay:
	.long	0                               @ 0x0
	.size	g_u32LoDay, 4

	.type	g_u32HiHour,%object             @ @g_u32HiHour
	.section	.bss.g_u32HiHour,"aw",%nobits
	.p2align	2, 0x0
g_u32HiHour:
	.long	0                               @ 0x0
	.size	g_u32HiHour, 4

	.type	g_u32LoHour,%object             @ @g_u32LoHour
	.section	.bss.g_u32LoHour,"aw",%nobits
	.p2align	2, 0x0
g_u32LoHour:
	.long	0                               @ 0x0
	.size	g_u32LoHour, 4

	.type	g_u32HiMin,%object              @ @g_u32HiMin
	.section	.bss.g_u32HiMin,"aw",%nobits
	.p2align	2, 0x0
g_u32HiMin:
	.long	0                               @ 0x0
	.size	g_u32HiMin, 4

	.type	g_u32LoMin,%object              @ @g_u32LoMin
	.section	.bss.g_u32LoMin,"aw",%nobits
	.p2align	2, 0x0
g_u32LoMin:
	.long	0                               @ 0x0
	.size	g_u32LoMin, 4

	.type	g_u32HiSec,%object              @ @g_u32HiSec
	.section	.bss.g_u32HiSec,"aw",%nobits
	.p2align	2, 0x0
g_u32HiSec:
	.long	0                               @ 0x0
	.size	g_u32HiSec, 4

	.type	g_u32LoSec,%object              @ @g_u32LoSec
	.section	.bss.g_u32LoSec,"aw",%nobits
	.p2align	2, 0x0
g_u32LoSec:
	.long	0                               @ 0x0
	.size	g_u32LoSec, 4

	.file	5 "E:\\ROBOCON2024\\01. Coding\\Nuvoton\\demo_robot_3wheel\\SampleCode\\NuCodeGen\\DemoCodeGen\\KEIL" "../../../../Library/StdDriver/inc\\rtc.h"
	.section	".note.GNU-stack","",%progbits
	.eabi_attribute	30, 6	@ Tag_ABI_optimization_goals
	.ARM_attribute	16, 1	@ Tag_AV_eba