	.text
	.syntax unified
	.eabi_attribute	67, "2.09"	@ Tag_conformance
	.cpu	cortex-m23
	.eabi_attribute	6, 16	@ Tag_CPU_arch
	.eabi_attribute	7, 77	@ Tag_CPU_arch_profile
	.eabi_attribute	8, 0	@ Tag_ARM_ISA_use
	.eabi_attribute	9, 3	@ Tag_THUMB_ISA_use
	.eabi_attribute	34, 0	@ Tag_CPU_unaligned_access
	.eabi_attribute	17, 1	@ Tag_ABI_PCS_GOT_use
	.eabi_attribute	20, 2	@ Tag_ABI_FP_denormal
	.eabi_attribute	21, 0	@ Tag_ABI_FP_exceptions
	.eabi_attribute	23, 1	@ Tag_ABI_FP_number_model
	.eabi_attribute	24, 1	@ Tag_ABI_align_needed
	.eabi_attribute	25, 1	@ Tag_ABI_align_preserved
	.eabi_attribute	38, 1	@ Tag_ABI_FP_16bit_format
	.eabi_attribute	18, 2	@ Tag_ABI_PCS_wchar_t
	.eabi_attribute	26, 1	@ Tag_ABI_enum_size
	.eabi_attribute	14, 0	@ Tag_ABI_PCS_R9_use
	.file	"scuart.c"
	.file	1 "C:\\Keil_v5\\ARM\\ARMCLANG\\Bin\\..\\include" "stdint.h"
	.file	2 "E:\\ROBOCON2024\\01. Coding\\Nuvoton\\demo_robot_3wheel\\SampleCode\\NuCodeGen\\DemoCodeGen\\KEIL" "../../../../Library/StdDriver/src/scuart.c"
	.file	3 "E:\\ROBOCON2024\\01. Coding\\Nuvoton\\demo_robot_3wheel\\SampleCode\\NuCodeGen\\DemoCodeGen\\KEIL" "../../../../Library/Device/Nuvoton/M251/Include/sc_reg.h"
	.file	4 "E:\\ROBOCON2024\\01. Coding\\Nuvoton\\demo_robot_3wheel\\SampleCode\\NuCodeGen\\DemoCodeGen\\KEIL" "../../../../Library/Device/Nuvoton/M251/Include/clk_reg.h"
	.section	.text.SCUART_Close,"ax",%progbits
	.hidden	SCUART_Close                    @ -- Begin function SCUART_Close
	.globl	SCUART_Close
	.p2align	1
	.type	SCUART_Close,%function
	.code	16                              @ @SCUART_Close
	.thumb_func
SCUART_Close:
.Lfunc_begin0:
	.loc	2 31 0                          @ ../../../../Library/StdDriver/src/scuart.c:31:0
	.fnstart
	.cfi_sections .debug_frame
	.cfi_startproc
@ %bb.0:
	.pad	#4
	sub	sp, #4
	.cfi_def_cfa_offset 4
	str	r0, [sp]
.Ltmp0:
	.loc	2 32 5 prologue_end             @ ../../../../Library/StdDriver/src/scuart.c:32:5
	ldr	r1, [sp]
	movs	r0, #0
	.loc	2 32 15 is_stmt 0               @ ../../../../Library/StdDriver/src/scuart.c:32:15
	str	r0, [r1, #24]
	.loc	2 33 5 is_stmt 1                @ ../../../../Library/StdDriver/src/scuart.c:33:5
	ldr	r1, [sp]
	.loc	2 33 17 is_stmt 0               @ ../../../../Library/StdDriver/src/scuart.c:33:17
	str	r0, [r1, #52]
	.loc	2 34 5 is_stmt 1                @ ../../../../Library/StdDriver/src/scuart.c:34:5
	ldr	r1, [sp]
	.loc	2 34 13 is_stmt 0               @ ../../../../Library/StdDriver/src/scuart.c:34:13
	str	r0, [r1, #4]
	.loc	2 36 1 is_stmt 1                @ ../../../../Library/StdDriver/src/scuart.c:36:1
	add	sp, #4
	bx	lr
.Ltmp1:
.Lfunc_end0:
	.size	SCUART_Close, .Lfunc_end0-SCUART_Close
	.cfi_endproc
	.cantunwind
	.fnend
                                        @ -- End function
	.section	.text.SCUART_Open,"ax",%progbits
	.hidden	SCUART_Open                     @ -- Begin function SCUART_Open
	.globl	SCUART_Open
	.p2align	2
	.type	SCUART_Open,%function
	.code	16                              @ @SCUART_Open
	.thumb_func
SCUART_Open:
.Lfunc_begin1:
	.loc	2 105 0                         @ ../../../../Library/StdDriver/src/scuart.c:105:0
	.fnstart
	.cfi_startproc
@ %bb.0:
	.save	{r7, lr}
	push	{r7, lr}
	.cfi_def_cfa_offset 8
	.cfi_offset lr, -4
	.cfi_offset r7, -8
	.pad	#16
	sub	sp, #16
	.cfi_def_cfa_offset 24
	str	r0, [sp, #12]
	str	r1, [sp, #8]
.Ltmp2:
	.loc	2 106 39 prologue_end           @ ../../../../Library/StdDriver/src/scuart.c:106:39
	ldr	r0, [sp, #12]
	.loc	2 106 23 is_stmt 0              @ ../../../../Library/StdDriver/src/scuart.c:106:23
	bl	SCUART_GetClock
	.loc	2 106 14                        @ ../../../../Library/StdDriver/src/scuart.c:106:14
	str	r0, [sp, #4]
	.loc	2 109 15 is_stmt 1              @ ../../../../Library/StdDriver/src/scuart.c:109:15
	ldr	r0, [sp, #4]
	.loc	2 109 25 is_stmt 0              @ ../../../../Library/StdDriver/src/scuart.c:109:25
	ldr	r1, [sp, #8]
	.loc	2 109 37                        @ ../../../../Library/StdDriver/src/scuart.c:109:37
	lsrs	r2, r1, #1
	.loc	2 109 22                        @ ../../../../Library/StdDriver/src/scuart.c:109:22
	adds	r0, r0, r2
	.loc	2 109 43                        @ ../../../../Library/StdDriver/src/scuart.c:109:43
	subs	r0, r0, #1
	.loc	2 109 50                        @ ../../../../Library/StdDriver/src/scuart.c:109:50
	udiv	r0, r0, r1
	.loc	2 109 64                        @ ../../../../Library/StdDriver/src/scuart.c:109:64
	subs	r0, r0, #1
	.loc	2 109 12                        @ ../../../../Library/StdDriver/src/scuart.c:109:12
	str	r0, [sp]
	.loc	2 112 5 is_stmt 1               @ ../../../../Library/StdDriver/src/scuart.c:112:5
	ldr	r1, [sp, #12]
	ldr	r0, __arm_cp.1_0
	.loc	2 112 13 is_stmt 0              @ ../../../../Library/StdDriver/src/scuart.c:112:13
	str	r0, [r1, #4]
	.loc	2 114 5 is_stmt 1               @ ../../../../Library/StdDriver/src/scuart.c:114:5
	ldr	r1, [sp, #12]
	movs	r0, #65
	.loc	2 114 17 is_stmt 0              @ ../../../../Library/StdDriver/src/scuart.c:114:17
	str	r0, [r1, #52]
	.loc	2 115 18 is_stmt 1              @ ../../../../Library/StdDriver/src/scuart.c:115:18
	ldr	r0, [sp]
	.loc	2 115 5 is_stmt 0               @ ../../../../Library/StdDriver/src/scuart.c:115:5
	ldr	r1, [sp, #12]
	.loc	2 115 16                        @ ../../../../Library/StdDriver/src/scuart.c:115:16
	str	r0, [r1, #20]
	.loc	2 117 13 is_stmt 1              @ ../../../../Library/StdDriver/src/scuart.c:117:13
	ldr	r0, [sp, #4]
	.loc	2 117 23 is_stmt 0              @ ../../../../Library/StdDriver/src/scuart.c:117:23
	ldr	r1, [sp]
	.loc	2 117 30                        @ ../../../../Library/StdDriver/src/scuart.c:117:30
	adds	r1, r1, #1
	.loc	2 117 20                        @ ../../../../Library/StdDriver/src/scuart.c:117:20
	udiv	r0, r0, r1
	.loc	2 117 5                         @ ../../../../Library/StdDriver/src/scuart.c:117:5
	add	sp, #16
	pop	{r7, pc}
.Ltmp3:
	.p2align	2
@ %bb.1:
	.loc	2 0 5                           @ ../../../../Library/StdDriver/src/scuart.c:0:5
__arm_cp.1_0:
	.long	32769                           @ 0x8001
.Lcpi_end0:
	.size	__arm_cp.1_0, .Lcpi_end0-__arm_cp.1_0
.Lfunc_end1:
	.size	SCUART_Open, .Lfunc_end1-SCUART_Open
	.cfi_endproc
	.cantunwind
	.fnend
                                        @ -- End function
	.section	.text.SCUART_GetClock,"ax",%progbits
	.p2align	2                               @ -- Begin function SCUART_GetClock
	.type	SCUART_GetClock,%function
	.code	16                              @ @SCUART_GetClock
	.thumb_func
SCUART_GetClock:
.Lfunc_begin2:
	.loc	2 44 0 is_stmt 1                @ ../../../../Library/StdDriver/src/scuart.c:44:0
	.fnstart
	.cfi_startproc
@ %bb.0:
	.save	{r7, lr}
	push	{r7, lr}
	.cfi_def_cfa_offset 8
	.cfi_offset lr, -4
	.cfi_offset r7, -8
	.pad	#16
	sub	sp, #16
	.cfi_def_cfa_offset 24
	str	r0, [sp, #12]
.Ltmp4:
	.loc	2 47 9 prologue_end             @ ../../../../Library/StdDriver/src/scuart.c:47:9
	ldr	r0, [sp, #12]
	ldr	r1, __arm_cp.2_0
.Ltmp5:
	.loc	2 47 9 is_stmt 0                @ ../../../../Library/StdDriver/src/scuart.c:47:9
	cmp	r0, r1
	bne	.LBB2_2
	b	.LBB2_1
.LBB2_1:
	.loc	2 0 9                           @ ../../../../Library/StdDriver/src/scuart.c:0:9
	movs	r0, #0
.Ltmp6:
	.loc	2 49 16 is_stmt 1               @ ../../../../Library/StdDriver/src/scuart.c:49:16
	str	r0, [sp, #4]
	.loc	2 50 5                          @ ../../../../Library/StdDriver/src/scuart.c:50:5
	b	.LBB2_3
.Ltmp7:
.LBB2_2:
	.loc	2 0 5 is_stmt 0                 @ ../../../../Library/StdDriver/src/scuart.c:0:5
	movs	r0, #2
.Ltmp8:
	.loc	2 53 16 is_stmt 1               @ ../../../../Library/StdDriver/src/scuart.c:53:16
	str	r0, [sp, #4]
	b	.LBB2_3
.Ltmp9:
.LBB2_3:
	.loc	2 0 16 is_stmt 0                @ ../../../../Library/StdDriver/src/scuart.c:0:16
	ldr	r0, __arm_cp.2_1
	.loc	2 56 23 is_stmt 1               @ ../../../../Library/StdDriver/src/scuart.c:56:23
	ldr	r0, [r0]
	.loc	2 56 41 is_stmt 0               @ ../../../../Library/StdDriver/src/scuart.c:56:41
	ldr	r1, [sp, #4]
	.loc	2 56 39                         @ ../../../../Library/StdDriver/src/scuart.c:56:39
	lsls	r1, r1, #1
	.loc	2 56 31                         @ ../../../../Library/StdDriver/src/scuart.c:56:31
	lsrs	r0, r1
	movs	r1, #3
	.loc	2 56 50                         @ ../../../../Library/StdDriver/src/scuart.c:56:50
	ands	r0, r1
	.loc	2 56 15                         @ ../../../../Library/StdDriver/src/scuart.c:56:15
	str	r0, [sp, #8]
.Ltmp10:
	.loc	2 59 9 is_stmt 1                @ ../../../../Library/StdDriver/src/scuart.c:59:9
	ldr	r0, [sp, #8]
.Ltmp11:
	.loc	2 59 9 is_stmt 0                @ ../../../../Library/StdDriver/src/scuart.c:59:9
	cbnz	r0, .LBB2_5
	b	.LBB2_4
.LBB2_4:
	.loc	2 0 9                           @ ../../../../Library/StdDriver/src/scuart.c:0:9
	ldr	r0, __arm_cp.2_3
.Ltmp12:
	.loc	2 61 16 is_stmt 1               @ ../../../../Library/StdDriver/src/scuart.c:61:16
	str	r0, [sp]
	.loc	2 62 5                          @ ../../../../Library/StdDriver/src/scuart.c:62:5
	b	.LBB2_15
.Ltmp13:
.LBB2_5:
	.loc	2 63 14                         @ ../../../../Library/StdDriver/src/scuart.c:63:14
	ldr	r0, [sp, #8]
.Ltmp14:
	.loc	2 63 14 is_stmt 0               @ ../../../../Library/StdDriver/src/scuart.c:63:14
	cmp	r0, #1
	bne	.LBB2_7
	b	.LBB2_6
.LBB2_6:
.Ltmp15:
	.loc	2 65 18 is_stmt 1               @ ../../../../Library/StdDriver/src/scuart.c:65:18
	bl	CLK_GetPLLClockFreq
	.loc	2 65 16 is_stmt 0               @ ../../../../Library/StdDriver/src/scuart.c:65:16
	str	r0, [sp]
	.loc	2 66 5 is_stmt 1                @ ../../../../Library/StdDriver/src/scuart.c:66:5
	b	.LBB2_14
.Ltmp16:
.LBB2_7:
	.loc	2 67 14                         @ ../../../../Library/StdDriver/src/scuart.c:67:14
	ldr	r0, [sp, #8]
.Ltmp17:
	.loc	2 67 14 is_stmt 0               @ ../../../../Library/StdDriver/src/scuart.c:67:14
	cmp	r0, #2
	bne	.LBB2_12
	b	.LBB2_8
.LBB2_8:
.Ltmp18:
	.loc	2 69 13 is_stmt 1               @ ../../../../Library/StdDriver/src/scuart.c:69:13
	ldr	r0, [sp, #4]
.Ltmp19:
	.loc	2 69 13 is_stmt 0               @ ../../../../Library/StdDriver/src/scuart.c:69:13
	cmp	r0, #1
	bne	.LBB2_10
	b	.LBB2_9
.LBB2_9:
.Ltmp20:
	.loc	2 71 22 is_stmt 1               @ ../../../../Library/StdDriver/src/scuart.c:71:22
	bl	CLK_GetPCLK1Freq
	.loc	2 71 20 is_stmt 0               @ ../../../../Library/StdDriver/src/scuart.c:71:20
	str	r0, [sp]
	.loc	2 72 9 is_stmt 1                @ ../../../../Library/StdDriver/src/scuart.c:72:9
	b	.LBB2_11
.Ltmp21:
.LBB2_10:
	.loc	2 75 22                         @ ../../../../Library/StdDriver/src/scuart.c:75:22
	bl	CLK_GetPCLK0Freq
	.loc	2 75 20 is_stmt 0               @ ../../../../Library/StdDriver/src/scuart.c:75:20
	str	r0, [sp]
	b	.LBB2_11
.Ltmp22:
.LBB2_11:
	.loc	2 77 5 is_stmt 1                @ ../../../../Library/StdDriver/src/scuart.c:77:5
	b	.LBB2_13
.Ltmp23:
.LBB2_12:
	.loc	2 0 5 is_stmt 0                 @ ../../../../Library/StdDriver/src/scuart.c:0:5
	ldr	r0, __arm_cp.2_2
.Ltmp24:
	.loc	2 80 16 is_stmt 1               @ ../../../../Library/StdDriver/src/scuart.c:80:16
	str	r0, [sp]
	b	.LBB2_13
.Ltmp25:
.LBB2_13:
	.loc	2 0 16 is_stmt 0                @ ../../../../Library/StdDriver/src/scuart.c:0:16
	b	.LBB2_14
.LBB2_14:
	b	.LBB2_15
.LBB2_15:
	ldr	r0, __arm_cp.2_4
	.loc	2 83 23 is_stmt 1               @ ../../../../Library/StdDriver/src/scuart.c:83:23
	ldr	r0, [r0]
	.loc	2 83 41 is_stmt 0               @ ../../../../Library/StdDriver/src/scuart.c:83:41
	ldr	r1, [sp, #4]
	.loc	2 83 39                         @ ../../../../Library/StdDriver/src/scuart.c:83:39
	lsls	r1, r1, #3
	.loc	2 83 31                         @ ../../../../Library/StdDriver/src/scuart.c:83:31
	lsrs	r0, r1
	.loc	2 83 50                         @ ../../../../Library/StdDriver/src/scuart.c:83:50
	uxtb	r0, r0
	.loc	2 83 76                         @ ../../../../Library/StdDriver/src/scuart.c:83:76
	adds	r1, r0, #1
	.loc	2 83 12                         @ ../../../../Library/StdDriver/src/scuart.c:83:12
	ldr	r0, [sp]
	udiv	r0, r0, r1
	str	r0, [sp]
	.loc	2 86 12 is_stmt 1               @ ../../../../Library/StdDriver/src/scuart.c:86:12
	ldr	r0, [sp]
	.loc	2 86 5 is_stmt 0                @ ../../../../Library/StdDriver/src/scuart.c:86:5
	add	sp, #16
	pop	{r7, pc}
.Ltmp26:
	.p2align	2
@ %bb.16:
	.loc	2 0 5                           @ ../../../../Library/StdDriver/src/scuart.c:0:5
__arm_cp.2_0:
	.long	1074331648                      @ 0x40090000
.Lcpi_end1:
	.size	__arm_cp.2_0, .Lcpi_end1-__arm_cp.2_0
__arm_cp.2_1:
	.long	1073742364                      @ 0x4000021c
.Lcpi_end2:
	.size	__arm_cp.2_1, .Lcpi_end2-__arm_cp.2_1
__arm_cp.2_2:
	.long	48000000                        @ 0x2dc6c00
.Lcpi_end3:
	.size	__arm_cp.2_2, .Lcpi_end3-__arm_cp.2_2
__arm_cp.2_3:
	.long	12000000                        @ 0xb71b00
.Lcpi_end4:
	.size	__arm_cp.2_3, .Lcpi_end4-__arm_cp.2_3
__arm_cp.2_4:
	.long	1073742372                      @ 0x40000224
.Lcpi_end5:
	.size	__arm_cp.2_4, .Lcpi_end5-__arm_cp.2_4
.Lfunc_end2:
	.size	SCUART_GetClock, .Lfunc_end2-SCUART_GetClock
	.cfi_endproc
	.cantunwind
	.fnend
                                        @ -- End function
	.section	.text.SCUART_Read,"ax",%progbits
	.hidden	SCUART_Read                     @ -- Begin function SCUART_Read
	.globl	SCUART_Read
	.p2align	1
	.type	SCUART_Read,%function
	.code	16                              @ @SCUART_Read
	.thumb_func
SCUART_Read:
.Lfunc_begin3:
	.loc	2 129 0 is_stmt 1               @ ../../../../Library/StdDriver/src/scuart.c:129:0
	.fnstart
	.cfi_startproc
@ %bb.0:
	.pad	#16
	sub	sp, #16
	.cfi_def_cfa_offset 16
	str	r0, [sp, #12]
	str	r1, [sp, #8]
	str	r2, [sp, #4]
	movs	r0, #0
.Ltmp27:
	.loc	2 132 19 prologue_end           @ ../../../../Library/StdDriver/src/scuart.c:132:19
	str	r0, [sp]
	.loc	2 132 10 is_stmt 0              @ ../../../../Library/StdDriver/src/scuart.c:132:10
	b	.LBB3_1
.LBB3_1:                                @ =>This Inner Loop Header: Depth=1
.Ltmp28:
	.loc	2 132 26                        @ ../../../../Library/StdDriver/src/scuart.c:132:26
	ldr	r0, [sp]
	.loc	2 132 37                        @ ../../../../Library/StdDriver/src/scuart.c:132:37
	ldr	r1, [sp, #4]
.Ltmp29:
	.loc	2 132 5                         @ ../../../../Library/StdDriver/src/scuart.c:132:5
	cmp	r0, r1
	bhs	.LBB3_6
	b	.LBB3_2
.LBB3_2:                                @   in Loop: Header=BB3_1 Depth=1
.Ltmp30:
	.loc	2 134 13 is_stmt 1              @ ../../../../Library/StdDriver/src/scuart.c:134:13
	ldr	r0, [sp, #12]
	ldr	r0, [r0, #32]
.Ltmp31:
	.loc	2 134 13 is_stmt 0              @ ../../../../Library/StdDriver/src/scuart.c:134:13
	lsls	r0, r0, #30
	cmp	r0, #0
	bpl	.LBB3_4
	b	.LBB3_3
.LBB3_3:
.Ltmp32:
	.loc	2 136 13 is_stmt 1              @ ../../../../Library/StdDriver/src/scuart.c:136:13
	b	.LBB3_6
.Ltmp33:
.LBB3_4:                                @   in Loop: Header=BB3_1 Depth=1
	.loc	2 139 39                        @ ../../../../Library/StdDriver/src/scuart.c:139:39
	ldr	r0, [sp, #12]
	ldr	r0, [r0]
	.loc	2 139 9 is_stmt 0               @ ../../../../Library/StdDriver/src/scuart.c:139:9
	ldr	r1, [sp, #8]
	.loc	2 139 18                        @ ../../../../Library/StdDriver/src/scuart.c:139:18
	ldr	r2, [sp]
	.loc	2 139 28                        @ ../../../../Library/StdDriver/src/scuart.c:139:28
	strb	r0, [r1, r2]
	.loc	2 140 5 is_stmt 1               @ ../../../../Library/StdDriver/src/scuart.c:140:5
	b	.LBB3_5
.Ltmp34:
.LBB3_5:                                @   in Loop: Header=BB3_1 Depth=1
	.loc	2 132 59                        @ ../../../../Library/StdDriver/src/scuart.c:132:59
	ldr	r0, [sp]
	adds	r0, r0, #1
	str	r0, [sp]
	.loc	2 132 5 is_stmt 0               @ ../../../../Library/StdDriver/src/scuart.c:132:5
	b	.LBB3_1
.Ltmp35:
.LBB3_6:
	.loc	2 142 12 is_stmt 1              @ ../../../../Library/StdDriver/src/scuart.c:142:12
	ldr	r0, [sp]
	.loc	2 142 5 is_stmt 0               @ ../../../../Library/StdDriver/src/scuart.c:142:5
	add	sp, #16
	bx	lr
.Ltmp36:
.Lfunc_end3:
	.size	SCUART_Read, .Lfunc_end3-SCUART_Read
	.cfi_endproc
	.cantunwind
	.fnend
                                        @ -- End function
	.section	.text.SCUART_SetLineConfig,"ax",%progbits
	.hidden	SCUART_SetLineConfig            @ -- Begin function SCUART_SetLineConfig
	.globl	SCUART_SetLineConfig
	.p2align	2
	.type	SCUART_SetLineConfig,%function
	.code	16                              @ @SCUART_SetLineConfig
	.thumb_func
SCUART_SetLineConfig:
.Lfunc_begin4:
	.loc	2 169 0 is_stmt 1               @ ../../../../Library/StdDriver/src/scuart.c:169:0
	.fnstart
	.cfi_startproc
@ %bb.0:
	.save	{r4, lr}
	push	{r4, lr}
	.cfi_def_cfa_offset 8
	.cfi_offset lr, -4
	.cfi_offset r4, -8
	.pad	#24
	sub	sp, #24
	.cfi_def_cfa_offset 32
	ldr	r4, [sp, #32]
	str	r0, [sp, #20]
	str	r1, [sp, #16]
	str	r2, [sp, #12]
	str	r3, [sp, #8]
.Ltmp37:
	.loc	2 171 39 prologue_end           @ ../../../../Library/StdDriver/src/scuart.c:171:39
	ldr	r0, [sp, #20]
	.loc	2 171 23 is_stmt 0              @ ../../../../Library/StdDriver/src/scuart.c:171:23
	bl	SCUART_GetClock
	.loc	2 171 14                        @ ../../../../Library/StdDriver/src/scuart.c:171:14
	str	r0, [sp, #4]
.Ltmp38:
	.loc	2 173 9 is_stmt 1               @ ../../../../Library/StdDriver/src/scuart.c:173:9
	ldr	r0, [sp, #16]
.Ltmp39:
	.loc	2 173 9 is_stmt 0               @ ../../../../Library/StdDriver/src/scuart.c:173:9
	cbnz	r0, .LBB4_2
	b	.LBB4_1
.LBB4_1:
.Ltmp40:
	.loc	2 175 18 is_stmt 1              @ ../../../../Library/StdDriver/src/scuart.c:175:18
	ldr	r0, [sp, #20]
	.loc	2 175 22 is_stmt 0              @ ../../../../Library/StdDriver/src/scuart.c:175:22
	ldr	r0, [r0, #20]
	ldr	r1, __arm_cp.4_0
	.loc	2 175 29                        @ ../../../../Library/StdDriver/src/scuart.c:175:29
	ands	r0, r1
	.loc	2 175 16                        @ ../../../../Library/StdDriver/src/scuart.c:175:16
	str	r0, [sp]
	.loc	2 176 5 is_stmt 1               @ ../../../../Library/StdDriver/src/scuart.c:176:5
	b	.LBB4_3
.Ltmp41:
.LBB4_2:
	.loc	2 180 19                        @ ../../../../Library/StdDriver/src/scuart.c:180:19
	ldr	r0, [sp, #4]
	.loc	2 180 29 is_stmt 0              @ ../../../../Library/StdDriver/src/scuart.c:180:29
	ldr	r1, [sp, #16]
	.loc	2 180 41                        @ ../../../../Library/StdDriver/src/scuart.c:180:41
	lsrs	r2, r1, #1
	.loc	2 180 26                        @ ../../../../Library/StdDriver/src/scuart.c:180:26
	adds	r0, r0, r2
	.loc	2 180 47                        @ ../../../../Library/StdDriver/src/scuart.c:180:47
	subs	r0, r0, #1
	.loc	2 180 54                        @ ../../../../Library/StdDriver/src/scuart.c:180:54
	udiv	r0, r0, r1
	.loc	2 180 68                        @ ../../../../Library/StdDriver/src/scuart.c:180:68
	subs	r0, r0, #1
	.loc	2 180 16                        @ ../../../../Library/StdDriver/src/scuart.c:180:16
	str	r0, [sp]
	.loc	2 181 22 is_stmt 1              @ ../../../../Library/StdDriver/src/scuart.c:181:22
	ldr	r0, [sp]
	.loc	2 181 9 is_stmt 0               @ ../../../../Library/StdDriver/src/scuart.c:181:9
	ldr	r1, [sp, #20]
	.loc	2 181 20                        @ ../../../../Library/StdDriver/src/scuart.c:181:20
	str	r0, [r1, #20]
	b	.LBB4_3
.Ltmp42:
.LBB4_3:
	.loc	2 185 15 is_stmt 1              @ ../../../../Library/StdDriver/src/scuart.c:185:15
	ldr	r0, [sp, #32]
	movs	r1, #1
	.loc	2 185 27 is_stmt 0              @ ../../../../Library/StdDriver/src/scuart.c:185:27
	orrs	r0, r1
	.loc	2 185 5                         @ ../../../../Library/StdDriver/src/scuart.c:185:5
	ldr	r2, [sp, #20]
	.loc	2 185 13                        @ ../../../../Library/StdDriver/src/scuart.c:185:13
	str	r0, [r2, #4]
	.loc	2 187 19 is_stmt 1              @ ../../../../Library/StdDriver/src/scuart.c:187:19
	ldr	r0, [sp, #8]
	.loc	2 187 31 is_stmt 0              @ ../../../../Library/StdDriver/src/scuart.c:187:31
	ldr	r2, [sp, #12]
	.loc	2 187 29                        @ ../../../../Library/StdDriver/src/scuart.c:187:29
	orrs	r0, r2
	.loc	2 187 44                        @ ../../../../Library/StdDriver/src/scuart.c:187:44
	orrs	r0, r1
	.loc	2 187 5                         @ ../../../../Library/StdDriver/src/scuart.c:187:5
	ldr	r1, [sp, #20]
	.loc	2 187 17                        @ ../../../../Library/StdDriver/src/scuart.c:187:17
	str	r0, [r1, #52]
	.loc	2 189 13 is_stmt 1              @ ../../../../Library/StdDriver/src/scuart.c:189:13
	ldr	r0, [sp, #4]
	.loc	2 189 23 is_stmt 0              @ ../../../../Library/StdDriver/src/scuart.c:189:23
	ldr	r1, [sp]
	.loc	2 189 30                        @ ../../../../Library/StdDriver/src/scuart.c:189:30
	adds	r1, r1, #1
	.loc	2 189 20                        @ ../../../../Library/StdDriver/src/scuart.c:189:20
	udiv	r0, r0, r1
	.loc	2 189 5                         @ ../../../../Library/StdDriver/src/scuart.c:189:5
	add	sp, #24
	pop	{r4, pc}
.Ltmp43:
	.p2align	2
@ %bb.4:
	.loc	2 0 5                           @ ../../../../Library/StdDriver/src/scuart.c:0:5
__arm_cp.4_0:
	.long	4095                            @ 0xfff
.Lcpi_end6:
	.size	__arm_cp.4_0, .Lcpi_end6-__arm_cp.4_0
.Lfunc_end4:
	.size	SCUART_SetLineConfig, .Lfunc_end4-SCUART_SetLineConfig
	.cfi_endproc
	.cantunwind
	.fnend
                                        @ -- End function
	.section	.text.SCUART_SetTimeoutCnt,"ax",%progbits
	.hidden	SCUART_SetTimeoutCnt            @ -- Begin function SCUART_SetTimeoutCnt
	.globl	SCUART_SetTimeoutCnt
	.p2align	1
	.type	SCUART_SetTimeoutCnt,%function
	.code	16                              @ @SCUART_SetTimeoutCnt
	.thumb_func
SCUART_SetTimeoutCnt:
.Lfunc_begin5:
	.loc	2 202 0 is_stmt 1               @ ../../../../Library/StdDriver/src/scuart.c:202:0
	.fnstart
	.cfi_startproc
@ %bb.0:
	.pad	#8
	sub	sp, #8
	.cfi_def_cfa_offset 8
	str	r0, [sp, #4]
	str	r1, [sp]
.Ltmp44:
	.loc	2 203 18 prologue_end           @ ../../../../Library/StdDriver/src/scuart.c:203:18
	ldr	r0, [sp]
	.loc	2 203 5 is_stmt 0               @ ../../../../Library/StdDriver/src/scuart.c:203:5
	ldr	r1, [sp, #4]
	.loc	2 203 16                        @ ../../../../Library/StdDriver/src/scuart.c:203:16
	str	r0, [r1, #16]
	.loc	2 204 1 is_stmt 1               @ ../../../../Library/StdDriver/src/scuart.c:204:1
	add	sp, #8
	bx	lr
.Ltmp45:
.Lfunc_end5:
	.size	SCUART_SetTimeoutCnt, .Lfunc_end5-SCUART_SetTimeoutCnt
	.cfi_endproc
	.cantunwind
	.fnend
                                        @ -- End function
	.section	.text.SCUART_Write,"ax",%progbits
	.hidden	SCUART_Write                    @ -- Begin function SCUART_Write
	.globl	SCUART_Write
	.p2align	2
	.type	SCUART_Write,%function
	.code	16                              @ @SCUART_Write
	.thumb_func
SCUART_Write:
.Lfunc_begin6:
	.loc	2 217 0                         @ ../../../../Library/StdDriver/src/scuart.c:217:0
	.fnstart
	.cfi_startproc
@ %bb.0:
	.save	{r7, lr}
	push	{r7, lr}
	.cfi_def_cfa_offset 8
	.cfi_offset lr, -4
	.cfi_offset r7, -8
	.pad	#32
	sub	sp, #32
	.cfi_def_cfa_offset 40
	str	r0, [sp, #24]
	str	r1, [sp, #20]
	str	r2, [sp, #16]
.Ltmp46:
	.loc	2 220 26 prologue_end           @ ../../../../Library/StdDriver/src/scuart.c:220:26
	ldr	r0, __arm_cp.6_0
	ldr	r0, [r0]
	.loc	2 220 60 is_stmt 0              @ ../../../../Library/StdDriver/src/scuart.c:220:60
	str	r0, [sp]                        @ 4-byte Spill
	ldr	r0, [sp, #24]
	.loc	2 220 44                        @ ../../../../Library/StdDriver/src/scuart.c:220:44
	bl	SCUART_GetClock
	mov	r1, r0
	.loc	2 220 42                        @ ../../../../Library/StdDriver/src/scuart.c:220:42
	ldr	r0, [sp]                        @ 4-byte Reload
	udiv	r0, r0, r1
	.loc	2 220 67                        @ ../../../../Library/StdDriver/src/scuart.c:220:67
	ldr	r1, [sp, #24]
	.loc	2 220 71                        @ ../../../../Library/StdDriver/src/scuart.c:220:71
	ldr	r1, [r1, #20]
	.loc	2 220 65                        @ ../../../../Library/StdDriver/src/scuart.c:220:65
	muls	r1, r0, r1
	movs	r0, #12
	.loc	2 220 78                        @ ../../../../Library/StdDriver/src/scuart.c:220:78
	muls	r0, r1, r0
	.loc	2 220 14                        @ ../../../../Library/StdDriver/src/scuart.c:220:14
	str	r0, [sp, #8]
	.loc	2 222 25 is_stmt 1              @ ../../../../Library/StdDriver/src/scuart.c:222:25
	ldr	r1, __arm_cp.6_1
	movs	r0, #0
	str	r0, [r1]
.Ltmp47:
	.loc	2 224 19                        @ ../../../../Library/StdDriver/src/scuart.c:224:19
	str	r0, [sp, #12]
	.loc	2 224 10 is_stmt 0              @ ../../../../Library/StdDriver/src/scuart.c:224:10
	b	.LBB6_1
.LBB6_1:                                @ =>This Loop Header: Depth=1
                                        @     Child Loop BB6_3 Depth 2
.Ltmp48:
	.loc	2 224 26                        @ ../../../../Library/StdDriver/src/scuart.c:224:26
	ldr	r0, [sp, #12]
	.loc	2 224 38                        @ ../../../../Library/StdDriver/src/scuart.c:224:38
	ldr	r1, [sp, #16]
.Ltmp49:
	.loc	2 224 5                         @ ../../../../Library/StdDriver/src/scuart.c:224:5
	cmp	r0, r1
	beq	.LBB6_9
	b	.LBB6_2
.LBB6_2:                                @   in Loop: Header=BB6_1 Depth=1
	.loc	2 0 5                           @ ../../../../Library/StdDriver/src/scuart.c:0:5
	movs	r0, #0
.Ltmp50:
	.loc	2 226 11 is_stmt 1              @ ../../../../Library/StdDriver/src/scuart.c:226:11
	str	r0, [sp, #4]
	.loc	2 229 9                         @ ../../../../Library/StdDriver/src/scuart.c:229:9
	b	.LBB6_3
.LBB6_3:                                @   Parent Loop BB6_1 Depth=1
                                        @ =>  This Inner Loop Header: Depth=2
	.loc	2 229 16 is_stmt 0              @ ../../../../Library/StdDriver/src/scuart.c:229:16
	ldr	r0, [sp, #24]
	ldr	r0, [r0, #32]
	.loc	2 229 9                         @ ../../../../Library/StdDriver/src/scuart.c:229:9
	lsls	r0, r0, #21
	cmp	r0, #0
	bpl	.LBB6_7
	b	.LBB6_4
.LBB6_4:                                @   in Loop: Header=BB6_3 Depth=2
.Ltmp51:
	.loc	2 232 18 is_stmt 1              @ ../../../../Library/StdDriver/src/scuart.c:232:18
	ldr	r0, [sp, #4]
	adds	r1, r0, #1
	str	r1, [sp, #4]
	.loc	2 232 23 is_stmt 0              @ ../../../../Library/StdDriver/src/scuart.c:232:23
	ldr	r1, [sp, #8]
.Ltmp52:
	.loc	2 232 17                        @ ../../../../Library/StdDriver/src/scuart.c:232:17
	cmp	r0, r1
	bls	.LBB6_6
	b	.LBB6_5
.LBB6_5:
.Ltmp53:
	.loc	2 234 37 is_stmt 1              @ ../../../../Library/StdDriver/src/scuart.c:234:37
	ldr	r1, __arm_cp.6_1
	movs	r0, #0
	mvns	r0, r0
	str	r0, [r1]
	.loc	2 235 24                        @ ../../../../Library/StdDriver/src/scuart.c:235:24
	ldr	r0, [sp, #12]
	.loc	2 235 17 is_stmt 0              @ ../../../../Library/StdDriver/src/scuart.c:235:17
	str	r0, [sp, #28]
	b	.LBB6_10
.Ltmp54:
.LBB6_6:                                @   in Loop: Header=BB6_3 Depth=2
	.loc	2 229 9 is_stmt 1               @ ../../../../Library/StdDriver/src/scuart.c:229:9
	b	.LBB6_3
.LBB6_7:                                @   in Loop: Header=BB6_1 Depth=1
	.loc	2 240 19                        @ ../../../../Library/StdDriver/src/scuart.c:240:19
	ldr	r0, [sp, #20]
	.loc	2 240 28 is_stmt 0              @ ../../../../Library/StdDriver/src/scuart.c:240:28
	ldr	r1, [sp, #12]
	.loc	2 240 19                        @ ../../../../Library/StdDriver/src/scuart.c:240:19
	ldrb	r0, [r0, r1]
	.loc	2 240 9                         @ ../../../../Library/StdDriver/src/scuart.c:240:9
	ldr	r1, [sp, #24]
	.loc	2 240 17                        @ ../../../../Library/StdDriver/src/scuart.c:240:17
	str	r0, [r1]
	.loc	2 241 5 is_stmt 1               @ ../../../../Library/StdDriver/src/scuart.c:241:5
	b	.LBB6_8
.Ltmp55:
.LBB6_8:                                @   in Loop: Header=BB6_1 Depth=1
	.loc	2 224 61                        @ ../../../../Library/StdDriver/src/scuart.c:224:61
	ldr	r0, [sp, #12]
	adds	r0, r0, #1
	str	r0, [sp, #12]
	.loc	2 224 5 is_stmt 0               @ ../../../../Library/StdDriver/src/scuart.c:224:5
	b	.LBB6_1
.Ltmp56:
.LBB6_9:
	.loc	2 243 12 is_stmt 1              @ ../../../../Library/StdDriver/src/scuart.c:243:12
	ldr	r0, [sp, #12]
	.loc	2 243 5 is_stmt 0               @ ../../../../Library/StdDriver/src/scuart.c:243:5
	str	r0, [sp, #28]
	b	.LBB6_10
.LBB6_10:
	.loc	2 244 1 is_stmt 1               @ ../../../../Library/StdDriver/src/scuart.c:244:1
	ldr	r0, [sp, #28]
	add	sp, #32
	pop	{r7, pc}
.Ltmp57:
	.p2align	2
@ %bb.11:
	.loc	2 0 1 is_stmt 0                 @ ../../../../Library/StdDriver/src/scuart.c:0:1
__arm_cp.6_0:
	.long	SystemCoreClock
.Lcpi_end7:
	.size	__arm_cp.6_0, .Lcpi_end7-__arm_cp.6_0
__arm_cp.6_1:
	.long	g_SCUART_i32ErrCode
.Lcpi_end8:
	.size	__arm_cp.6_1, .Lcpi_end8-__arm_cp.6_1
.Lfunc_end6:
	.size	SCUART_Write, .Lfunc_end6-SCUART_Write
	.cfi_endproc
	.cantunwind
	.fnend
                                        @ -- End function
	.hidden	g_SCUART_i32ErrCode             @ @g_SCUART_i32ErrCode
	.type	g_SCUART_i32ErrCode,%object
	.section	.bss.g_SCUART_i32ErrCode,"aw",%nobits
	.globl	g_SCUART_i32ErrCode
	.p2align	2, 0x0
g_SCUART_i32ErrCode:
	.long	0                               @ 0x0
	.size	g_SCUART_i32ErrCode, 4

	.section	".note.GNU-stack","",%progbits
	.eabi_attribute	30, 6	@ Tag_ABI_optimization_goals
	.ARM_attribute	16, 1	@ Tag_AV_eba