	.text
	.syntax unified
	.eabi_attribute	67, "2.09"	@ Tag_conformance
	.cpu	cortex-m23
	.eabi_attribute	6, 16	@ Tag_CPU_arch
	.eabi_attribute	7, 77	@ Tag_CPU_arch_profile
	.eabi_attribute	8, 0	@ Tag_ARM_ISA_use
	.eabi_attribute	9, 3	@ Tag_THUMB_ISA_use
	.eabi_attribute	34, 0	@ Tag_CPU_unaligned_access
	.eabi_attribute	17, 1	@ Tag_ABI_PCS_GOT_use
	.eabi_attribute	20, 2	@ Tag_ABI_FP_denormal
	.eabi_attribute	21, 0	@ Tag_ABI_FP_exceptions
	.eabi_attribute	23, 1	@ Tag_ABI_FP_number_model
	.eabi_attribute	24, 1	@ Tag_ABI_align_needed
	.eabi_attribute	25, 1	@ Tag_ABI_align_preserved
	.eabi_attribute	38, 1	@ Tag_ABI_FP_16bit_format
	.eabi_attribute	18, 2	@ Tag_ABI_PCS_wchar_t
	.eabi_attribute	26, 1	@ Tag_ABI_enum_size
	.eabi_attribute	14, 0	@ Tag_ABI_PCS_R9_use
	.file	"sys.c"
	.file	1 "C:\\Keil_v5\\ARM\\ARMCLANG\\Bin\\..\\include" "stdint.h"
	.file	2 "E:\\ROBOCON2024\\01. Coding\\Nuvoton\\demo_robot_3wheel\\SampleCode\\NuCodeGen\\DemoCodeGen\\KEIL" "../../../../Library/Device/Nuvoton/M251/Include/sys_reg.h"
	.section	.text.SYS_ClearResetSrc,"ax",%progbits
	.hidden	SYS_ClearResetSrc               @ -- Begin function SYS_ClearResetSrc
	.globl	SYS_ClearResetSrc
	.p2align	2
	.type	SYS_ClearResetSrc,%function
	.code	16                              @ @SYS_ClearResetSrc
	.thumb_func
SYS_ClearResetSrc:
.Lfunc_begin0:
	.file	3 "E:\\ROBOCON2024\\01. Coding\\Nuvoton\\demo_robot_3wheel\\SampleCode\\NuCodeGen\\DemoCodeGen\\KEIL" "../../../../Library/StdDriver/src/sys.c"
	.loc	3 39 0                          @ ../../../../Library/StdDriver/src/sys.c:39:0
	.fnstart
	.cfi_sections .debug_frame
	.cfi_startproc
@ %bb.0:
	.pad	#4
	sub	sp, #4
	.cfi_def_cfa_offset 4
	str	r0, [sp]
.Ltmp0:
	.loc	3 40 20 prologue_end            @ ../../../../Library/StdDriver/src/sys.c:40:20
	ldr	r2, [sp]
	ldr	r1, __arm_cp.0_0
	.loc	3 40 17 is_stmt 0               @ ../../../../Library/StdDriver/src/sys.c:40:17
	ldr	r0, [r1]
	orrs	r0, r2
	str	r0, [r1]
	.loc	3 41 1 is_stmt 1                @ ../../../../Library/StdDriver/src/sys.c:41:1
	add	sp, #4
	bx	lr
.Ltmp1:
	.p2align	2
@ %bb.1:
	.loc	3 0 1 is_stmt 0                 @ ../../../../Library/StdDriver/src/sys.c:0:1
__arm_cp.0_0:
	.long	1073741828                      @ 0x40000004
.Lcpi_end0:
	.size	__arm_cp.0_0, .Lcpi_end0-__arm_cp.0_0
.Lfunc_end0:
	.size	SYS_ClearResetSrc, .Lfunc_end0-SYS_ClearResetSrc
	.cfi_endproc
	.cantunwind
	.fnend
                                        @ -- End function
	.section	.text.SYS_GetBODStatus,"ax",%progbits
	.hidden	SYS_GetBODStatus                @ -- Begin function SYS_GetBODStatus
	.globl	SYS_GetBODStatus
	.p2align	2
	.type	SYS_GetBODStatus,%function
	.code	16                              @ @SYS_GetBODStatus
	.thumb_func
SYS_GetBODStatus:
.Lfunc_begin1:
	.loc	3 50 0 is_stmt 1                @ ../../../../Library/StdDriver/src/sys.c:50:0
	.fnstart
	.cfi_startproc
@ %bb.0:
	ldr	r0, __arm_cp.1_0
.Ltmp2:
	.loc	3 51 19 prologue_end            @ ../../../../Library/StdDriver/src/sys.c:51:19
	ldr	r0, [r0]
	movs	r1, #64
	.loc	3 51 26 is_stmt 0               @ ../../../../Library/StdDriver/src/sys.c:51:26
	ands	r0, r1
	.loc	3 51 51                         @ ../../../../Library/StdDriver/src/sys.c:51:51
	lsrs	r0, r0, #6
	.loc	3 51 5                          @ ../../../../Library/StdDriver/src/sys.c:51:5
	bx	lr
.Ltmp3:
	.p2align	2
@ %bb.1:
	.loc	3 0 5                           @ ../../../../Library/StdDriver/src/sys.c:0:5
__arm_cp.1_0:
	.long	1073741848                      @ 0x40000018
.Lcpi_end1:
	.size	__arm_cp.1_0, .Lcpi_end1-__arm_cp.1_0
.Lfunc_end1:
	.size	SYS_GetBODStatus, .Lfunc_end1-SYS_GetBODStatus
	.cfi_endproc
	.cantunwind
	.fnend
                                        @ -- End function
	.section	.text.SYS_GetResetSrc,"ax",%progbits
	.hidden	SYS_GetResetSrc                 @ -- Begin function SYS_GetResetSrc
	.globl	SYS_GetResetSrc
	.p2align	2
	.type	SYS_GetResetSrc,%function
	.code	16                              @ @SYS_GetResetSrc
	.thumb_func
SYS_GetResetSrc:
.Lfunc_begin2:
	.loc	3 60 0 is_stmt 1                @ ../../../../Library/StdDriver/src/sys.c:60:0
	.fnstart
	.cfi_startproc
@ %bb.0:
	ldr	r0, __arm_cp.2_0
.Ltmp4:
	.loc	3 61 18 prologue_end            @ ../../../../Library/StdDriver/src/sys.c:61:18
	ldr	r0, [r0]
	.loc	3 61 5 is_stmt 0                @ ../../../../Library/StdDriver/src/sys.c:61:5
	bx	lr
.Ltmp5:
	.p2align	2
@ %bb.1:
	.loc	3 0 5                           @ ../../../../Library/StdDriver/src/sys.c:0:5
__arm_cp.2_0:
	.long	1073741828                      @ 0x40000004
.Lcpi_end2:
	.size	__arm_cp.2_0, .Lcpi_end2-__arm_cp.2_0
.Lfunc_end2:
	.size	SYS_GetResetSrc, .Lfunc_end2-SYS_GetResetSrc
	.cfi_endproc
	.cantunwind
	.fnend
                                        @ -- End function
	.section	.text.SYS_IsRegLocked,"ax",%progbits
	.hidden	SYS_IsRegLocked                 @ -- Begin function SYS_IsRegLocked
	.globl	SYS_IsRegLocked
	.p2align	2
	.type	SYS_IsRegLocked,%function
	.code	16                              @ @SYS_IsRegLocked
	.thumb_func
SYS_IsRegLocked:
.Lfunc_begin3:
	.loc	3 71 0 is_stmt 1                @ ../../../../Library/StdDriver/src/sys.c:71:0
	.fnstart
	.cfi_startproc
@ %bb.0:
	ldr	r0, __arm_cp.3_0
.Ltmp6:
	.loc	3 72 19 prologue_end            @ ../../../../Library/StdDriver/src/sys.c:72:19
	ldr	r0, [r0]
	movs	r1, #1
	.loc	3 72 27 is_stmt 0               @ ../../../../Library/StdDriver/src/sys.c:72:27
	ands	r0, r1
	.loc	3 72 12                         @ ../../../../Library/StdDriver/src/sys.c:72:12
	rsbs	r1, r0, #0
	adcs	r0, r1
	.loc	3 72 5                          @ ../../../../Library/StdDriver/src/sys.c:72:5
	bx	lr
.Ltmp7:
	.p2align	2
@ %bb.1:
	.loc	3 0 5                           @ ../../../../Library/StdDriver/src/sys.c:0:5
__arm_cp.3_0:
	.long	1073742080                      @ 0x40000100
.Lcpi_end3:
	.size	__arm_cp.3_0, .Lcpi_end3-__arm_cp.3_0
.Lfunc_end3:
	.size	SYS_IsRegLocked, .Lfunc_end3-SYS_IsRegLocked
	.cfi_endproc
	.cantunwind
	.fnend
                                        @ -- End function
	.section	.text.SYS_ReadPDID,"ax",%progbits
	.hidden	SYS_ReadPDID                    @ -- Begin function SYS_ReadPDID
	.globl	SYS_ReadPDID
	.p2align	1
	.type	SYS_ReadPDID,%function
	.code	16                              @ @SYS_ReadPDID
	.thumb_func
SYS_ReadPDID:
.Lfunc_begin4:
	.loc	3 81 0 is_stmt 1                @ ../../../../Library/StdDriver/src/sys.c:81:0
	.fnstart
	.cfi_startproc
@ %bb.0:
	movs	r0, #1
	lsls	r0, r0, #30
.Ltmp8:
	.loc	3 82 17 prologue_end            @ ../../../../Library/StdDriver/src/sys.c:82:17
	ldr	r0, [r0]
	.loc	3 82 5 is_stmt 0                @ ../../../../Library/StdDriver/src/sys.c:82:5
	bx	lr
.Ltmp9:
.Lfunc_end4:
	.size	SYS_ReadPDID, .Lfunc_end4-SYS_ReadPDID
	.cfi_endproc
	.cantunwind
	.fnend
                                        @ -- End function
	.section	.text.SYS_ResetChip,"ax",%progbits
	.hidden	SYS_ResetChip                   @ -- Begin function SYS_ResetChip
	.globl	SYS_ResetChip
	.p2align	2
	.type	SYS_ResetChip,%function
	.code	16                              @ @SYS_ResetChip
	.thumb_func
SYS_ResetChip:
.Lfunc_begin5:
	.loc	3 91 0 is_stmt 1                @ ../../../../Library/StdDriver/src/sys.c:91:0
	.fnstart
	.cfi_startproc
@ %bb.0:
	ldr	r1, __arm_cp.5_0
.Ltmp10:
	.loc	3 92 17 prologue_end            @ ../../../../Library/StdDriver/src/sys.c:92:17
	ldr	r0, [r1]
	movs	r2, #1
	orrs	r0, r2
	str	r0, [r1]
	.loc	3 93 1                          @ ../../../../Library/StdDriver/src/sys.c:93:1
	bx	lr
.Ltmp11:
	.p2align	2
@ %bb.1:
	.loc	3 0 1 is_stmt 0                 @ ../../../../Library/StdDriver/src/sys.c:0:1
__arm_cp.5_0:
	.long	1073741832                      @ 0x40000008
.Lcpi_end4:
	.size	__arm_cp.5_0, .Lcpi_end4-__arm_cp.5_0
.Lfunc_end5:
	.size	SYS_ResetChip, .Lfunc_end5-SYS_ResetChip
	.cfi_endproc
	.cantunwind
	.fnend
                                        @ -- End function
	.section	.text.SYS_ResetCPU,"ax",%progbits
	.hidden	SYS_ResetCPU                    @ -- Begin function SYS_ResetCPU
	.globl	SYS_ResetCPU
	.p2align	2
	.type	SYS_ResetCPU,%function
	.code	16                              @ @SYS_ResetCPU
	.thumb_func
SYS_ResetCPU:
.Lfunc_begin6:
	.loc	3 101 0 is_stmt 1               @ ../../../../Library/StdDriver/src/sys.c:101:0
	.fnstart
	.cfi_startproc
@ %bb.0:
	ldr	r1, __arm_cp.6_0
.Ltmp12:
	.loc	3 102 17 prologue_end           @ ../../../../Library/StdDriver/src/sys.c:102:17
	ldr	r0, [r1]
	movs	r2, #2
	orrs	r0, r2
	str	r0, [r1]
	.loc	3 103 1                         @ ../../../../Library/StdDriver/src/sys.c:103:1
	bx	lr
.Ltmp13:
	.p2align	2
@ %bb.1:
	.loc	3 0 1 is_stmt 0                 @ ../../../../Library/StdDriver/src/sys.c:0:1
__arm_cp.6_0:
	.long	1073741832                      @ 0x40000008
.Lcpi_end5:
	.size	__arm_cp.6_0, .Lcpi_end5-__arm_cp.6_0
.Lfunc_end6:
	.size	SYS_ResetCPU, .Lfunc_end6-SYS_ResetCPU
	.cfi_endproc
	.cantunwind
	.fnend
                                        @ -- End function
	.section	.text.SYS_ResetModule,"ax",%progbits
	.hidden	SYS_ResetModule                 @ -- Begin function SYS_ResetModule
	.globl	SYS_ResetModule
	.p2align	2
	.type	SYS_ResetModule,%function
	.code	16                              @ @SYS_ResetModule
	.thumb_func
SYS_ResetModule:
.Lfunc_begin7:
	.loc	3 145 0 is_stmt 1               @ ../../../../Library/StdDriver/src/sys.c:145:0
	.fnstart
	.cfi_startproc
@ %bb.0:
	.save	{r4, r5, r7, lr}
	push	{r4, r5, r7, lr}
	.cfi_def_cfa_offset 16
	.cfi_offset lr, -4
	.cfi_offset r7, -8
	.cfi_offset r5, -12
	.cfi_offset r4, -16
	.pad	#4
	sub	sp, #4
	.cfi_def_cfa_offset 20
	str	r0, [sp]
.Ltmp14:
	.loc	3 147 91 prologue_end           @ ../../../../Library/StdDriver/src/sys.c:147:91
	ldr	r0, [sp]
	ldr	r4, __arm_cp.7_0
	.loc	3 147 106 is_stmt 0             @ ../../../../Library/StdDriver/src/sys.c:147:106
	mov	r1, r0
	ands	r1, r4
	movs	r3, #1
	.loc	3 147 87                        @ ../../../../Library/StdDriver/src/sys.c:147:87
	mov	r5, r3
	lsls	r5, r1
	.loc	3 147 69                        @ ../../../../Library/StdDriver/src/sys.c:147:69
	lsrs	r1, r0, #24
	ldr	r2, __arm_cp.7_1
	.loc	3 147 80                        @ ../../../../Library/StdDriver/src/sys.c:147:80
	ldr	r0, [r1, r2]
	orrs	r0, r5
	str	r0, [r1, r2]
	.loc	3 150 93 is_stmt 1              @ ../../../../Library/StdDriver/src/sys.c:150:93
	ldr	r0, [sp]
	.loc	3 150 108 is_stmt 0             @ ../../../../Library/StdDriver/src/sys.c:150:108
	mov	r1, r0
	ands	r1, r4
	.loc	3 150 89                        @ ../../../../Library/StdDriver/src/sys.c:150:89
	lsls	r3, r1
	.loc	3 150 69                        @ ../../../../Library/StdDriver/src/sys.c:150:69
	lsrs	r1, r0, #24
	.loc	3 150 80                        @ ../../../../Library/StdDriver/src/sys.c:150:80
	ldr	r0, [r1, r2]
	bics	r0, r3
	str	r0, [r1, r2]
	.loc	3 151 1 is_stmt 1               @ ../../../../Library/StdDriver/src/sys.c:151:1
	add	sp, #4
	pop	{r4, r5, r7, pc}
.Ltmp15:
	.p2align	2
@ %bb.1:
	.loc	3 0 1 is_stmt 0                 @ ../../../../Library/StdDriver/src/sys.c:0:1
__arm_cp.7_0:
	.long	16777215                        @ 0xffffff
.Lcpi_end6:
	.size	__arm_cp.7_0, .Lcpi_end6-__arm_cp.7_0
__arm_cp.7_1:
	.long	1073741832                      @ 0x40000008
.Lcpi_end7:
	.size	__arm_cp.7_1, .Lcpi_end7-__arm_cp.7_1
.Lfunc_end7:
	.size	SYS_ResetModule, .Lfunc_end7-SYS_ResetModule
	.cfi_endproc
	.cantunwind
	.fnend
                                        @ -- End function
	.section	.text.SYS_EnableBOD,"ax",%progbits
	.hidden	SYS_EnableBOD                   @ -- Begin function SYS_EnableBOD
	.globl	SYS_EnableBOD
	.p2align	2
	.type	SYS_EnableBOD,%function
	.code	16                              @ @SYS_EnableBOD
	.thumb_func
SYS_EnableBOD:
.Lfunc_begin8:
	.loc	3 171 0 is_stmt 1               @ ../../../../Library/StdDriver/src/sys.c:171:0
	.fnstart
	.cfi_startproc
@ %bb.0:
	.pad	#8
	sub	sp, #8
	.cfi_def_cfa_offset 8
	str	r0, [sp, #4]
	str	r1, [sp]
	ldr	r1, __arm_cp.8_0
.Ltmp16:
	.loc	3 173 17 prologue_end           @ ../../../../Library/StdDriver/src/sys.c:173:17
	ldr	r0, [r1]
	movs	r2, #1
	orrs	r0, r2
	str	r0, [r1]
	.loc	3 176 25                        @ ../../../../Library/StdDriver/src/sys.c:176:25
	ldr	r0, [r1]
	movs	r2, #8
	.loc	3 176 32 is_stmt 0              @ ../../../../Library/StdDriver/src/sys.c:176:32
	bics	r0, r2
	.loc	3 176 62                        @ ../../../../Library/StdDriver/src/sys.c:176:62
	ldr	r2, [sp, #4]
	.loc	3 176 60                        @ ../../../../Library/StdDriver/src/sys.c:176:60
	orrs	r0, r2
	.loc	3 176 17                        @ ../../../../Library/StdDriver/src/sys.c:176:17
	str	r0, [r1]
	.loc	3 179 25 is_stmt 1              @ ../../../../Library/StdDriver/src/sys.c:179:25
	ldr	r0, [r1]
	movs	r2, #7
	lsls	r2, r2, #16
	.loc	3 179 32 is_stmt 0              @ ../../../../Library/StdDriver/src/sys.c:179:32
	bics	r0, r2
	.loc	3 179 59                        @ ../../../../Library/StdDriver/src/sys.c:179:59
	ldr	r2, [sp]
	.loc	3 179 57                        @ ../../../../Library/StdDriver/src/sys.c:179:57
	orrs	r0, r2
	.loc	3 179 17                        @ ../../../../Library/StdDriver/src/sys.c:179:17
	str	r0, [r1]
	.loc	3 180 1 is_stmt 1               @ ../../../../Library/StdDriver/src/sys.c:180:1
	add	sp, #8
	bx	lr
.Ltmp17:
	.p2align	2
@ %bb.1:
	.loc	3 0 1 is_stmt 0                 @ ../../../../Library/StdDriver/src/sys.c:0:1
__arm_cp.8_0:
	.long	1073741848                      @ 0x40000018
.Lcpi_end8:
	.size	__arm_cp.8_0, .Lcpi_end8-__arm_cp.8_0
.Lfunc_end8:
	.size	SYS_EnableBOD, .Lfunc_end8-SYS_EnableBOD
	.cfi_endproc
	.cantunwind
	.fnend
                                        @ -- End function
	.section	.text.SYS_DisableBOD,"ax",%progbits
	.hidden	SYS_DisableBOD                  @ -- Begin function SYS_DisableBOD
	.globl	SYS_DisableBOD
	.p2align	2
	.type	SYS_DisableBOD,%function
	.code	16                              @ @SYS_DisableBOD
	.thumb_func
SYS_DisableBOD:
.Lfunc_begin9:
	.loc	3 188 0 is_stmt 1               @ ../../../../Library/StdDriver/src/sys.c:188:0
	.fnstart
	.cfi_startproc
@ %bb.0:
	ldr	r1, __arm_cp.9_0
.Ltmp18:
	.loc	3 189 17 prologue_end           @ ../../../../Library/StdDriver/src/sys.c:189:17
	ldr	r0, [r1]
	movs	r2, #1
	bics	r0, r2
	str	r0, [r1]
	.loc	3 190 1                         @ ../../../../Library/StdDriver/src/sys.c:190:1
	bx	lr
.Ltmp19:
	.p2align	2
@ %bb.1:
	.loc	3 0 1 is_stmt 0                 @ ../../../../Library/StdDriver/src/sys.c:0:1
__arm_cp.9_0:
	.long	1073741848                      @ 0x40000018
.Lcpi_end9:
	.size	__arm_cp.9_0, .Lcpi_end9-__arm_cp.9_0
.Lfunc_end9:
	.size	SYS_DisableBOD, .Lfunc_end9-SYS_DisableBOD
	.cfi_endproc
	.cantunwind
	.fnend
                                        @ -- End function
	.section	.text.SYS_SetPowerLevel,"ax",%progbits
	.hidden	SYS_SetPowerLevel               @ -- Begin function SYS_SetPowerLevel
	.globl	SYS_SetPowerLevel
	.p2align	2
	.type	SYS_SetPowerLevel,%function
	.code	16                              @ @SYS_SetPowerLevel
	.thumb_func
SYS_SetPowerLevel:
.Lfunc_begin10:
	.loc	3 201 0 is_stmt 1               @ ../../../../Library/StdDriver/src/sys.c:201:0
	.fnstart
	.cfi_startproc
@ %bb.0:
	.pad	#4
	sub	sp, #4
	.cfi_def_cfa_offset 4
	str	r0, [sp]
	ldr	r1, __arm_cp.10_0
.Ltmp20:
	.loc	3 203 24 prologue_end           @ ../../../../Library/StdDriver/src/sys.c:203:24
	ldr	r0, [r1]
	movs	r2, #3
	.loc	3 203 30 is_stmt 0              @ ../../../../Library/StdDriver/src/sys.c:203:30
	bics	r0, r2
	.loc	3 203 59                        @ ../../../../Library/StdDriver/src/sys.c:203:59
	ldr	r2, [sp]
	.loc	3 203 56                        @ ../../../../Library/StdDriver/src/sys.c:203:56
	orrs	r0, r2
	.loc	3 203 16                        @ ../../../../Library/StdDriver/src/sys.c:203:16
	str	r0, [r1]
	.loc	3 205 5 is_stmt 1               @ ../../../../Library/StdDriver/src/sys.c:205:5
	b	.LBB10_1
.LBB10_1:                               @ =>This Inner Loop Header: Depth=1
	.loc	3 0 5 is_stmt 0                 @ ../../../../Library/StdDriver/src/sys.c:0:5
	ldr	r0, __arm_cp.10_1
	.loc	3 205 17                        @ ../../../../Library/StdDriver/src/sys.c:205:17
	ldr	r0, [r0]
	.loc	3 205 5                         @ ../../../../Library/StdDriver/src/sys.c:205:5
	lsls	r0, r0, #31
	cbz	r0, .LBB10_3
	b	.LBB10_2
.LBB10_2:                               @   in Loop: Header=BB10_1 Depth=1
	b	.LBB10_1
.LBB10_3:
	.loc	3 206 1 is_stmt 1               @ ../../../../Library/StdDriver/src/sys.c:206:1
	add	sp, #4
	bx	lr
.Ltmp21:
	.p2align	2
@ %bb.4:
	.loc	3 0 1 is_stmt 0                 @ ../../../../Library/StdDriver/src/sys.c:0:1
__arm_cp.10_0:
	.long	1073742328                      @ 0x400001f8
.Lcpi_end10:
	.size	__arm_cp.10_0, .Lcpi_end10-__arm_cp.10_0
__arm_cp.10_1:
	.long	1073742332                      @ 0x400001fc
.Lcpi_end11:
	.size	__arm_cp.10_1, .Lcpi_end11-__arm_cp.10_1
.Lfunc_end10:
	.size	SYS_SetPowerLevel, .Lfunc_end10-SYS_SetPowerLevel
	.cfi_endproc
	.cantunwind
	.fnend
                                        @ -- End function
	.section	".note.GNU-stack","",%progbits
	.eabi_attribute	30, 6	@ Tag_ABI_optimization_goals
	.ARM_attribute	16, 1	@ Tag_AV_eba