	.text
	.syntax unified
	.eabi_attribute	67, "2.09"	@ Tag_conformance
	.cpu	cortex-m23
	.eabi_attribute	6, 16	@ Tag_CPU_arch
	.eabi_attribute	7, 77	@ Tag_CPU_arch_profile
	.eabi_attribute	8, 0	@ Tag_ARM_ISA_use
	.eabi_attribute	9, 3	@ Tag_THUMB_ISA_use
	.eabi_attribute	34, 0	@ Tag_CPU_unaligned_access
	.eabi_attribute	17, 1	@ Tag_ABI_PCS_GOT_use
	.eabi_attribute	20, 2	@ Tag_ABI_FP_denormal
	.eabi_attribute	21, 0	@ Tag_ABI_FP_exceptions
	.eabi_attribute	23, 1	@ Tag_ABI_FP_number_model
	.eabi_attribute	24, 1	@ Tag_ABI_align_needed
	.eabi_attribute	25, 1	@ Tag_ABI_align_preserved
	.eabi_attribute	38, 1	@ Tag_ABI_FP_16bit_format
	.eabi_attribute	18, 2	@ Tag_ABI_PCS_wchar_t
	.eabi_attribute	26, 1	@ Tag_ABI_enum_size
	.eabi_attribute	14, 0	@ Tag_ABI_PCS_R9_use
	.file	"system_M251.c"
	.file	1 "C:\\Keil_v5\\ARM\\ARMCLANG\\Bin\\..\\include" "stdint.h"
	.file	2 "E:\\ROBOCON2024\\01. Coding\\Nuvoton\\demo_robot_3wheel\\SampleCode\\NuCodeGen\\DemoCodeGen\\KEIL" "../../../../Library/Device/Nuvoton/M251/Source/system_M251.c"
	.file	3 "E:\\ROBOCON2024\\01. Coding\\Nuvoton\\demo_robot_3wheel\\SampleCode\\NuCodeGen\\DemoCodeGen\\KEIL" "../../../../Library/Device/Nuvoton/M251/Include/clk_reg.h"
	.file	4 "E:\\ROBOCON2024\\01. Coding\\Nuvoton\\demo_robot_3wheel\\SampleCode\\NuCodeGen\\DemoCodeGen\\KEIL" "../../../../Library/Device/Nuvoton/M251/Include/fmc_reg.h"
	.file	5 "E:\\ROBOCON2024\\01. Coding\\Nuvoton\\demo_robot_3wheel\\SampleCode\\NuCodeGen\\DemoCodeGen\\KEIL" "../../../../Library/CMSIS/Include\\core_cm23.h"
	.file	6 "E:\\ROBOCON2024\\01. Coding\\Nuvoton\\demo_robot_3wheel\\SampleCode\\NuCodeGen\\DemoCodeGen\\KEIL" "../../../../Library/Device/Nuvoton/M251/Include/sys_reg.h"
	.section	.text.SystemCoreClockUpdate,"ax",%progbits
	.hidden	SystemCoreClockUpdate           @ -- Begin function SystemCoreClockUpdate
	.globl	SystemCoreClockUpdate
	.p2align	2
	.type	SystemCoreClockUpdate,%function
	.code	16                              @ @SystemCoreClockUpdate
	.thumb_func
SystemCoreClockUpdate:
.Lfunc_begin0:
	.loc	2 38 0                          @ ../../../../Library/Device/Nuvoton/M251/Source/system_M251.c:38:0
	.fnstart
	.cfi_sections .debug_frame
	.cfi_startproc
@ %bb.0:
	.save	{r7, lr}
	push	{r7, lr}
	.cfi_def_cfa_offset 8
	.cfi_offset lr, -4
	.cfi_offset r7, -8
	.pad	#16
	sub	sp, #16
	.cfi_def_cfa_offset 24
	ldr	r0, __arm_cp.0_0
.Ltmp0:
	.loc	2 42 22 prologue_end            @ ../../../../Library/Device/Nuvoton/M251/Source/system_M251.c:42:22
	ldr	r0, [r0]
	movs	r1, #7
	.loc	2 42 30 is_stmt 0               @ ../../../../Library/Device/Nuvoton/M251/Source/system_M251.c:42:30
	ands	r0, r1
	.loc	2 42 15                         @ ../../../../Library/Device/Nuvoton/M251/Source/system_M251.c:42:15
	str	r0, [sp, #8]
	.loc	2 45 16 is_stmt 1               @ ../../../../Library/Device/Nuvoton/M251/Source/system_M251.c:45:16
	bl	CLK_GetPLLClockFreq
	.loc	2 45 14 is_stmt 0               @ ../../../../Library/Device/Nuvoton/M251/Source/system_M251.c:45:14
	ldr	r1, __arm_cp.0_1
	str	r0, [r1]
.Ltmp1:
	.loc	2 47 9 is_stmt 1                @ ../../../../Library/Device/Nuvoton/M251/Source/system_M251.c:47:9
	ldr	r0, [sp, #8]
.Ltmp2:
	.loc	2 47 9 is_stmt 0                @ ../../../../Library/Device/Nuvoton/M251/Source/system_M251.c:47:9
	cmp	r0, #2
	beq	.LBB0_2
	b	.LBB0_1
.LBB0_1:
.Ltmp3:
	.loc	2 50 34 is_stmt 1               @ ../../../../Library/Device/Nuvoton/M251/Source/system_M251.c:50:34
	ldr	r0, [sp, #8]
	.loc	2 50 19 is_stmt 0               @ ../../../../Library/Device/Nuvoton/M251/Source/system_M251.c:50:19
	lsls	r1, r0, #2
	ldr	r0, __arm_cp.0_2
	ldr	r0, [r0, r1]
	.loc	2 50 17                         @ ../../../../Library/Device/Nuvoton/M251/Source/system_M251.c:50:17
	str	r0, [sp, #12]
	.loc	2 51 5 is_stmt 1                @ ../../../../Library/Device/Nuvoton/M251/Source/system_M251.c:51:5
	b	.LBB0_3
.Ltmp4:
.LBB0_2:
	.loc	2 55 19                         @ ../../../../Library/Device/Nuvoton/M251/Source/system_M251.c:55:19
	ldr	r0, __arm_cp.0_1
	ldr	r0, [r0]
	.loc	2 55 17 is_stmt 0               @ ../../../../Library/Device/Nuvoton/M251/Source/system_M251.c:55:17
	str	r0, [sp, #12]
	b	.LBB0_3
.Ltmp5:
.LBB0_3:
	.loc	2 0 17                          @ ../../../../Library/Device/Nuvoton/M251/Source/system_M251.c:0:17
	ldr	r0, __arm_cp.0_3
	.loc	2 58 24 is_stmt 1               @ ../../../../Library/Device/Nuvoton/M251/Source/system_M251.c:58:24
	ldr	r0, [r0]
	movs	r1, #15
	.loc	2 58 32 is_stmt 0               @ ../../../../Library/Device/Nuvoton/M251/Source/system_M251.c:58:32
	ands	r0, r1
	.loc	2 58 59                         @ ../../../../Library/Device/Nuvoton/M251/Source/system_M251.c:58:59
	adds	r0, r0, #1
	.loc	2 58 16                         @ ../../../../Library/Device/Nuvoton/M251/Source/system_M251.c:58:16
	str	r0, [sp, #4]
	.loc	2 61 23 is_stmt 1               @ ../../../../Library/Device/Nuvoton/M251/Source/system_M251.c:61:23
	ldr	r0, [sp, #12]
	.loc	2 61 33 is_stmt 0               @ ../../../../Library/Device/Nuvoton/M251/Source/system_M251.c:61:33
	ldr	r1, [sp, #4]
	.loc	2 61 31                         @ ../../../../Library/Device/Nuvoton/M251/Source/system_M251.c:61:31
	udiv	r1, r0, r1
	.loc	2 61 21                         @ ../../../../Library/Device/Nuvoton/M251/Source/system_M251.c:61:21
	ldr	r0, __arm_cp.0_4
	str	r1, [r0]
	.loc	2 63 20 is_stmt 1               @ ../../../../Library/Device/Nuvoton/M251/Source/system_M251.c:63:20
	ldr	r0, [r0]
	ldr	r1, __arm_cp.0_5
	.loc	2 63 36 is_stmt 0               @ ../../../../Library/Device/Nuvoton/M251/Source/system_M251.c:63:36
	adds	r0, r0, r1
	ldr	r1, __arm_cp.0_6
	.loc	2 63 46                         @ ../../../../Library/Device/Nuvoton/M251/Source/system_M251.c:63:46
	udiv	r0, r0, r1
	.loc	2 63 17                         @ ../../../../Library/Device/Nuvoton/M251/Source/system_M251.c:63:17
	ldr	r1, __arm_cp.0_7
	str	r0, [r1]
	.loc	2 64 1 is_stmt 1                @ ../../../../Library/Device/Nuvoton/M251/Source/system_M251.c:64:1
	add	sp, #16
	pop	{r7, pc}
.Ltmp6:
	.p2align	2
@ %bb.4:
	.loc	2 0 1 is_stmt 0                 @ ../../../../Library/Device/Nuvoton/M251/Source/system_M251.c:0:1
__arm_cp.0_0:
	.long	1073742352                      @ 0x40000210
.Lcpi_end0:
	.size	__arm_cp.0_0, .Lcpi_end0-__arm_cp.0_0
__arm_cp.0_1:
	.long	PllClock
.Lcpi_end1:
	.size	__arm_cp.0_1, .Lcpi_end1-__arm_cp.0_1
__arm_cp.0_2:
	.long	gau32ClkSrcTbl
.Lcpi_end2:
	.size	__arm_cp.0_2, .Lcpi_end2-__arm_cp.0_2
__arm_cp.0_3:
	.long	1073742368                      @ 0x40000220
.Lcpi_end3:
	.size	__arm_cp.0_3, .Lcpi_end3-__arm_cp.0_3
__arm_cp.0_4:
	.long	SystemCoreClock
.Lcpi_end4:
	.size	__arm_cp.0_4, .Lcpi_end4-__arm_cp.0_4
__arm_cp.0_5:
	.long	500000                          @ 0x7a120
.Lcpi_end5:
	.size	__arm_cp.0_5, .Lcpi_end5-__arm_cp.0_5
__arm_cp.0_6:
	.long	1000000                         @ 0xf4240
.Lcpi_end6:
	.size	__arm_cp.0_6, .Lcpi_end6-__arm_cp.0_6
__arm_cp.0_7:
	.long	CyclesPerUs
.Lcpi_end7:
	.size	__arm_cp.0_7, .Lcpi_end7-__arm_cp.0_7
.Lfunc_end0:
	.size	SystemCoreClockUpdate, .Lfunc_end0-SystemCoreClockUpdate
	.cfi_endproc
	.cantunwind
	.fnend
                                        @ -- End function
	.section	.text.SystemInit,"ax",%progbits
	.hidden	SystemInit                      @ -- Begin function SystemInit
	.globl	SystemInit
	.p2align	2
	.type	SystemInit,%function
	.code	16                              @ @SystemInit
	.thumb_func
SystemInit:
.Lfunc_begin1:
	.loc	2 74 0 is_stmt 1                @ ../../../../Library/Device/Nuvoton/M251/Source/system_M251.c:74:0
	.fnstart
	.cfi_startproc
@ %bb.0:
	ldr	r1, __arm_cp.1_0
.Ltmp7:
	.loc	2 76 25 prologue_end            @ ../../../../Library/Device/Nuvoton/M251/Source/system_M251.c:76:25
	ldr	r0, [r1]
	movw	r2, #259
	.loc	2 76 32 is_stmt 0               @ ../../../../Library/Device/Nuvoton/M251/Source/system_M251.c:76:32
	orrs	r0, r2
	movs	r2, #12
	.loc	2 76 87                         @ ../../../../Library/Device/Nuvoton/M251/Source/system_M251.c:76:87
	bics	r0, r2
	.loc	2 76 17                         @ ../../../../Library/Device/Nuvoton/M251/Source/system_M251.c:76:17
	str	r0, [r1]
	.loc	2 79 15 is_stmt 1               @ ../../../../Library/Device/Nuvoton/M251/Source/system_M251.c:79:15
	ldr	r0, __arm_cp.1_1
	ldr	r1, __arm_cp.1_2
	str	r0, [r1]
	.loc	2 92 1                          @ ../../../../Library/Device/Nuvoton/M251/Source/system_M251.c:92:1
	bx	lr
.Ltmp8:
	.p2align	2
@ %bb.1:
	.loc	2 0 1 is_stmt 0                 @ ../../../../Library/Device/Nuvoton/M251/Source/system_M251.c:0:1
__arm_cp.1_0:
	.long	1073791052                      @ 0x4000c04c
.Lcpi_end8:
	.size	__arm_cp.1_0, .Lcpi_end8-__arm_cp.1_0
__arm_cp.1_1:
	.long	__Vectors
.Lcpi_end9:
	.size	__arm_cp.1_1, .Lcpi_end9-__arm_cp.1_1
__arm_cp.1_2:
	.long	3758157064                      @ 0xe000ed08
.Lcpi_end10:
	.size	__arm_cp.1_2, .Lcpi_end10-__arm_cp.1_2
.Lfunc_end1:
	.size	SystemInit, .Lfunc_end1-SystemInit
	.cfi_endproc
	.cantunwind
	.fnend
                                        @ -- End function
	.section	.text.Uart0DefaultMPF,"ax",%progbits
	.hidden	Uart0DefaultMPF                 @ -- Begin function Uart0DefaultMPF
	.weak	Uart0DefaultMPF
	.p2align	2
	.type	Uart0DefaultMPF,%function
	.code	16                              @ @Uart0DefaultMPF
	.thumb_func
Uart0DefaultMPF:
.Lfunc_begin2:
	.loc	2 127 0 is_stmt 1               @ ../../../../Library/Device/Nuvoton/M251/Source/system_M251.c:127:0
	.fnstart
	.cfi_startproc
@ %bb.0:
	.save	{r4, lr}
	push	{r4, lr}
	.cfi_def_cfa_offset 8
	.cfi_offset lr, -4
	.cfi_offset r4, -8
	ldr	r1, __arm_cp.2_0
.Ltmp9:
	.loc	2 130 27 prologue_end           @ ../../../../Library/Device/Nuvoton/M251/Source/system_M251.c:130:27
	ldr	r0, [r1]
	movs	r3, #15
	lsls	r2, r3, #16
	.loc	2 130 36 is_stmt 0              @ ../../../../Library/Device/Nuvoton/M251/Source/system_M251.c:130:36
	bics	r0, r2
	movs	r2, #3
	lsls	r4, r2, #17
	.loc	2 130 65                        @ ../../../../Library/Device/Nuvoton/M251/Source/system_M251.c:130:65
	adds	r0, r0, r4
	.loc	2 130 19                        @ ../../../../Library/Device/Nuvoton/M251/Source/system_M251.c:130:19
	str	r0, [r1]
	.loc	2 131 27 is_stmt 1              @ ../../../../Library/Device/Nuvoton/M251/Source/system_M251.c:131:27
	ldr	r0, [r1]
	lsls	r3, r3, #20
	.loc	2 131 36 is_stmt 0              @ ../../../../Library/Device/Nuvoton/M251/Source/system_M251.c:131:36
	bics	r0, r3
	lsls	r2, r2, #21
	.loc	2 131 65                        @ ../../../../Library/Device/Nuvoton/M251/Source/system_M251.c:131:65
	adds	r0, r0, r2
	.loc	2 131 19                        @ ../../../../Library/Device/Nuvoton/M251/Source/system_M251.c:131:19
	str	r0, [r1]
	.loc	2 133 1 is_stmt 1               @ ../../../../Library/Device/Nuvoton/M251/Source/system_M251.c:133:1
	pop	{r4, pc}
.Ltmp10:
	.p2align	2
@ %bb.1:
	.loc	2 0 1 is_stmt 0                 @ ../../../../Library/Device/Nuvoton/M251/Source/system_M251.c:0:1
__arm_cp.2_0:
	.long	1073741884                      @ 0x4000003c
.Lcpi_end11:
	.size	__arm_cp.2_0, .Lcpi_end11-__arm_cp.2_0
.Lfunc_end2:
	.size	Uart0DefaultMPF, .Lfunc_end2-Uart0DefaultMPF
	.cfi_endproc
	.cantunwind
	.fnend
                                        @ -- End function
	.hidden	SystemCoreClock                 @ @SystemCoreClock
	.type	SystemCoreClock,%object
	.section	.data.SystemCoreClock,"aw",%progbits
	.globl	SystemCoreClock
	.p2align	2, 0x0
SystemCoreClock:
	.long	48000000                        @ 0x2dc6c00
	.size	SystemCoreClock, 4

	.hidden	CyclesPerUs                     @ @CyclesPerUs
	.type	CyclesPerUs,%object
	.section	.data.CyclesPerUs,"aw",%progbits
	.globl	CyclesPerUs
	.p2align	2, 0x0
CyclesPerUs:
	.long	48                              @ 0x30
	.size	CyclesPerUs, 4

	.hidden	PllClock                        @ @PllClock
	.type	PllClock,%object
	.section	.data.PllClock,"aw",%progbits
	.globl	PllClock
	.p2align	2, 0x0
PllClock:
	.long	48000000                        @ 0x2dc6c00
	.size	PllClock, 4

	.hidden	gau32ClkSrcTbl                  @ @gau32ClkSrcTbl
	.type	gau32ClkSrcTbl,%object
	.section	.rodata.gau32ClkSrcTbl,"a",%progbits
	.globl	gau32ClkSrcTbl
	.p2align	2, 0x0
gau32ClkSrcTbl:
	.long	12000000                        @ 0xb71b00
	.long	32768                           @ 0x8000
	.long	0                               @ 0x0
	.long	38400                           @ 0x9600
	.long	0                               @ 0x0
	.long	4032000                         @ 0x3d8600
	.long	0                               @ 0x0
	.long	48000000                        @ 0x2dc6c00
	.size	gau32ClkSrcTbl, 32

	.section	".note.GNU-stack","",%progbits
	.eabi_attribute	30, 6	@ Tag_ABI_optimization_goals
	.ARM_attribute	16, 1	@ Tag_AV_eba