	.text
	.syntax unified
	.eabi_attribute	67, "2.09"	@ Tag_conformance
	.cpu	cortex-m23
	.eabi_attribute	6, 16	@ Tag_CPU_arch
	.eabi_attribute	7, 77	@ Tag_CPU_arch_profile
	.eabi_attribute	8, 0	@ Tag_ARM_ISA_use
	.eabi_attribute	9, 3	@ Tag_THUMB_ISA_use
	.eabi_attribute	34, 0	@ Tag_CPU_unaligned_access
	.eabi_attribute	17, 1	@ Tag_ABI_PCS_GOT_use
	.eabi_attribute	20, 2	@ Tag_ABI_FP_denormal
	.eabi_attribute	21, 0	@ Tag_ABI_FP_exceptions
	.eabi_attribute	23, 1	@ Tag_ABI_FP_number_model
	.eabi_attribute	24, 1	@ Tag_ABI_align_needed
	.eabi_attribute	25, 1	@ Tag_ABI_align_preserved
	.eabi_attribute	38, 1	@ Tag_ABI_FP_16bit_format
	.eabi_attribute	18, 2	@ Tag_ABI_PCS_wchar_t
	.eabi_attribute	26, 1	@ Tag_ABI_enum_size
	.eabi_attribute	14, 0	@ Tag_ABI_PCS_R9_use
	.file	"timer_pwm.c"
	.file	1 "C:\\Keil_v5\\ARM\\ARMCLANG\\Bin\\..\\include" "stdint.h"
	.file	2 "E:\\ROBOCON2024\\01. Coding\\Nuvoton\\demo_robot_3wheel\\SampleCode\\NuCodeGen\\DemoCodeGen\\KEIL" "../../../../Library/Device/Nuvoton/M251/Include/timer_reg.h"
	.section	.text.TPWM_ConfigOutputFreqAndDuty,"ax",%progbits
	.hidden	TPWM_ConfigOutputFreqAndDuty    @ -- Begin function TPWM_ConfigOutputFreqAndDuty
	.globl	TPWM_ConfigOutputFreqAndDuty
	.p2align	2
	.type	TPWM_ConfigOutputFreqAndDuty,%function
	.code	16                              @ @TPWM_ConfigOutputFreqAndDuty
	.thumb_func
TPWM_ConfigOutputFreqAndDuty:
.Lfunc_begin0:
	.file	3 "E:\\ROBOCON2024\\01. Coding\\Nuvoton\\demo_robot_3wheel\\SampleCode\\NuCodeGen\\DemoCodeGen\\KEIL" "../../../../Library/StdDriver/src/timer_pwm.c"
	.loc	3 37 0                          @ ../../../../Library/StdDriver/src/timer_pwm.c:37:0
	.fnstart
	.cfi_sections .debug_frame
	.cfi_startproc
@ %bb.0:
	.save	{r7, lr}
	push	{r7, lr}
	.cfi_def_cfa_offset 8
	.cfi_offset lr, -4
	.cfi_offset r7, -8
	.pad	#32
	sub	sp, #32
	.cfi_def_cfa_offset 40
	str	r0, [sp, #28]
	str	r1, [sp, #24]
	str	r2, [sp, #20]
	movw	r0, #256
.Ltmp0:
	.loc	3 39 14 prologue_end            @ ../../../../Library/StdDriver/src/timer_pwm.c:39:14
	str	r0, [sp, #8]
.Ltmp1:
	.loc	3 41 10                         @ ../../../../Library/StdDriver/src/timer_pwm.c:41:10
	ldr	r0, [sp, #28]
	ldr	r1, __arm_cp.0_0
	.loc	3 41 27 is_stmt 0               @ ../../../../Library/StdDriver/src/timer_pwm.c:41:27
	cmp	r0, r1
	beq	.LBB0_2
	b	.LBB0_1
.LBB0_1:
	.loc	3 41 31                         @ ../../../../Library/StdDriver/src/timer_pwm.c:41:31
	ldr	r0, [sp, #28]
	ldr	r1, __arm_cp.0_1
.Ltmp2:
	.loc	3 41 9                          @ ../../../../Library/StdDriver/src/timer_pwm.c:41:9
	cmp	r0, r1
	bne	.LBB0_3
	b	.LBB0_2
.LBB0_2:
.Ltmp3:
	.loc	3 43 27 is_stmt 1               @ ../../../../Library/StdDriver/src/timer_pwm.c:43:27
	bl	CLK_GetPCLK0Freq
	.loc	3 43 25 is_stmt 0               @ ../../../../Library/StdDriver/src/timer_pwm.c:43:25
	str	r0, [sp, #16]
	.loc	3 44 5 is_stmt 1                @ ../../../../Library/StdDriver/src/timer_pwm.c:44:5
	b	.LBB0_4
.Ltmp4:
.LBB0_3:
	.loc	3 47 27                         @ ../../../../Library/StdDriver/src/timer_pwm.c:47:27
	bl	CLK_GetPCLK1Freq
	.loc	3 47 25 is_stmt 0               @ ../../../../Library/StdDriver/src/timer_pwm.c:47:25
	str	r0, [sp, #16]
	b	.LBB0_4
.Ltmp5:
.LBB0_4:
	.loc	3 0 25                          @ ../../../../Library/StdDriver/src/timer_pwm.c:0:25
	movs	r0, #1
.Ltmp6:
	.loc	3 51 23 is_stmt 1               @ ../../../../Library/StdDriver/src/timer_pwm.c:51:23
	str	r0, [sp, #8]
	.loc	3 51 10 is_stmt 0               @ ../../../../Library/StdDriver/src/timer_pwm.c:51:10
	b	.LBB0_5
.LBB0_5:                                @ =>This Inner Loop Header: Depth=1
.Ltmp7:
	.loc	3 51 28                         @ ../../../../Library/StdDriver/src/timer_pwm.c:51:28
	ldr	r0, [sp, #8]
	movw	r1, #256
.Ltmp8:
	.loc	3 51 5                          @ ../../../../Library/StdDriver/src/timer_pwm.c:51:5
	cmp	r0, r1
	bhi	.LBB0_10
	b	.LBB0_6
.LBB0_6:                                @   in Loop: Header=BB0_5 Depth=1
.Ltmp9:
	.loc	3 53 22 is_stmt 1               @ ../../../../Library/StdDriver/src/timer_pwm.c:53:22
	ldr	r0, [sp, #16]
	.loc	3 53 40 is_stmt 0               @ ../../../../Library/StdDriver/src/timer_pwm.c:53:40
	ldr	r1, [sp, #8]
	.loc	3 53 38                         @ ../../../../Library/StdDriver/src/timer_pwm.c:53:38
	udiv	r0, r0, r1
	.loc	3 53 56                         @ ../../../../Library/StdDriver/src/timer_pwm.c:53:56
	ldr	r1, [sp, #24]
	.loc	3 53 54                         @ ../../../../Library/StdDriver/src/timer_pwm.c:53:54
	udiv	r0, r0, r1
	.loc	3 53 19                         @ ../../../../Library/StdDriver/src/timer_pwm.c:53:19
	str	r0, [sp, #4]
.Ltmp10:
	.loc	3 56 13 is_stmt 1               @ ../../../../Library/StdDriver/src/timer_pwm.c:56:13
	ldr	r0, [sp, #4]
	ldr	r1, __arm_cp.0_2
.Ltmp11:
	.loc	3 56 13 is_stmt 0               @ ../../../../Library/StdDriver/src/timer_pwm.c:56:13
	cmp	r0, r1
	blo	.LBB0_8
	b	.LBB0_7
.LBB0_7:                                @   in Loop: Header=BB0_5 Depth=1
.Ltmp12:
	.loc	3 57 13 is_stmt 1               @ ../../../../Library/StdDriver/src/timer_pwm.c:57:13
	b	.LBB0_9
.Ltmp13:
.LBB0_8:
	.loc	3 59 9                          @ ../../../../Library/StdDriver/src/timer_pwm.c:59:9
	b	.LBB0_10
.Ltmp14:
.LBB0_9:                                @   in Loop: Header=BB0_5 Depth=1
	.loc	3 51 65                         @ ../../../../Library/StdDriver/src/timer_pwm.c:51:65
	ldr	r0, [sp, #8]
	adds	r0, r0, #1
	str	r0, [sp, #8]
	.loc	3 51 5 is_stmt 0                @ ../../../../Library/StdDriver/src/timer_pwm.c:51:5
	b	.LBB0_5
.Ltmp15:
.LBB0_10:
	.loc	3 62 9 is_stmt 1                @ ../../../../Library/StdDriver/src/timer_pwm.c:62:9
	ldr	r0, [sp, #8]
	movw	r1, #257
.Ltmp16:
	.loc	3 62 9 is_stmt 0                @ ../../../../Library/StdDriver/src/timer_pwm.c:62:9
	cmp	r0, r1
	bne	.LBB0_12
	b	.LBB0_11
.LBB0_11:
	.loc	3 0 9                           @ ../../../../Library/StdDriver/src/timer_pwm.c:0:9
	movw	r0, #256
.Ltmp17:
	.loc	3 64 22 is_stmt 1               @ ../../../../Library/StdDriver/src/timer_pwm.c:64:22
	str	r0, [sp, #8]
	movs	r0, #1
	lsls	r0, r0, #16
	.loc	3 65 19                         @ ../../../../Library/StdDriver/src/timer_pwm.c:65:19
	str	r0, [sp, #4]
	.loc	3 66 5                          @ ../../../../Library/StdDriver/src/timer_pwm.c:66:5
	b	.LBB0_12
.Ltmp18:
.LBB0_12:
	.loc	3 69 22                         @ ../../../../Library/StdDriver/src/timer_pwm.c:69:22
	ldr	r0, [sp, #16]
	.loc	3 69 40 is_stmt 0               @ ../../../../Library/StdDriver/src/timer_pwm.c:69:40
	ldr	r1, [sp, #8]
	.loc	3 69 38                         @ ../../../../Library/StdDriver/src/timer_pwm.c:69:38
	udiv	r0, r0, r1
	.loc	3 69 56                         @ ../../../../Library/StdDriver/src/timer_pwm.c:69:56
	ldr	r1, [sp, #4]
	.loc	3 69 54                         @ ../../../../Library/StdDriver/src/timer_pwm.c:69:54
	udiv	r0, r0, r1
	.loc	3 69 19                         @ ../../../../Library/StdDriver/src/timer_pwm.c:69:19
	str	r0, [sp, #12]
	.loc	3 72 22 is_stmt 1               @ ../../../../Library/StdDriver/src/timer_pwm.c:72:22
	ldr	r0, [sp, #28]
	.loc	3 72 29 is_stmt 0               @ ../../../../Library/StdDriver/src/timer_pwm.c:72:29
	ldr	r0, [r0, #64]
	movs	r1, #8
	.loc	3 72 36                         @ ../../../../Library/StdDriver/src/timer_pwm.c:72:36
	bics	r0, r1
	.loc	3 72 5                          @ ../../../../Library/StdDriver/src/timer_pwm.c:72:5
	ldr	r1, [sp, #28]
	.loc	3 72 19                         @ ../../../../Library/StdDriver/src/timer_pwm.c:72:19
	str	r0, [r1, #64]
	.loc	3 75 5 is_stmt 1                @ ../../../../Library/StdDriver/src/timer_pwm.c:75:5
	ldr	r0, [sp, #8]
	subs	r0, r0, #1
	ldr	r1, [sp, #28]
	str	r0, [r1, #68]
	.loc	3 77 5                          @ ../../../../Library/StdDriver/src/timer_pwm.c:77:5
	ldr	r0, [sp, #4]
	subs	r0, r0, #1
	ldr	r1, [sp, #28]
	str	r0, [r1, #76]
.Ltmp19:
	.loc	3 79 9                          @ ../../../../Library/StdDriver/src/timer_pwm.c:79:9
	ldr	r0, [sp, #20]
.Ltmp20:
	.loc	3 79 9 is_stmt 0                @ ../../../../Library/StdDriver/src/timer_pwm.c:79:9
	cbz	r0, .LBB0_14
	b	.LBB0_13
.LBB0_13:
.Ltmp21:
	.loc	3 81 19 is_stmt 1               @ ../../../../Library/StdDriver/src/timer_pwm.c:81:19
	ldr	r1, [sp, #20]
	.loc	3 81 34 is_stmt 0               @ ../../../../Library/StdDriver/src/timer_pwm.c:81:34
	ldr	r0, [sp, #4]
	.loc	3 81 32                         @ ../../../../Library/StdDriver/src/timer_pwm.c:81:32
	muls	r0, r1, r0
	movs	r1, #100
	.loc	3 81 45                         @ ../../../../Library/StdDriver/src/timer_pwm.c:81:45
	udiv	r0, r0, r1
	.loc	3 81 16                         @ ../../../../Library/StdDriver/src/timer_pwm.c:81:16
	str	r0, [sp]
	.loc	3 82 5 is_stmt 1                @ ../../../../Library/StdDriver/src/timer_pwm.c:82:5
	b	.LBB0_15
.Ltmp22:
.LBB0_14:
	.loc	3 0 5 is_stmt 0                 @ ../../../../Library/StdDriver/src/timer_pwm.c:0:5
	movs	r0, #0
.Ltmp23:
	.loc	3 85 16 is_stmt 1               @ ../../../../Library/StdDriver/src/timer_pwm.c:85:16
	str	r0, [sp]
	b	.LBB0_15
.Ltmp24:
.LBB0_15:
	.loc	3 88 5                          @ ../../../../Library/StdDriver/src/timer_pwm.c:88:5
	ldr	r0, [sp]
	ldr	r1, [sp, #28]
	str	r0, [r1, #80]
	.loc	3 89 13                         @ ../../../../Library/StdDriver/src/timer_pwm.c:89:13
	ldr	r0, [sp, #12]
	.loc	3 89 5 is_stmt 0                @ ../../../../Library/StdDriver/src/timer_pwm.c:89:5
	add	sp, #32
	pop	{r7, pc}
.Ltmp25:
	.p2align	2
@ %bb.16:
	.loc	3 0 5                           @ ../../../../Library/StdDriver/src/timer_pwm.c:0:5
__arm_cp.0_0:
	.long	1074069504                      @ 0x40050000
.Lcpi_end0:
	.size	__arm_cp.0_0, .Lcpi_end0-__arm_cp.0_0
__arm_cp.0_1:
	.long	1074069760                      @ 0x40050100
.Lcpi_end1:
	.size	__arm_cp.0_1, .Lcpi_end1-__arm_cp.0_1
__arm_cp.0_2:
	.long	65537                           @ 0x10001
.Lcpi_end2:
	.size	__arm_cp.0_2, .Lcpi_end2-__arm_cp.0_2
.Lfunc_end0:
	.size	TPWM_ConfigOutputFreqAndDuty, .Lfunc_end0-TPWM_ConfigOutputFreqAndDuty
	.cfi_endproc
	.cantunwind
	.fnend
                                        @ -- End function
	.section	.text.TPWM_EnableCounter,"ax",%progbits
	.hidden	TPWM_EnableCounter              @ -- Begin function TPWM_EnableCounter
	.globl	TPWM_EnableCounter
	.p2align	1
	.type	TPWM_EnableCounter,%function
	.code	16                              @ @TPWM_EnableCounter
	.thumb_func
TPWM_EnableCounter:
.Lfunc_begin1:
	.loc	3 101 0 is_stmt 1               @ ../../../../Library/StdDriver/src/timer_pwm.c:101:0
	.fnstart
	.cfi_startproc
@ %bb.0:
	.pad	#4
	sub	sp, #4
	.cfi_def_cfa_offset 4
	str	r0, [sp]
.Ltmp26:
	.loc	3 102 5 prologue_end            @ ../../../../Library/StdDriver/src/timer_pwm.c:102:5
	ldr	r1, [sp]
	.loc	3 102 19 is_stmt 0              @ ../../../../Library/StdDriver/src/timer_pwm.c:102:19
	ldr	r0, [r1, #64]
	movs	r2, #1
	orrs	r0, r2
	str	r0, [r1, #64]
	.loc	3 103 1 is_stmt 1               @ ../../../../Library/StdDriver/src/timer_pwm.c:103:1
	add	sp, #4
	bx	lr
.Ltmp27:
.Lfunc_end1:
	.size	TPWM_EnableCounter, .Lfunc_end1-TPWM_EnableCounter
	.cfi_endproc
	.cantunwind
	.fnend
                                        @ -- End function
	.section	.text.TPWM_DisableCounter,"ax",%progbits
	.hidden	TPWM_DisableCounter             @ -- Begin function TPWM_DisableCounter
	.globl	TPWM_DisableCounter
	.p2align	1
	.type	TPWM_DisableCounter,%function
	.code	16                              @ @TPWM_DisableCounter
	.thumb_func
TPWM_DisableCounter:
.Lfunc_begin2:
	.loc	3 114 0                         @ ../../../../Library/StdDriver/src/timer_pwm.c:114:0
	.fnstart
	.cfi_startproc
@ %bb.0:
	.pad	#4
	sub	sp, #4
	.cfi_def_cfa_offset 4
	str	r0, [sp]
.Ltmp28:
	.loc	3 115 5 prologue_end            @ ../../../../Library/StdDriver/src/timer_pwm.c:115:5
	ldr	r1, [sp]
	.loc	3 115 19 is_stmt 0              @ ../../../../Library/StdDriver/src/timer_pwm.c:115:19
	ldr	r0, [r1, #64]
	movs	r2, #1
	bics	r0, r2
	str	r0, [r1, #64]
	.loc	3 116 1 is_stmt 1               @ ../../../../Library/StdDriver/src/timer_pwm.c:116:1
	add	sp, #4
	bx	lr
.Ltmp29:
.Lfunc_end2:
	.size	TPWM_DisableCounter, .Lfunc_end2-TPWM_DisableCounter
	.cfi_endproc
	.cantunwind
	.fnend
                                        @ -- End function
	.section	.text.TPWM_EnableTrigger,"ax",%progbits
	.hidden	TPWM_EnableTrigger              @ -- Begin function TPWM_EnableTrigger
	.globl	TPWM_EnableTrigger
	.p2align	2
	.type	TPWM_EnableTrigger,%function
	.code	16                              @ @TPWM_EnableTrigger
	.thumb_func
TPWM_EnableTrigger:
.Lfunc_begin3:
	.loc	3 134 0                         @ ../../../../Library/StdDriver/src/timer_pwm.c:134:0
	.fnstart
	.cfi_startproc
@ %bb.0:
	.pad	#12
	sub	sp, #12
	.cfi_def_cfa_offset 12
	str	r0, [sp, #8]
	str	r1, [sp, #4]
	str	r2, [sp]
.Ltmp30:
	.loc	3 135 5 prologue_end            @ ../../../../Library/StdDriver/src/timer_pwm.c:135:5
	ldr	r1, [sp, #8]
	.loc	3 135 22 is_stmt 0              @ ../../../../Library/StdDriver/src/timer_pwm.c:135:22
	ldr	r0, [r1, #104]
	ldr	r2, __arm_cp.3_0
	ands	r0, r2
	str	r0, [r1, #104]
	.loc	3 136 26 is_stmt 1              @ ../../../../Library/StdDriver/src/timer_pwm.c:136:26
	ldr	r2, [sp, #4]
	.loc	3 136 44 is_stmt 0              @ ../../../../Library/StdDriver/src/timer_pwm.c:136:44
	ldr	r0, [sp]
	.loc	3 136 41                        @ ../../../../Library/StdDriver/src/timer_pwm.c:136:41
	orrs	r2, r0
	.loc	3 136 5                         @ ../../../../Library/StdDriver/src/timer_pwm.c:136:5
	ldr	r1, [sp, #8]
	.loc	3 136 22                        @ ../../../../Library/StdDriver/src/timer_pwm.c:136:22
	ldr	r0, [r1, #104]
	orrs	r0, r2
	str	r0, [r1, #104]
	.loc	3 137 1 is_stmt 1               @ ../../../../Library/StdDriver/src/timer_pwm.c:137:1
	add	sp, #12
	bx	lr
.Ltmp31:
	.p2align	2
@ %bb.1:
	.loc	3 0 1 is_stmt 0                 @ ../../../../Library/StdDriver/src/timer_pwm.c:0:1
__arm_cp.3_0:
	.long	4294966396                      @ 0xfffffc7c
.Lcpi_end3:
	.size	__arm_cp.3_0, .Lcpi_end3-__arm_cp.3_0
.Lfunc_end3:
	.size	TPWM_EnableTrigger, .Lfunc_end3-TPWM_EnableTrigger
	.cfi_endproc
	.cantunwind
	.fnend
                                        @ -- End function
	.section	.text.TPWM_DisableTrigger,"ax",%progbits
	.hidden	TPWM_DisableTrigger             @ -- Begin function TPWM_DisableTrigger
	.globl	TPWM_DisableTrigger
	.p2align	1
	.type	TPWM_DisableTrigger,%function
	.code	16                              @ @TPWM_DisableTrigger
	.thumb_func
TPWM_DisableTrigger:
.Lfunc_begin4:
	.loc	3 152 0 is_stmt 1               @ ../../../../Library/StdDriver/src/timer_pwm.c:152:0
	.fnstart
	.cfi_startproc
@ %bb.0:
	.pad	#8
	sub	sp, #8
	.cfi_def_cfa_offset 8
	str	r0, [sp, #4]
	str	r1, [sp]
.Ltmp32:
	.loc	3 153 27 prologue_end           @ ../../../../Library/StdDriver/src/timer_pwm.c:153:27
	ldr	r2, [sp]
	.loc	3 153 5 is_stmt 0               @ ../../../../Library/StdDriver/src/timer_pwm.c:153:5
	ldr	r1, [sp, #4]
	.loc	3 153 22                        @ ../../../../Library/StdDriver/src/timer_pwm.c:153:22
	ldr	r0, [r1, #104]
	bics	r0, r2
	str	r0, [r1, #104]
	.loc	3 154 1 is_stmt 1               @ ../../../../Library/StdDriver/src/timer_pwm.c:154:1
	add	sp, #8
	bx	lr
.Ltmp33:
.Lfunc_end4:
	.size	TPWM_DisableTrigger, .Lfunc_end4-TPWM_DisableTrigger
	.cfi_endproc
	.cantunwind
	.fnend
                                        @ -- End function
	.section	".note.GNU-stack","",%progbits
	.eabi_attribute	30, 6	@ Tag_ABI_optimization_goals
	.ARM_attribute	16, 1	@ Tag_AV_eba