	.text
	.syntax unified
	.eabi_attribute	67, "2.09"	@ Tag_conformance
	.cpu	cortex-m23
	.eabi_attribute	6, 16	@ Tag_CPU_arch
	.eabi_attribute	7, 77	@ Tag_CPU_arch_profile
	.eabi_attribute	8, 0	@ Tag_ARM_ISA_use
	.eabi_attribute	9, 3	@ Tag_THUMB_ISA_use
	.eabi_attribute	34, 0	@ Tag_CPU_unaligned_access
	.eabi_attribute	17, 1	@ Tag_ABI_PCS_GOT_use
	.eabi_attribute	20, 2	@ Tag_ABI_FP_denormal
	.eabi_attribute	21, 0	@ Tag_ABI_FP_exceptions
	.eabi_attribute	23, 1	@ Tag_ABI_FP_number_model
	.eabi_attribute	24, 1	@ Tag_ABI_align_needed
	.eabi_attribute	25, 1	@ Tag_ABI_align_preserved
	.eabi_attribute	38, 1	@ Tag_ABI_FP_16bit_format
	.eabi_attribute	18, 2	@ Tag_ABI_PCS_wchar_t
	.eabi_attribute	26, 1	@ Tag_ABI_enum_size
	.eabi_attribute	14, 0	@ Tag_ABI_PCS_R9_use
	.file	"timer.c"
	.file	1 "C:\\Keil_v5\\ARM\\ARMCLANG\\Bin\\..\\include" "stdint.h"
	.file	2 "E:\\ROBOCON2024\\01. Coding\\Nuvoton\\demo_robot_3wheel\\SampleCode\\NuCodeGen\\DemoCodeGen\\KEIL" "../../../../Library/Device/Nuvoton/M251/Include/timer_reg.h"
	.file	3 "E:\\ROBOCON2024\\01. Coding\\Nuvoton\\demo_robot_3wheel\\SampleCode\\NuCodeGen\\DemoCodeGen\\KEIL" "../../../../Library/Device/Nuvoton/M251/Include/clk_reg.h"
	.section	.text.TIMER_Open,"ax",%progbits
	.hidden	TIMER_Open                      @ -- Begin function TIMER_Open
	.globl	TIMER_Open
	.p2align	1
	.type	TIMER_Open,%function
	.code	16                              @ @TIMER_Open
	.thumb_func
TIMER_Open:
.Lfunc_begin0:
	.file	4 "E:\\ROBOCON2024\\01. Coding\\Nuvoton\\demo_robot_3wheel\\SampleCode\\NuCodeGen\\DemoCodeGen\\KEIL" "../../../../Library/StdDriver/src/timer.c"
	.loc	4 43 0                          @ ../../../../Library/StdDriver/src/timer.c:43:0
	.fnstart
	.cfi_sections .debug_frame
	.cfi_startproc
@ %bb.0:
	.save	{r7, lr}
	push	{r7, lr}
	.cfi_def_cfa_offset 8
	.cfi_offset lr, -4
	.cfi_offset r7, -8
	.pad	#24
	sub	sp, #24
	.cfi_def_cfa_offset 32
	str	r0, [sp, #20]
	str	r1, [sp, #16]
	str	r2, [sp, #12]
.Ltmp0:
	.loc	4 44 44 prologue_end            @ ../../../../Library/StdDriver/src/timer.c:44:44
	ldr	r0, [sp, #20]
	.loc	4 44 23 is_stmt 0               @ ../../../../Library/StdDriver/src/timer.c:44:23
	bl	TIMER_GetModuleClock
	.loc	4 44 14                         @ ../../../../Library/StdDriver/src/timer.c:44:14
	str	r0, [sp, #8]
	movs	r0, #0
	.loc	4 45 14 is_stmt 1               @ ../../../../Library/StdDriver/src/timer.c:45:14
	str	r0, [sp, #4]
	.loc	4 45 29 is_stmt 0               @ ../../../../Library/StdDriver/src/timer.c:45:29
	str	r0, [sp]
.Ltmp1:
	.loc	4 48 9 is_stmt 1                @ ../../../../Library/StdDriver/src/timer.c:48:9
	ldr	r0, [sp, #12]
	.loc	4 48 20 is_stmt 0               @ ../../../../Library/StdDriver/src/timer.c:48:20
	ldr	r1, [sp, #8]
	.loc	4 48 27                         @ ../../../../Library/StdDriver/src/timer.c:48:27
	lsrs	r1, r1, #1
.Ltmp2:
	.loc	4 48 9                          @ ../../../../Library/StdDriver/src/timer.c:48:9
	cmp	r0, r1
	bls	.LBB0_2
	b	.LBB0_1
.LBB0_1:
	.loc	4 0 9                           @ ../../../../Library/StdDriver/src/timer.c:0:9
	movs	r0, #2
.Ltmp3:
	.loc	4 50 17 is_stmt 1               @ ../../../../Library/StdDriver/src/timer.c:50:17
	str	r0, [sp, #4]
	.loc	4 51 5                          @ ../../../../Library/StdDriver/src/timer.c:51:5
	b	.LBB0_5
.Ltmp4:
.LBB0_2:
	.loc	4 54 19                         @ ../../../../Library/StdDriver/src/timer.c:54:19
	ldr	r0, [sp, #8]
	.loc	4 54 28 is_stmt 0               @ ../../../../Library/StdDriver/src/timer.c:54:28
	ldr	r1, [sp, #12]
	.loc	4 54 26                         @ ../../../../Library/StdDriver/src/timer.c:54:26
	udiv	r0, r0, r1
	.loc	4 54 17                         @ ../../../../Library/StdDriver/src/timer.c:54:17
	str	r0, [sp, #4]
	add	r0, sp, #4
	.loc	4 55 24 is_stmt 1               @ ../../../../Library/StdDriver/src/timer.c:55:24
	ldrb	r0, [r0, #3]
	.loc	4 55 21 is_stmt 0               @ ../../../../Library/StdDriver/src/timer.c:55:21
	str	r0, [sp]
.Ltmp5:
	.loc	4 57 13 is_stmt 1               @ ../../../../Library/StdDriver/src/timer.c:57:13
	ldr	r0, [sp]
.Ltmp6:
	.loc	4 57 13 is_stmt 0               @ ../../../../Library/StdDriver/src/timer.c:57:13
	cbz	r0, .LBB0_4
	b	.LBB0_3
.LBB0_3:
.Ltmp7:
	.loc	4 58 23 is_stmt 1               @ ../../../../Library/StdDriver/src/timer.c:58:23
	ldr	r0, [sp, #4]
	.loc	4 58 34 is_stmt 0               @ ../../../../Library/StdDriver/src/timer.c:58:34
	ldr	r1, [sp]
	.loc	4 58 46                         @ ../../../../Library/StdDriver/src/timer.c:58:46
	adds	r1, r1, #1
	.loc	4 58 31                         @ ../../../../Library/StdDriver/src/timer.c:58:31
	udiv	r0, r0, r1
	.loc	4 58 21                         @ ../../../../Library/StdDriver/src/timer.c:58:21
	str	r0, [sp, #4]
	.loc	4 58 13                         @ ../../../../Library/StdDriver/src/timer.c:58:13
	b	.LBB0_4
.Ltmp8:
.LBB0_4:
	.loc	4 0 13                          @ ../../../../Library/StdDriver/src/timer.c:0:13
	b	.LBB0_5
.LBB0_5:
	.loc	4 61 18 is_stmt 1               @ ../../../../Library/StdDriver/src/timer.c:61:18
	ldr	r0, [sp, #16]
	.loc	4 61 28 is_stmt 0               @ ../../../../Library/StdDriver/src/timer.c:61:28
	ldr	r1, [sp]
	.loc	4 61 26                         @ ../../../../Library/StdDriver/src/timer.c:61:26
	orrs	r0, r1
	.loc	4 61 5                          @ ../../../../Library/StdDriver/src/timer.c:61:5
	ldr	r1, [sp, #20]
	.loc	4 61 16                         @ ../../../../Library/StdDriver/src/timer.c:61:16
	str	r0, [r1]
	.loc	4 62 18 is_stmt 1               @ ../../../../Library/StdDriver/src/timer.c:62:18
	ldr	r0, [sp, #4]
	.loc	4 62 5 is_stmt 0                @ ../../../../Library/StdDriver/src/timer.c:62:5
	ldr	r1, [sp, #20]
	.loc	4 62 16                         @ ../../../../Library/StdDriver/src/timer.c:62:16
	str	r0, [r1, #4]
	.loc	4 64 13 is_stmt 1               @ ../../../../Library/StdDriver/src/timer.c:64:13
	ldr	r0, [sp, #8]
	.loc	4 64 23 is_stmt 0               @ ../../../../Library/StdDriver/src/timer.c:64:23
	ldr	r2, [sp, #4]
	.loc	4 64 34                         @ ../../../../Library/StdDriver/src/timer.c:64:34
	ldr	r1, [sp]
	.loc	4 64 46                         @ ../../../../Library/StdDriver/src/timer.c:64:46
	adds	r1, r1, #1
	.loc	4 64 31                         @ ../../../../Library/StdDriver/src/timer.c:64:31
	muls	r1, r2, r1
	.loc	4 64 20                         @ ../../../../Library/StdDriver/src/timer.c:64:20
	udiv	r0, r0, r1
	.loc	4 64 5                          @ ../../../../Library/StdDriver/src/timer.c:64:5
	add	sp, #24
	pop	{r7, pc}
.Ltmp9:
.Lfunc_end0:
	.size	TIMER_Open, .Lfunc_end0-TIMER_Open
	.cfi_endproc
	.cantunwind
	.fnend
                                        @ -- End function
	.section	.text.TIMER_GetModuleClock,"ax",%progbits
	.hidden	TIMER_GetModuleClock            @ -- Begin function TIMER_GetModuleClock
	.globl	TIMER_GetModuleClock
	.p2align	2
	.type	TIMER_GetModuleClock,%function
	.code	16                              @ @TIMER_GetModuleClock
	.thumb_func
TIMER_GetModuleClock:
.Lfunc_begin1:
	.loc	4 381 0 is_stmt 1               @ ../../../../Library/StdDriver/src/timer.c:381:0
	.fnstart
	.cfi_startproc
@ %bb.0:
	.save	{r4, r5, r7, lr}
	push	{r4, r5, r7, lr}
	.cfi_def_cfa_offset 16
	.cfi_offset lr, -4
	.cfi_offset r7, -8
	.cfi_offset r5, -12
	.cfi_offset r4, -16
	.pad	#48
	sub	sp, #48
	.cfi_def_cfa_offset 64
	str	r0, [sp, #40]
.Ltmp10:
	.loc	4 383 20 prologue_end           @ ../../../../Library/StdDriver/src/timer.c:383:20
	ldr	r1, __arm_cp.1_0
	add	r0, sp, #4
	ldm	r1!, {r2, r3, r4, r5}
	stm	r0!, {r2, r3, r4, r5}
	ldm	r1!, {r2, r3, r4, r5}
	stm	r0!, {r2, r3, r4, r5}
.Ltmp11:
	.loc	4 385 9                         @ ../../../../Library/StdDriver/src/timer.c:385:9
	ldr	r0, [sp, #40]
	ldr	r1, __arm_cp.1_1
.Ltmp12:
	.loc	4 385 9 is_stmt 0               @ ../../../../Library/StdDriver/src/timer.c:385:9
	cmp	r0, r1
	bne	.LBB1_2
	b	.LBB1_1
.LBB1_1:
	.loc	4 0 9                           @ ../../../../Library/StdDriver/src/timer.c:0:9
	ldr	r0, __arm_cp.1_4
.Ltmp13:
	.loc	4 386 24 is_stmt 1              @ ../../../../Library/StdDriver/src/timer.c:386:24
	ldr	r0, [r0]
	movw	r1, #1792
	.loc	4 386 32 is_stmt 0              @ ../../../../Library/StdDriver/src/timer.c:386:32
	ands	r0, r1
	.loc	4 386 59                        @ ../../../../Library/StdDriver/src/timer.c:386:59
	lsrs	r0, r0, #8
	.loc	4 386 16                        @ ../../../../Library/StdDriver/src/timer.c:386:16
	str	r0, [sp, #36]
	.loc	4 386 9                         @ ../../../../Library/StdDriver/src/timer.c:386:9
	b	.LBB1_9
.LBB1_2:
.Ltmp14:
	.loc	4 387 14 is_stmt 1              @ ../../../../Library/StdDriver/src/timer.c:387:14
	ldr	r0, [sp, #40]
	ldr	r1, __arm_cp.1_2
.Ltmp15:
	.loc	4 387 14 is_stmt 0              @ ../../../../Library/StdDriver/src/timer.c:387:14
	cmp	r0, r1
	bne	.LBB1_4
	b	.LBB1_3
.LBB1_3:
	.loc	4 0 14                          @ ../../../../Library/StdDriver/src/timer.c:0:14
	ldr	r0, __arm_cp.1_4
.Ltmp16:
	.loc	4 388 24 is_stmt 1              @ ../../../../Library/StdDriver/src/timer.c:388:24
	ldr	r0, [r0]
	movw	r1, #28672
	.loc	4 388 32 is_stmt 0              @ ../../../../Library/StdDriver/src/timer.c:388:32
	ands	r0, r1
	.loc	4 388 59                        @ ../../../../Library/StdDriver/src/timer.c:388:59
	lsrs	r0, r0, #12
	.loc	4 388 16                        @ ../../../../Library/StdDriver/src/timer.c:388:16
	str	r0, [sp, #36]
	.loc	4 388 9                         @ ../../../../Library/StdDriver/src/timer.c:388:9
	b	.LBB1_8
.LBB1_4:
.Ltmp17:
	.loc	4 389 14 is_stmt 1              @ ../../../../Library/StdDriver/src/timer.c:389:14
	ldr	r0, [sp, #40]
	ldr	r1, __arm_cp.1_3
.Ltmp18:
	.loc	4 389 14 is_stmt 0              @ ../../../../Library/StdDriver/src/timer.c:389:14
	cmp	r0, r1
	bne	.LBB1_6
	b	.LBB1_5
.LBB1_5:
	.loc	4 0 14                          @ ../../../../Library/StdDriver/src/timer.c:0:14
	ldr	r0, __arm_cp.1_4
.Ltmp19:
	.loc	4 390 24 is_stmt 1              @ ../../../../Library/StdDriver/src/timer.c:390:24
	ldr	r0, [r0]
	movs	r1, #7
	lsls	r1, r1, #16
	.loc	4 390 32 is_stmt 0              @ ../../../../Library/StdDriver/src/timer.c:390:32
	ands	r0, r1
	.loc	4 390 59                        @ ../../../../Library/StdDriver/src/timer.c:390:59
	lsrs	r0, r0, #16
	.loc	4 390 16                        @ ../../../../Library/StdDriver/src/timer.c:390:16
	str	r0, [sp, #36]
	.loc	4 390 9                         @ ../../../../Library/StdDriver/src/timer.c:390:9
	b	.LBB1_7
.LBB1_6:
	.loc	4 0 9                           @ ../../../../Library/StdDriver/src/timer.c:0:9
	ldr	r0, __arm_cp.1_4
	.loc	4 392 24 is_stmt 1              @ ../../../../Library/StdDriver/src/timer.c:392:24
	ldr	r0, [r0]
	movs	r1, #7
	lsls	r1, r1, #20
	.loc	4 392 32 is_stmt 0              @ ../../../../Library/StdDriver/src/timer.c:392:32
	ands	r0, r1
	.loc	4 392 59                        @ ../../../../Library/StdDriver/src/timer.c:392:59
	lsrs	r0, r0, #20
	.loc	4 392 16                        @ ../../../../Library/StdDriver/src/timer.c:392:16
	str	r0, [sp, #36]
	b	.LBB1_7
.Ltmp20:
.LBB1_7:
	.loc	4 0 16                          @ ../../../../Library/StdDriver/src/timer.c:0:16
	b	.LBB1_8
.LBB1_8:
	b	.LBB1_9
.LBB1_9:
.Ltmp21:
	.loc	4 394 9 is_stmt 1               @ ../../../../Library/StdDriver/src/timer.c:394:9
	ldr	r0, [sp, #36]
.Ltmp22:
	.loc	4 394 9 is_stmt 0               @ ../../../../Library/StdDriver/src/timer.c:394:9
	cmp	r0, #2
	bne	.LBB1_14
	b	.LBB1_10
.LBB1_10:
.Ltmp23:
	.loc	4 396 14 is_stmt 1              @ ../../../../Library/StdDriver/src/timer.c:396:14
	ldr	r0, [sp, #40]
	ldr	r1, __arm_cp.1_1
	.loc	4 396 31 is_stmt 0              @ ../../../../Library/StdDriver/src/timer.c:396:31
	cmp	r0, r1
	beq	.LBB1_12
	b	.LBB1_11
.LBB1_11:
	.loc	4 396 35                        @ ../../../../Library/StdDriver/src/timer.c:396:35
	ldr	r0, [sp, #40]
	ldr	r1, __arm_cp.1_2
.Ltmp24:
	.loc	4 396 13                        @ ../../../../Library/StdDriver/src/timer.c:396:13
	cmp	r0, r1
	bne	.LBB1_13
	b	.LBB1_12
.LBB1_12:
.Ltmp25:
	.loc	4 398 21 is_stmt 1              @ ../../../../Library/StdDriver/src/timer.c:398:21
	bl	CLK_GetPCLK0Freq
	.loc	4 398 13 is_stmt 0              @ ../../../../Library/StdDriver/src/timer.c:398:13
	str	r0, [sp, #44]
	b	.LBB1_15
.Ltmp26:
.LBB1_13:
	.loc	4 402 21 is_stmt 1              @ ../../../../Library/StdDriver/src/timer.c:402:21
	bl	CLK_GetPCLK1Freq
	.loc	4 402 13 is_stmt 0              @ ../../../../Library/StdDriver/src/timer.c:402:13
	str	r0, [sp, #44]
	b	.LBB1_15
.Ltmp27:
.LBB1_14:
	.loc	4 406 21 is_stmt 1              @ ../../../../Library/StdDriver/src/timer.c:406:21
	ldr	r0, [sp, #36]
	.loc	4 406 13 is_stmt 0              @ ../../../../Library/StdDriver/src/timer.c:406:13
	lsls	r1, r0, #2
	add	r0, sp, #4
	ldr	r0, [r0, r1]
	.loc	4 406 5                         @ ../../../../Library/StdDriver/src/timer.c:406:5
	str	r0, [sp, #44]
	b	.LBB1_15
.LBB1_15:
	.loc	4 407 1 is_stmt 1               @ ../../../../Library/StdDriver/src/timer.c:407:1
	ldr	r0, [sp, #44]
	add	sp, #48
	pop	{r4, r5, r7, pc}
.Ltmp28:
	.p2align	2
@ %bb.16:
	.loc	4 0 1 is_stmt 0                 @ ../../../../Library/StdDriver/src/timer.c:0:1
__arm_cp.1_0:
	.long	.L__const.TIMER_GetModuleClock.au32Clk
.Lcpi_end0:
	.size	__arm_cp.1_0, .Lcpi_end0-__arm_cp.1_0
__arm_cp.1_1:
	.long	1074069504                      @ 0x40050000
.Lcpi_end1:
	.size	__arm_cp.1_1, .Lcpi_end1-__arm_cp.1_1
__arm_cp.1_2:
	.long	1074069760                      @ 0x40050100
.Lcpi_end2:
	.size	__arm_cp.1_2, .Lcpi_end2-__arm_cp.1_2
__arm_cp.1_3:
	.long	1074073600                      @ 0x40051000
.Lcpi_end3:
	.size	__arm_cp.1_3, .Lcpi_end3-__arm_cp.1_3
__arm_cp.1_4:
	.long	1073742356                      @ 0x40000214
.Lcpi_end4:
	.size	__arm_cp.1_4, .Lcpi_end4-__arm_cp.1_4
.Lfunc_end1:
	.size	TIMER_GetModuleClock, .Lfunc_end1-TIMER_GetModuleClock
	.cfi_endproc
	.cantunwind
	.fnend
                                        @ -- End function
	.section	.text.TIMER_Close,"ax",%progbits
	.hidden	TIMER_Close                     @ -- Begin function TIMER_Close
	.globl	TIMER_Close
	.p2align	1
	.type	TIMER_Close,%function
	.code	16                              @ @TIMER_Close
	.thumb_func
TIMER_Close:
.Lfunc_begin2:
	.loc	4 76 0 is_stmt 1                @ ../../../../Library/StdDriver/src/timer.c:76:0
	.fnstart
	.cfi_startproc
@ %bb.0:
	.pad	#4
	sub	sp, #4
	.cfi_def_cfa_offset 4
	str	r0, [sp]
.Ltmp29:
	.loc	4 77 5 prologue_end             @ ../../../../Library/StdDriver/src/timer.c:77:5
	ldr	r1, [sp]
	movs	r0, #0
	.loc	4 77 16 is_stmt 0               @ ../../../../Library/StdDriver/src/timer.c:77:16
	str	r0, [r1]
	.loc	4 78 5 is_stmt 1                @ ../../../../Library/StdDriver/src/timer.c:78:5
	ldr	r1, [sp]
	.loc	4 78 19 is_stmt 0               @ ../../../../Library/StdDriver/src/timer.c:78:19
	str	r0, [r1, #20]
	.loc	4 79 1 is_stmt 1                @ ../../../../Library/StdDriver/src/timer.c:79:1
	add	sp, #4
	bx	lr
.Ltmp30:
.Lfunc_end2:
	.size	TIMER_Close, .Lfunc_end2-TIMER_Close
	.cfi_endproc
	.cantunwind
	.fnend
                                        @ -- End function
	.section	.text.TIMER_Delay,"ax",%progbits
	.hidden	TIMER_Delay                     @ -- Begin function TIMER_Delay
	.globl	TIMER_Delay
	.p2align	2
	.type	TIMER_Delay,%function
	.code	16                              @ @TIMER_Delay
	.thumb_func
TIMER_Delay:
.Lfunc_begin3:
	.loc	4 96 0                          @ ../../../../Library/StdDriver/src/timer.c:96:0
	.fnstart
	.cfi_startproc
@ %bb.0:
	.save	{r7, lr}
	push	{r7, lr}
	.cfi_def_cfa_offset 8
	.cfi_offset lr, -4
	.cfi_offset r7, -8
	.pad	#48
	sub	sp, #48
	.cfi_def_cfa_offset 56
	str	r0, [sp, #40]
	str	r1, [sp, #36]
.Ltmp31:
	.loc	4 97 44 prologue_end            @ ../../../../Library/StdDriver/src/timer.c:97:44
	ldr	r0, [sp, #40]
	.loc	4 97 23 is_stmt 0               @ ../../../../Library/StdDriver/src/timer.c:97:23
	bl	TIMER_GetModuleClock
	.loc	4 97 14                         @ ../../../../Library/StdDriver/src/timer.c:97:14
	str	r0, [sp, #32]
	movs	r0, #0
	.loc	4 98 14 is_stmt 1               @ ../../../../Library/StdDriver/src/timer.c:98:14
	str	r0, [sp, #28]
	.loc	4 99 48                         @ ../../../../Library/StdDriver/src/timer.c:99:48
	str	r0, [sp, #8]
	.loc	4 102 5                         @ ../../../../Library/StdDriver/src/timer.c:102:5
	ldr	r1, [sp, #40]
	.loc	4 102 16 is_stmt 0              @ ../../../../Library/StdDriver/src/timer.c:102:16
	str	r0, [r1]
	.loc	4 103 5 is_stmt 1               @ ../../../../Library/StdDriver/src/timer.c:103:5
	ldr	r1, [sp, #40]
	.loc	4 103 19 is_stmt 0              @ ../../../../Library/StdDriver/src/timer.c:103:19
	str	r0, [r1, #20]
.Ltmp32:
	.loc	4 105 9 is_stmt 1               @ ../../../../Library/StdDriver/src/timer.c:105:9
	ldr	r0, [sp, #32]
	ldr	r1, __arm_cp.3_0
.Ltmp33:
	.loc	4 105 9 is_stmt 0               @ ../../../../Library/StdDriver/src/timer.c:105:9
	cmp	r0, r1
	bhi	.LBB3_6
	b	.LBB3_1
.LBB3_1:
.Ltmp34:
	.loc	4 107 13 is_stmt 1              @ ../../../../Library/StdDriver/src/timer.c:107:13
	ldr	r0, [sp, #36]
.Ltmp35:
	.loc	4 107 13 is_stmt 0              @ ../../../../Library/StdDriver/src/timer.c:107:13
	lsrs	r0, r0, #3
	cmp	r0, #124
	bhi	.LBB3_3
	b	.LBB3_2
.LBB3_2:
	.loc	4 0 13                          @ ../../../../Library/StdDriver/src/timer.c:0:13
	movw	r0, #1000
.Ltmp36:
	.loc	4 108 21 is_stmt 1              @ ../../../../Library/StdDriver/src/timer.c:108:21
	str	r0, [sp, #36]
	.loc	4 108 13 is_stmt 0              @ ../../../../Library/StdDriver/src/timer.c:108:13
	b	.LBB3_3
.Ltmp37:
.LBB3_3:
	.loc	4 110 13 is_stmt 1              @ ../../../../Library/StdDriver/src/timer.c:110:13
	ldr	r0, [sp, #36]
	ldr	r1, __arm_cp.3_1
.Ltmp38:
	.loc	4 110 13 is_stmt 0              @ ../../../../Library/StdDriver/src/timer.c:110:13
	cmp	r0, r1
	blo	.LBB3_5
	b	.LBB3_4
.LBB3_4:
	.loc	4 0 13                          @ ../../../../Library/StdDriver/src/timer.c:0:13
	ldr	r0, __arm_cp.3_0
.Ltmp39:
	.loc	4 111 21 is_stmt 1              @ ../../../../Library/StdDriver/src/timer.c:111:21
	str	r0, [sp, #36]
	.loc	4 111 13 is_stmt 0              @ ../../../../Library/StdDriver/src/timer.c:111:13
	b	.LBB3_5
.Ltmp40:
.LBB3_5:
	.loc	4 112 5 is_stmt 1               @ ../../../../Library/StdDriver/src/timer.c:112:5
	b	.LBB3_11
.Ltmp41:
.LBB3_6:
	.loc	4 115 13                        @ ../../../../Library/StdDriver/src/timer.c:115:13
	ldr	r0, [sp, #36]
.Ltmp42:
	.loc	4 115 13 is_stmt 0              @ ../../../../Library/StdDriver/src/timer.c:115:13
	cmp	r0, #99
	bhi	.LBB3_8
	b	.LBB3_7
.LBB3_7:
	.loc	4 0 13                          @ ../../../../Library/StdDriver/src/timer.c:0:13
	movs	r0, #100
.Ltmp43:
	.loc	4 116 21 is_stmt 1              @ ../../../../Library/StdDriver/src/timer.c:116:21
	str	r0, [sp, #36]
	.loc	4 116 13 is_stmt 0              @ ../../../../Library/StdDriver/src/timer.c:116:13
	b	.LBB3_8
.Ltmp44:
.LBB3_8:
	.loc	4 118 13 is_stmt 1              @ ../../../../Library/StdDriver/src/timer.c:118:13
	ldr	r0, [sp, #36]
	ldr	r1, __arm_cp.3_1
.Ltmp45:
	.loc	4 118 13 is_stmt 0              @ ../../../../Library/StdDriver/src/timer.c:118:13
	cmp	r0, r1
	blo	.LBB3_10
	b	.LBB3_9
.LBB3_9:
	.loc	4 0 13                          @ ../../../../Library/StdDriver/src/timer.c:0:13
	ldr	r0, __arm_cp.3_0
.Ltmp46:
	.loc	4 119 21 is_stmt 1              @ ../../../../Library/StdDriver/src/timer.c:119:21
	str	r0, [sp, #36]
	.loc	4 119 13 is_stmt 0              @ ../../../../Library/StdDriver/src/timer.c:119:13
	b	.LBB3_10
.Ltmp47:
.LBB3_10:
	.loc	4 0 13                          @ ../../../../Library/StdDriver/src/timer.c:0:13
	b	.LBB3_11
.LBB3_11:
.Ltmp48:
	.loc	4 122 9 is_stmt 1               @ ../../../../Library/StdDriver/src/timer.c:122:9
	ldr	r0, [sp, #32]
	ldr	r1, __arm_cp.3_0
.Ltmp49:
	.loc	4 122 9 is_stmt 0               @ ../../../../Library/StdDriver/src/timer.c:122:9
	cmp	r0, r1
	bhi	.LBB3_13
	b	.LBB3_12
.LBB3_12:
	.loc	4 0 9                           @ ../../../../Library/StdDriver/src/timer.c:0:9
	movs	r0, #0
.Ltmp50:
	.loc	4 124 21 is_stmt 1              @ ../../../../Library/StdDriver/src/timer.c:124:21
	str	r0, [sp, #28]
	.loc	4 125 41                        @ ../../../../Library/StdDriver/src/timer.c:125:41
	ldr	r1, [sp, #32]
	ldr	r0, __arm_cp.3_2
	.loc	4 125 39 is_stmt 0              @ ../../../../Library/StdDriver/src/timer.c:125:39
	udiv	r0, r0, r1
	.loc	4 125 24                        @ ../../../../Library/StdDriver/src/timer.c:125:24
	str	r0, [sp, #12]
	.loc	4 126 20 is_stmt 1              @ ../../../../Library/StdDriver/src/timer.c:126:20
	ldr	r1, [sp, #36]
	movw	r0, #1000
	.loc	4 126 28 is_stmt 0              @ ../../../../Library/StdDriver/src/timer.c:126:28
	muls	r0, r1, r0
	.loc	4 126 40                        @ ../../../../Library/StdDriver/src/timer.c:126:40
	ldr	r1, [sp, #12]
	.loc	4 126 38                        @ ../../../../Library/StdDriver/src/timer.c:126:38
	udiv	r0, r0, r1
	.loc	4 126 17                        @ ../../../../Library/StdDriver/src/timer.c:126:17
	str	r0, [sp, #20]
	.loc	4 127 5 is_stmt 1               @ ../../../../Library/StdDriver/src/timer.c:127:5
	b	.LBB3_16
.Ltmp51:
.LBB3_13:
	.loc	4 130 19                        @ ../../../../Library/StdDriver/src/timer.c:130:19
	ldr	r1, [sp, #36]
	.loc	4 130 30 is_stmt 0              @ ../../../../Library/StdDriver/src/timer.c:130:30
	ldr	r0, [sp, #32]
	ldr	r2, __arm_cp.3_0
	.loc	4 130 37                        @ ../../../../Library/StdDriver/src/timer.c:130:37
	udiv	r0, r0, r2
	.loc	4 130 27                        @ ../../../../Library/StdDriver/src/timer.c:130:27
	muls	r0, r1, r0
	.loc	4 130 17                        @ ../../../../Library/StdDriver/src/timer.c:130:17
	str	r0, [sp, #20]
	add	r0, sp, #20
	.loc	4 131 24 is_stmt 1              @ ../../../../Library/StdDriver/src/timer.c:131:24
	ldrb	r0, [r0, #3]
	.loc	4 131 21 is_stmt 0              @ ../../../../Library/StdDriver/src/timer.c:131:21
	str	r0, [sp, #28]
.Ltmp52:
	.loc	4 133 13 is_stmt 1              @ ../../../../Library/StdDriver/src/timer.c:133:13
	ldr	r0, [sp, #28]
.Ltmp53:
	.loc	4 133 13 is_stmt 0              @ ../../../../Library/StdDriver/src/timer.c:133:13
	cbz	r0, .LBB3_15
	b	.LBB3_14
.LBB3_14:
.Ltmp54:
	.loc	4 134 23 is_stmt 1              @ ../../../../Library/StdDriver/src/timer.c:134:23
	ldr	r0, [sp, #20]
	.loc	4 134 34 is_stmt 0              @ ../../../../Library/StdDriver/src/timer.c:134:34
	ldr	r1, [sp, #28]
	.loc	4 134 46                        @ ../../../../Library/StdDriver/src/timer.c:134:46
	adds	r1, r1, #1
	.loc	4 134 31                        @ ../../../../Library/StdDriver/src/timer.c:134:31
	udiv	r0, r0, r1
	.loc	4 134 21                        @ ../../../../Library/StdDriver/src/timer.c:134:21
	str	r0, [sp, #20]
	.loc	4 134 13                        @ ../../../../Library/StdDriver/src/timer.c:134:13
	b	.LBB3_15
.Ltmp55:
.LBB3_15:
	.loc	4 0 13                          @ ../../../../Library/StdDriver/src/timer.c:0:13
	b	.LBB3_16
.LBB3_16:
	.loc	4 137 18 is_stmt 1              @ ../../../../Library/StdDriver/src/timer.c:137:18
	ldr	r0, [sp, #20]
	.loc	4 137 5 is_stmt 0               @ ../../../../Library/StdDriver/src/timer.c:137:5
	ldr	r1, [sp, #40]
	.loc	4 137 16                        @ ../../../../Library/StdDriver/src/timer.c:137:16
	str	r0, [r1, #4]
	.loc	4 138 61 is_stmt 1              @ ../../../../Library/StdDriver/src/timer.c:138:61
	ldr	r0, [sp, #28]
	movs	r1, #1
	lsls	r1, r1, #30
	.loc	4 138 59 is_stmt 0              @ ../../../../Library/StdDriver/src/timer.c:138:59
	orrs	r0, r1
	.loc	4 138 5                         @ ../../../../Library/StdDriver/src/timer.c:138:5
	ldr	r1, [sp, #40]
	.loc	4 138 16                        @ ../../../../Library/StdDriver/src/timer.c:138:16
	str	r0, [r1]
.Ltmp56:
	.loc	4 143 22 is_stmt 1              @ ../../../../Library/StdDriver/src/timer.c:143:22
	ldr	r0, __arm_cp.3_3
	ldr	r0, [r0]
	.loc	4 143 40 is_stmt 0              @ ../../../../Library/StdDriver/src/timer.c:143:40
	ldr	r1, [sp, #32]
	.loc	4 143 38                        @ ../../../../Library/StdDriver/src/timer.c:143:38
	udiv	r0, r0, r1
	.loc	4 143 48                        @ ../../../../Library/StdDriver/src/timer.c:143:48
	adds	r0, r0, #1
	.loc	4 143 19                        @ ../../../../Library/StdDriver/src/timer.c:143:19
	str	r0, [sp, #24]
	.loc	4 143 10                        @ ../../../../Library/StdDriver/src/timer.c:143:10
	b	.LBB3_17
.LBB3_17:                               @ =>This Inner Loop Header: Depth=1
.Ltmp57:
	.loc	4 143 55                        @ ../../../../Library/StdDriver/src/timer.c:143:55
	ldr	r0, [sp, #24]
.Ltmp58:
	.loc	4 143 5                         @ ../../../../Library/StdDriver/src/timer.c:143:5
	cbz	r0, .LBB3_20
	b	.LBB3_18
.LBB3_18:                               @   in Loop: Header=BB3_17 Depth=1
.Ltmp59:
	.loc	4 145 9 is_stmt 1               @ ../../../../Library/StdDriver/src/timer.c:145:9
	nop
	.loc	4 146 5                         @ ../../../../Library/StdDriver/src/timer.c:146:5
	b	.LBB3_19
.Ltmp60:
.LBB3_19:                               @   in Loop: Header=BB3_17 Depth=1
	.loc	4 143 79                        @ ../../../../Library/StdDriver/src/timer.c:143:79
	ldr	r0, [sp, #24]
	subs	r0, r0, #1
	str	r0, [sp, #24]
	.loc	4 143 5 is_stmt 0               @ ../../../../Library/StdDriver/src/timer.c:143:5
	b	.LBB3_17
.Ltmp61:
.LBB3_20:
	.loc	4 151 17 is_stmt 1              @ ../../../../Library/StdDriver/src/timer.c:151:17
	ldr	r0, __arm_cp.3_3
	ldr	r0, [r0]
	.loc	4 151 56 is_stmt 0              @ ../../../../Library/StdDriver/src/timer.c:151:56
	str	r0, [sp, #4]                    @ 4-byte Spill
	ldr	r0, [sp, #40]
	.loc	4 151 35                        @ ../../../../Library/StdDriver/src/timer.c:151:35
	bl	TIMER_GetModuleClock
	mov	r1, r0
	.loc	4 151 33                        @ ../../../../Library/StdDriver/src/timer.c:151:33
	ldr	r0, [sp, #4]                    @ 4-byte Reload
	udiv	r1, r0, r1
	.loc	4 151 67                        @ ../../../../Library/StdDriver/src/timer.c:151:67
	ldr	r0, [sp, #28]
	.loc	4 151 79                        @ ../../../../Library/StdDriver/src/timer.c:151:79
	adds	r0, r0, #1
	.loc	4 151 64                        @ ../../../../Library/StdDriver/src/timer.c:151:64
	muls	r0, r1, r0
	.loc	4 151 14                        @ ../../../../Library/StdDriver/src/timer.c:151:14
	str	r0, [sp, #24]
	.loc	4 152 15 is_stmt 1              @ ../../../../Library/StdDriver/src/timer.c:152:15
	ldr	r0, [sp, #40]
	.loc	4 152 22 is_stmt 0              @ ../../../../Library/StdDriver/src/timer.c:152:22
	ldr	r0, [r0, #12]
	.loc	4 152 13                        @ ../../../../Library/StdDriver/src/timer.c:152:13
	str	r0, [sp, #16]
	.loc	4 154 5 is_stmt 1               @ ../../../../Library/StdDriver/src/timer.c:154:5
	b	.LBB3_21
.LBB3_21:                               @ =>This Inner Loop Header: Depth=1
	.loc	4 154 12 is_stmt 0              @ ../../../../Library/StdDriver/src/timer.c:154:12
	ldr	r0, [sp, #40]
	.loc	4 154 19                        @ ../../../../Library/StdDriver/src/timer.c:154:19
	ldr	r0, [r0]
	.loc	4 154 5                         @ ../../../../Library/StdDriver/src/timer.c:154:5
	lsls	r0, r0, #6
	cmp	r0, #0
	bpl	.LBB3_28
	b	.LBB3_22
.LBB3_22:                               @   in Loop: Header=BB3_21 Depth=1
.Ltmp62:
	.loc	4 157 13 is_stmt 1              @ ../../../../Library/StdDriver/src/timer.c:157:13
	ldr	r0, [sp, #16]
	.loc	4 157 24 is_stmt 0              @ ../../../../Library/StdDriver/src/timer.c:157:24
	ldr	r1, [sp, #40]
	.loc	4 157 31                        @ ../../../../Library/StdDriver/src/timer.c:157:31
	ldr	r1, [r1, #12]
.Ltmp63:
	.loc	4 157 13                        @ ../../../../Library/StdDriver/src/timer.c:157:13
	cmp	r0, r1
	bne	.LBB3_26
	b	.LBB3_23
.LBB3_23:                               @   in Loop: Header=BB3_21 Depth=1
.Ltmp64:
	.loc	4 159 18 is_stmt 1              @ ../../../../Library/StdDriver/src/timer.c:159:18
	ldr	r0, [sp, #8]
	adds	r1, r0, #1
	str	r1, [sp, #8]
	.loc	4 159 23 is_stmt 0              @ ../../../../Library/StdDriver/src/timer.c:159:23
	ldr	r1, [sp, #24]
.Ltmp65:
	.loc	4 159 17                        @ ../../../../Library/StdDriver/src/timer.c:159:17
	cmp	r0, r1
	bls	.LBB3_25
	b	.LBB3_24
.LBB3_24:
	.loc	4 0 17                          @ ../../../../Library/StdDriver/src/timer.c:0:17
	movs	r0, #0
	mvns	r0, r0
.Ltmp66:
	.loc	4 161 17 is_stmt 1              @ ../../../../Library/StdDriver/src/timer.c:161:17
	str	r0, [sp, #44]
	b	.LBB3_29
.Ltmp67:
.LBB3_25:                               @   in Loop: Header=BB3_21 Depth=1
	.loc	4 163 9                         @ ../../../../Library/StdDriver/src/timer.c:163:9
	b	.LBB3_27
.Ltmp68:
.LBB3_26:                               @   in Loop: Header=BB3_21 Depth=1
	.loc	4 0 9 is_stmt 0                 @ ../../../../Library/StdDriver/src/timer.c:0:9
	movs	r0, #0
.Ltmp69:
	.loc	4 166 15 is_stmt 1              @ ../../../../Library/StdDriver/src/timer.c:166:15
	str	r0, [sp, #8]
	.loc	4 167 23                        @ ../../../../Library/StdDriver/src/timer.c:167:23
	ldr	r0, [sp, #40]
	.loc	4 167 30 is_stmt 0              @ ../../../../Library/StdDriver/src/timer.c:167:30
	ldr	r0, [r0, #12]
	.loc	4 167 21                        @ ../../../../Library/StdDriver/src/timer.c:167:21
	str	r0, [sp, #16]
	b	.LBB3_27
.Ltmp70:
.LBB3_27:                               @   in Loop: Header=BB3_21 Depth=1
	.loc	4 154 5 is_stmt 1               @ ../../../../Library/StdDriver/src/timer.c:154:5
	b	.LBB3_21
.LBB3_28:
	.loc	4 0 5 is_stmt 0                 @ ../../../../Library/StdDriver/src/timer.c:0:5
	movs	r0, #0
	.loc	4 171 5 is_stmt 1               @ ../../../../Library/StdDriver/src/timer.c:171:5
	str	r0, [sp, #44]
	b	.LBB3_29
.LBB3_29:
	.loc	4 172 1                         @ ../../../../Library/StdDriver/src/timer.c:172:1
	ldr	r0, [sp, #44]
	add	sp, #48
	pop	{r7, pc}
.Ltmp71:
	.p2align	2
@ %bb.30:
	.loc	4 0 1 is_stmt 0                 @ ../../../../Library/StdDriver/src/timer.c:0:1
__arm_cp.3_0:
	.long	1000000                         @ 0xf4240
.Lcpi_end5:
	.size	__arm_cp.3_0, .Lcpi_end5-__arm_cp.3_0
__arm_cp.3_1:
	.long	1000001                         @ 0xf4241
.Lcpi_end6:
	.size	__arm_cp.3_1, .Lcpi_end6-__arm_cp.3_1
__arm_cp.3_2:
	.long	1000000000                      @ 0x3b9aca00
.Lcpi_end7:
	.size	__arm_cp.3_2, .Lcpi_end7-__arm_cp.3_2
__arm_cp.3_3:
	.long	SystemCoreClock
.Lcpi_end8:
	.size	__arm_cp.3_3, .Lcpi_end8-__arm_cp.3_3
.Lfunc_end3:
	.size	TIMER_Delay, .Lfunc_end3-TIMER_Delay
	.cfi_endproc
	.cantunwind
	.fnend
                                        @ -- End function
	.section	.text.TIMER_EnableCapture,"ax",%progbits
	.hidden	TIMER_EnableCapture             @ -- Begin function TIMER_EnableCapture
	.globl	TIMER_EnableCapture
	.p2align	2
	.type	TIMER_EnableCapture,%function
	.code	16                              @ @TIMER_EnableCapture
	.thumb_func
TIMER_EnableCapture:
.Lfunc_begin4:
	.loc	4 195 0 is_stmt 1               @ ../../../../Library/StdDriver/src/timer.c:195:0
	.fnstart
	.cfi_startproc
@ %bb.0:
	.pad	#12
	sub	sp, #12
	.cfi_def_cfa_offset 12
	str	r0, [sp, #8]
	str	r1, [sp, #4]
	str	r2, [sp]
.Ltmp72:
	.loc	4 196 22 prologue_end           @ ../../../../Library/StdDriver/src/timer.c:196:22
	ldr	r0, [sp, #8]
	.loc	4 196 29 is_stmt 0              @ ../../../../Library/StdDriver/src/timer.c:196:29
	ldr	r0, [r0, #20]
	ldr	r1, __arm_cp.4_0
	.loc	4 196 36                        @ ../../../../Library/StdDriver/src/timer.c:196:36
	ands	r0, r1
	.loc	4 197 21 is_stmt 1              @ ../../../../Library/StdDriver/src/timer.c:197:21
	ldr	r1, [sp, #4]
	.loc	4 196 95                        @ ../../../../Library/StdDriver/src/timer.c:196:95
	orrs	r0, r1
	.loc	4 197 34                        @ ../../../../Library/StdDriver/src/timer.c:197:34
	ldr	r1, [sp]
	.loc	4 197 32 is_stmt 0              @ ../../../../Library/StdDriver/src/timer.c:197:32
	orrs	r0, r1
	movs	r1, #8
	.loc	4 197 42                        @ ../../../../Library/StdDriver/src/timer.c:197:42
	orrs	r0, r1
	.loc	4 196 5 is_stmt 1               @ ../../../../Library/StdDriver/src/timer.c:196:5
	ldr	r1, [sp, #8]
	.loc	4 196 19 is_stmt 0              @ ../../../../Library/StdDriver/src/timer.c:196:19
	str	r0, [r1, #20]
	.loc	4 198 1 is_stmt 1               @ ../../../../Library/StdDriver/src/timer.c:198:1
	add	sp, #12
	bx	lr
.Ltmp73:
	.p2align	2
@ %bb.1:
	.loc	4 0 1 is_stmt 0                 @ ../../../../Library/StdDriver/src/timer.c:0:1
__arm_cp.4_0:
	.long	4294938599                      @ 0xffff8fe7
.Lcpi_end9:
	.size	__arm_cp.4_0, .Lcpi_end9-__arm_cp.4_0
.Lfunc_end4:
	.size	TIMER_EnableCapture, .Lfunc_end4-TIMER_EnableCapture
	.cfi_endproc
	.cantunwind
	.fnend
                                        @ -- End function
	.section	.text.TIMER_CaptureSelect,"ax",%progbits
	.hidden	TIMER_CaptureSelect             @ -- Begin function TIMER_CaptureSelect
	.globl	TIMER_CaptureSelect
	.p2align	1
	.type	TIMER_CaptureSelect,%function
	.code	16                              @ @TIMER_CaptureSelect
	.thumb_func
TIMER_CaptureSelect:
.Lfunc_begin5:
	.loc	4 219 0 is_stmt 1               @ ../../../../Library/StdDriver/src/timer.c:219:0
	.fnstart
	.cfi_startproc
@ %bb.0:
	.pad	#8
	sub	sp, #8
	.cfi_def_cfa_offset 8
	str	r0, [sp, #4]
	str	r1, [sp]
.Ltmp74:
	.loc	4 220 9 prologue_end            @ ../../../../Library/StdDriver/src/timer.c:220:9
	ldr	r0, [sp]
.Ltmp75:
	.loc	4 220 9 is_stmt 0               @ ../../../../Library/StdDriver/src/timer.c:220:9
	cmp	r0, #255
	bne	.LBB5_2
	b	.LBB5_1
.LBB5_1:
.Ltmp76:
	.loc	4 222 23 is_stmt 1              @ ../../../../Library/StdDriver/src/timer.c:222:23
	ldr	r0, [sp, #4]
	.loc	4 222 30 is_stmt 0              @ ../../../../Library/StdDriver/src/timer.c:222:30
	ldr	r0, [r0]
	movs	r1, #1
	lsls	r1, r1, #22
	.loc	4 222 34                        @ ../../../../Library/StdDriver/src/timer.c:222:34
	bics	r0, r1
	.loc	4 222 9                         @ ../../../../Library/StdDriver/src/timer.c:222:9
	ldr	r1, [sp, #4]
	.loc	4 222 20                        @ ../../../../Library/StdDriver/src/timer.c:222:20
	str	r0, [r1]
	.loc	4 224 5 is_stmt 1               @ ../../../../Library/StdDriver/src/timer.c:224:5
	b	.LBB5_3
.Ltmp77:
.LBB5_2:
	.loc	4 227 23                        @ ../../../../Library/StdDriver/src/timer.c:227:23
	ldr	r0, [sp, #4]
	.loc	4 227 30 is_stmt 0              @ ../../../../Library/StdDriver/src/timer.c:227:30
	ldr	r0, [r0]
	movs	r1, #1
	lsls	r1, r1, #22
	.loc	4 227 61                        @ ../../../../Library/StdDriver/src/timer.c:227:61
	orrs	r0, r1
	.loc	4 227 9                         @ ../../../../Library/StdDriver/src/timer.c:227:9
	ldr	r1, [sp, #4]
	.loc	4 227 20                        @ ../../../../Library/StdDriver/src/timer.c:227:20
	str	r0, [r1]
	.loc	4 229 26 is_stmt 1              @ ../../../../Library/StdDriver/src/timer.c:229:26
	ldr	r0, [sp, #4]
	.loc	4 229 33 is_stmt 0              @ ../../../../Library/StdDriver/src/timer.c:229:33
	ldr	r0, [r0, #20]
	movw	r1, #1792
	.loc	4 229 40                        @ ../../../../Library/StdDriver/src/timer.c:229:40
	bics	r0, r1
	.loc	4 230 26 is_stmt 1              @ ../../../../Library/StdDriver/src/timer.c:230:26
	ldr	r1, [sp]
	.loc	4 229 75                        @ ../../../../Library/StdDriver/src/timer.c:229:75
	orrs	r0, r1
	.loc	4 229 9 is_stmt 0               @ ../../../../Library/StdDriver/src/timer.c:229:9
	ldr	r1, [sp, #4]
	.loc	4 229 23                        @ ../../../../Library/StdDriver/src/timer.c:229:23
	str	r0, [r1, #20]
	b	.LBB5_3
.Ltmp78:
.LBB5_3:
	.loc	4 232 1 is_stmt 1               @ ../../../../Library/StdDriver/src/timer.c:232:1
	add	sp, #8
	bx	lr
.Ltmp79:
.Lfunc_end5:
	.size	TIMER_CaptureSelect, .Lfunc_end5-TIMER_CaptureSelect
	.cfi_endproc
	.cantunwind
	.fnend
                                        @ -- End function
	.section	.text.TIMER_DisableCapture,"ax",%progbits
	.hidden	TIMER_DisableCapture            @ -- Begin function TIMER_DisableCapture
	.globl	TIMER_DisableCapture
	.p2align	1
	.type	TIMER_DisableCapture,%function
	.code	16                              @ @TIMER_DisableCapture
	.thumb_func
TIMER_DisableCapture:
.Lfunc_begin6:
	.loc	4 243 0                         @ ../../../../Library/StdDriver/src/timer.c:243:0
	.fnstart
	.cfi_startproc
@ %bb.0:
	.pad	#4
	sub	sp, #4
	.cfi_def_cfa_offset 4
	str	r0, [sp]
.Ltmp80:
	.loc	4 244 5 prologue_end            @ ../../../../Library/StdDriver/src/timer.c:244:5
	ldr	r1, [sp]
	.loc	4 244 19 is_stmt 0              @ ../../../../Library/StdDriver/src/timer.c:244:19
	ldr	r0, [r1, #20]
	movs	r2, #8
	bics	r0, r2
	str	r0, [r1, #20]
	.loc	4 245 1 is_stmt 1               @ ../../../../Library/StdDriver/src/timer.c:245:1
	add	sp, #4
	bx	lr
.Ltmp81:
.Lfunc_end6:
	.size	TIMER_DisableCapture, .Lfunc_end6-TIMER_DisableCapture
	.cfi_endproc
	.cantunwind
	.fnend
                                        @ -- End function
	.section	.text.TIMER_SetTriggerSource,"ax",%progbits
	.hidden	TIMER_SetTriggerSource          @ -- Begin function TIMER_SetTriggerSource
	.globl	TIMER_SetTriggerSource
	.p2align	1
	.type	TIMER_SetTriggerSource,%function
	.code	16                              @ @TIMER_SetTriggerSource
	.thumb_func
TIMER_SetTriggerSource:
.Lfunc_begin7:
	.loc	4 259 0                         @ ../../../../Library/StdDriver/src/timer.c:259:0
	.fnstart
	.cfi_startproc
@ %bb.0:
	.pad	#8
	sub	sp, #8
	.cfi_def_cfa_offset 8
	str	r0, [sp, #4]
	str	r1, [sp]
.Ltmp82:
	.loc	4 260 22 prologue_end           @ ../../../../Library/StdDriver/src/timer.c:260:22
	ldr	r0, [sp, #4]
	.loc	4 260 29 is_stmt 0              @ ../../../../Library/StdDriver/src/timer.c:260:29
	ldr	r0, [r0, #28]
	movs	r1, #1
	.loc	4 260 36                        @ ../../../../Library/StdDriver/src/timer.c:260:36
	bics	r0, r1
	.loc	4 260 67                        @ ../../../../Library/StdDriver/src/timer.c:260:67
	ldr	r1, [sp]
	.loc	4 260 65                        @ ../../../../Library/StdDriver/src/timer.c:260:65
	orrs	r0, r1
	.loc	4 260 5                         @ ../../../../Library/StdDriver/src/timer.c:260:5
	ldr	r1, [sp, #4]
	.loc	4 260 19                        @ ../../../../Library/StdDriver/src/timer.c:260:19
	str	r0, [r1, #28]
	.loc	4 261 1 is_stmt 1               @ ../../../../Library/StdDriver/src/timer.c:261:1
	add	sp, #8
	bx	lr
.Ltmp83:
.Lfunc_end7:
	.size	TIMER_SetTriggerSource, .Lfunc_end7-TIMER_SetTriggerSource
	.cfi_endproc
	.cantunwind
	.fnend
                                        @ -- End function
	.section	.text.TIMER_SetTriggerTarget,"ax",%progbits
	.hidden	TIMER_SetTriggerTarget          @ -- Begin function TIMER_SetTriggerTarget
	.globl	TIMER_SetTriggerTarget
	.p2align	1
	.type	TIMER_SetTriggerTarget,%function
	.code	16                              @ @TIMER_SetTriggerTarget
	.thumb_func
TIMER_SetTriggerTarget:
.Lfunc_begin8:
	.loc	4 278 0                         @ ../../../../Library/StdDriver/src/timer.c:278:0
	.fnstart
	.cfi_startproc
@ %bb.0:
	.pad	#8
	sub	sp, #8
	.cfi_def_cfa_offset 8
	str	r0, [sp, #4]
	str	r1, [sp]
.Ltmp84:
	.loc	4 279 22 prologue_end           @ ../../../../Library/StdDriver/src/timer.c:279:22
	ldr	r0, [sp, #4]
	.loc	4 279 29 is_stmt 0              @ ../../../../Library/StdDriver/src/timer.c:279:29
	ldr	r0, [r0, #28]
	movw	r1, #286
	.loc	4 279 36                        @ ../../../../Library/StdDriver/src/timer.c:279:36
	bics	r0, r1
	.loc	4 279 173                       @ ../../../../Library/StdDriver/src/timer.c:279:173
	ldr	r1, [sp]
	.loc	4 279 171                       @ ../../../../Library/StdDriver/src/timer.c:279:171
	orrs	r0, r1
	.loc	4 279 5                         @ ../../../../Library/StdDriver/src/timer.c:279:5
	ldr	r1, [sp, #4]
	.loc	4 279 19                        @ ../../../../Library/StdDriver/src/timer.c:279:19
	str	r0, [r1, #28]
	.loc	4 280 1 is_stmt 1               @ ../../../../Library/StdDriver/src/timer.c:280:1
	add	sp, #8
	bx	lr
.Ltmp85:
.Lfunc_end8:
	.size	TIMER_SetTriggerTarget, .Lfunc_end8-TIMER_SetTriggerTarget
	.cfi_endproc
	.cantunwind
	.fnend
                                        @ -- End function
	.section	.text.TIMER_EnableEventCounter,"ax",%progbits
	.hidden	TIMER_EnableEventCounter        @ -- Begin function TIMER_EnableEventCounter
	.globl	TIMER_EnableEventCounter
	.p2align	1
	.type	TIMER_EnableEventCounter,%function
	.code	16                              @ @TIMER_EnableEventCounter
	.thumb_func
TIMER_EnableEventCounter:
.Lfunc_begin9:
	.loc	4 296 0                         @ ../../../../Library/StdDriver/src/timer.c:296:0
	.fnstart
	.cfi_startproc
@ %bb.0:
	.pad	#8
	sub	sp, #8
	.cfi_def_cfa_offset 8
	str	r0, [sp, #4]
	str	r1, [sp]
.Ltmp86:
	.loc	4 297 22 prologue_end           @ ../../../../Library/StdDriver/src/timer.c:297:22
	ldr	r0, [sp, #4]
	.loc	4 297 29 is_stmt 0              @ ../../../../Library/StdDriver/src/timer.c:297:29
	ldr	r0, [r0, #20]
	movs	r2, #1
	.loc	4 297 36                        @ ../../../../Library/StdDriver/src/timer.c:297:36
	bics	r0, r2
	.loc	4 297 68                        @ ../../../../Library/StdDriver/src/timer.c:297:68
	ldr	r1, [sp]
	.loc	4 297 66                        @ ../../../../Library/StdDriver/src/timer.c:297:66
	orrs	r0, r1
	.loc	4 297 5                         @ ../../../../Library/StdDriver/src/timer.c:297:5
	ldr	r1, [sp, #4]
	.loc	4 297 19                        @ ../../../../Library/StdDriver/src/timer.c:297:19
	str	r0, [r1, #20]
	.loc	4 298 5 is_stmt 1               @ ../../../../Library/StdDriver/src/timer.c:298:5
	ldr	r1, [sp, #4]
	.loc	4 298 16 is_stmt 0              @ ../../../../Library/StdDriver/src/timer.c:298:16
	ldr	r0, [r1]
	lsls	r2, r2, #24
	orrs	r0, r2
	str	r0, [r1]
	.loc	4 299 1 is_stmt 1               @ ../../../../Library/StdDriver/src/timer.c:299:1
	add	sp, #8
	bx	lr
.Ltmp87:
.Lfunc_end9:
	.size	TIMER_EnableEventCounter, .Lfunc_end9-TIMER_EnableEventCounter
	.cfi_endproc
	.cantunwind
	.fnend
                                        @ -- End function
	.section	.text.TIMER_DisableEventCounter,"ax",%progbits
	.hidden	TIMER_DisableEventCounter       @ -- Begin function TIMER_DisableEventCounter
	.globl	TIMER_DisableEventCounter
	.p2align	1
	.type	TIMER_DisableEventCounter,%function
	.code	16                              @ @TIMER_DisableEventCounter
	.thumb_func
TIMER_DisableEventCounter:
.Lfunc_begin10:
	.loc	4 310 0                         @ ../../../../Library/StdDriver/src/timer.c:310:0
	.fnstart
	.cfi_startproc
@ %bb.0:
	.pad	#4
	sub	sp, #4
	.cfi_def_cfa_offset 4
	str	r0, [sp]
.Ltmp88:
	.loc	4 311 5 prologue_end            @ ../../../../Library/StdDriver/src/timer.c:311:5
	ldr	r1, [sp]
	.loc	4 311 16 is_stmt 0              @ ../../../../Library/StdDriver/src/timer.c:311:16
	ldr	r0, [r1]
	movs	r2, #1
	lsls	r2, r2, #24
	bics	r0, r2
	str	r0, [r1]
	.loc	4 312 1 is_stmt 1               @ ../../../../Library/StdDriver/src/timer.c:312:1
	add	sp, #4
	bx	lr
.Ltmp89:
.Lfunc_end10:
	.size	TIMER_DisableEventCounter, .Lfunc_end10-TIMER_DisableEventCounter
	.cfi_endproc
	.cantunwind
	.fnend
                                        @ -- End function
	.section	.text.TIMER_EnableFreqCounter,"ax",%progbits
	.hidden	TIMER_EnableFreqCounter         @ -- Begin function TIMER_EnableFreqCounter
	.globl	TIMER_EnableFreqCounter
	.p2align	2
	.type	TIMER_EnableFreqCounter,%function
	.code	16                              @ @TIMER_EnableFreqCounter
	.thumb_func
TIMER_EnableFreqCounter:
.Lfunc_begin11:
	.loc	4 333 0                         @ ../../../../Library/StdDriver/src/timer.c:333:0
	.fnstart
	.cfi_startproc
@ %bb.0:
	.pad	#20
	sub	sp, #20
	.cfi_def_cfa_offset 20
	str	r0, [sp, #16]
	str	r1, [sp, #12]
	str	r2, [sp, #8]
	str	r3, [sp, #4]
.Ltmp90:
	.loc	4 336 9 prologue_end            @ ../../../../Library/StdDriver/src/timer.c:336:9
	ldr	r0, [sp, #16]
	ldr	r1, __arm_cp.11_0
.Ltmp91:
	.loc	4 336 9 is_stmt 0               @ ../../../../Library/StdDriver/src/timer.c:336:9
	cmp	r0, r1
	bne	.LBB11_2
	b	.LBB11_1
.LBB11_1:
	.loc	4 0 9                           @ ../../../../Library/StdDriver/src/timer.c:0:9
	ldr	r0, __arm_cp.11_3
.Ltmp92:
	.loc	4 338 19 is_stmt 1              @ ../../../../Library/StdDriver/src/timer.c:338:19
	str	r0, [sp]
	.loc	4 339 5                         @ ../../../../Library/StdDriver/src/timer.c:339:5
	b	.LBB11_6
.Ltmp93:
.LBB11_2:
	.loc	4 340 14                        @ ../../../../Library/StdDriver/src/timer.c:340:14
	ldr	r0, [sp, #16]
	ldr	r1, __arm_cp.11_1
.Ltmp94:
	.loc	4 340 14 is_stmt 0              @ ../../../../Library/StdDriver/src/timer.c:340:14
	cmp	r0, r1
	bne	.LBB11_4
	b	.LBB11_3
.LBB11_3:
	.loc	4 0 14                          @ ../../../../Library/StdDriver/src/timer.c:0:14
	ldr	r0, __arm_cp.11_2
.Ltmp95:
	.loc	4 342 19 is_stmt 1              @ ../../../../Library/StdDriver/src/timer.c:342:19
	str	r0, [sp]
	.loc	4 343 5                         @ ../../../../Library/StdDriver/src/timer.c:343:5
	b	.LBB11_5
.Ltmp96:
.LBB11_4:
	.loc	4 0 5 is_stmt 0                 @ ../../../../Library/StdDriver/src/timer.c:0:5
	movs	r0, #0
.Ltmp97:
	.loc	4 346 19 is_stmt 1              @ ../../../../Library/StdDriver/src/timer.c:346:19
	str	r0, [sp]
	b	.LBB11_5
.Ltmp98:
.LBB11_5:
	.loc	4 0 19 is_stmt 0                @ ../../../../Library/StdDriver/src/timer.c:0:19
	b	.LBB11_6
.LBB11_6:
.Ltmp99:
	.loc	4 349 9 is_stmt 1               @ ../../../../Library/StdDriver/src/timer.c:349:9
	ldr	r0, [sp]
.Ltmp100:
	.loc	4 349 9 is_stmt 0               @ ../../../../Library/StdDriver/src/timer.c:349:9
	cbz	r0, .LBB11_8
	b	.LBB11_7
.LBB11_7:
.Ltmp101:
	.loc	4 351 9 is_stmt 1               @ ../../../../Library/StdDriver/src/timer.c:351:9
	ldr	r1, [sp]
	ldr	r0, __arm_cp.11_4
	.loc	4 351 24 is_stmt 0              @ ../../../../Library/StdDriver/src/timer.c:351:24
	str	r0, [r1, #4]
	.loc	4 352 29 is_stmt 1              @ ../../../../Library/StdDriver/src/timer.c:352:29
	ldr	r0, [sp, #4]
	subs	r1, r0, #1
	sbcs	r0, r1
	lsls	r0, r0, #5
	.loc	4 352 9 is_stmt 0               @ ../../../../Library/StdDriver/src/timer.c:352:9
	ldr	r1, [sp]
	.loc	4 352 27                        @ ../../../../Library/StdDriver/src/timer.c:352:27
	str	r0, [r1, #20]
	.loc	4 353 9 is_stmt 1               @ ../../../../Library/StdDriver/src/timer.c:353:9
	ldr	r1, [sp, #16]
	ldr	r0, __arm_cp.11_5
	.loc	4 353 20 is_stmt 0              @ ../../../../Library/StdDriver/src/timer.c:353:20
	str	r0, [r1]
	.loc	4 354 5 is_stmt 1               @ ../../../../Library/StdDriver/src/timer.c:354:5
	b	.LBB11_8
.Ltmp102:
.LBB11_8:
	.loc	4 355 1                         @ ../../../../Library/StdDriver/src/timer.c:355:1
	add	sp, #20
	bx	lr
.Ltmp103:
	.p2align	2
@ %bb.9:
	.loc	4 0 1 is_stmt 0                 @ ../../../../Library/StdDriver/src/timer.c:0:1
__arm_cp.11_0:
	.long	1074069504                      @ 0x40050000
.Lcpi_end10:
	.size	__arm_cp.11_0, .Lcpi_end10-__arm_cp.11_0
__arm_cp.11_1:
	.long	1074073600                      @ 0x40051000
.Lcpi_end11:
	.size	__arm_cp.11_1, .Lcpi_end11-__arm_cp.11_1
__arm_cp.11_2:
	.long	1074073856                      @ 0x40051100
.Lcpi_end12:
	.size	__arm_cp.11_2, .Lcpi_end12-__arm_cp.11_2
__arm_cp.11_3:
	.long	1074069760                      @ 0x40050100
.Lcpi_end13:
	.size	__arm_cp.11_3, .Lcpi_end13-__arm_cp.11_3
__arm_cp.11_4:
	.long	16777215                        @ 0xffffff
.Lcpi_end14:
	.size	__arm_cp.11_4, .Lcpi_end14-__arm_cp.11_4
__arm_cp.11_5:
	.long	1074266112                      @ 0x40080000
.Lcpi_end15:
	.size	__arm_cp.11_5, .Lcpi_end15-__arm_cp.11_5
.Lfunc_end11:
	.size	TIMER_EnableFreqCounter, .Lfunc_end11-TIMER_EnableFreqCounter
	.cfi_endproc
	.cantunwind
	.fnend
                                        @ -- End function
	.section	.text.TIMER_DisableFreqCounter,"ax",%progbits
	.hidden	TIMER_DisableFreqCounter        @ -- Begin function TIMER_DisableFreqCounter
	.globl	TIMER_DisableFreqCounter
	.p2align	1
	.type	TIMER_DisableFreqCounter,%function
	.code	16                              @ @TIMER_DisableFreqCounter
	.thumb_func
TIMER_DisableFreqCounter:
.Lfunc_begin12:
	.loc	4 366 0 is_stmt 1               @ ../../../../Library/StdDriver/src/timer.c:366:0
	.fnstart
	.cfi_startproc
@ %bb.0:
	.pad	#4
	sub	sp, #4
	.cfi_def_cfa_offset 4
	str	r0, [sp]
.Ltmp104:
	.loc	4 367 5 prologue_end            @ ../../../../Library/StdDriver/src/timer.c:367:5
	ldr	r1, [sp]
	.loc	4 367 16 is_stmt 0              @ ../../../../Library/StdDriver/src/timer.c:367:16
	ldr	r0, [r1]
	movs	r2, #1
	lsls	r2, r2, #19
	bics	r0, r2
	str	r0, [r1]
	.loc	4 368 1 is_stmt 1               @ ../../../../Library/StdDriver/src/timer.c:368:1
	add	sp, #4
	bx	lr
.Ltmp105:
.Lfunc_end12:
	.size	TIMER_DisableFreqCounter, .Lfunc_end12-TIMER_DisableFreqCounter
	.cfi_endproc
	.cantunwind
	.fnend
                                        @ -- End function
	.section	.text.TIMER_ResetCounter,"ax",%progbits
	.hidden	TIMER_ResetCounter              @ -- Begin function TIMER_ResetCounter
	.globl	TIMER_ResetCounter
	.p2align	2
	.type	TIMER_ResetCounter,%function
	.code	16                              @ @TIMER_ResetCounter
	.thumb_func
TIMER_ResetCounter:
.Lfunc_begin13:
	.loc	4 421 0                         @ ../../../../Library/StdDriver/src/timer.c:421:0
	.fnstart
	.cfi_startproc
@ %bb.0:
	.save	{r7, lr}
	push	{r7, lr}
	.cfi_def_cfa_offset 8
	.cfi_offset lr, -4
	.cfi_offset r7, -8
	.pad	#24
	sub	sp, #24
	.cfi_def_cfa_offset 32
	str	r0, [sp, #20]
.Ltmp106:
	.loc	4 424 5 prologue_end            @ ../../../../Library/StdDriver/src/timer.c:424:5
	ldr	r1, [sp, #20]
	movs	r0, #0
	.loc	4 424 16 is_stmt 0              @ ../../../../Library/StdDriver/src/timer.c:424:16
	str	r0, [r1, #12]
	.loc	4 426 17 is_stmt 1              @ ../../../../Library/StdDriver/src/timer.c:426:17
	ldr	r0, __arm_cp.13_0
	ldr	r0, [r0]
	.loc	4 426 56 is_stmt 0              @ ../../../../Library/StdDriver/src/timer.c:426:56
	str	r0, [sp, #12]                   @ 4-byte Spill
	ldr	r0, [sp, #20]
	.loc	4 426 35                        @ ../../../../Library/StdDriver/src/timer.c:426:35
	bl	TIMER_GetModuleClock
	mov	r1, r0
	.loc	4 426 33                        @ ../../../../Library/StdDriver/src/timer.c:426:33
	ldr	r0, [sp, #12]                   @ 4-byte Reload
	udiv	r1, r0, r1
	movs	r0, #3
	.loc	4 426 64                        @ ../../../../Library/StdDriver/src/timer.c:426:64
	muls	r0, r1, r0
	.loc	4 426 14                        @ ../../../../Library/StdDriver/src/timer.c:426:14
	str	r0, [sp, #16]
	.loc	4 428 5 is_stmt 1               @ ../../../../Library/StdDriver/src/timer.c:428:5
	b	.LBB13_1
.LBB13_1:                               @ =>This Inner Loop Header: Depth=1
	.loc	4 428 14 is_stmt 0              @ ../../../../Library/StdDriver/src/timer.c:428:14
	ldr	r0, [sp, #20]
	.loc	4 428 21                        @ ../../../../Library/StdDriver/src/timer.c:428:21
	ldr	r1, [r0, #12]
	movs	r0, #0
	.loc	4 428 74                        @ ../../../../Library/StdDriver/src/timer.c:428:74
	lsrs	r1, r1, #31
	cmp	r1, #1
	str	r0, [sp, #8]                    @ 4-byte Spill
	bne	.LBB13_3
	b	.LBB13_2
.LBB13_2:                               @   in Loop: Header=BB13_1 Depth=1
	.loc	4 428 78                        @ ../../../../Library/StdDriver/src/timer.c:428:78
	ldr	r0, [sp, #16]
	subs	r0, r0, #1
	str	r0, [sp, #16]
	.loc	4 428 74                        @ ../../../../Library/StdDriver/src/timer.c:428:74
	subs	r1, r0, #1
	sbcs	r0, r1
	str	r0, [sp, #8]                    @ 4-byte Spill
	b	.LBB13_3
.LBB13_3:                               @   in Loop: Header=BB13_1 Depth=1
	.loc	4 0 0                           @ ../../../../Library/StdDriver/src/timer.c:0:0
	ldr	r0, [sp, #8]                    @ 4-byte Reload
	.loc	4 428 5                         @ ../../../../Library/StdDriver/src/timer.c:428:5
	lsls	r0, r0, #31
	cbz	r0, .LBB13_5
	b	.LBB13_4
.LBB13_4:                               @   in Loop: Header=BB13_1 Depth=1
.Ltmp107:
	.loc	4 430 9 is_stmt 1               @ ../../../../Library/StdDriver/src/timer.c:430:9
	nop
.Ltmp108:
	.loc	4 428 5                         @ ../../../../Library/StdDriver/src/timer.c:428:5
	b	.LBB13_1
.LBB13_5:
	.loc	4 433 12                        @ ../../../../Library/StdDriver/src/timer.c:433:12
	ldr	r1, [sp, #16]
	movs	r0, #0
	str	r0, [sp]                        @ 4-byte Spill
	mvns	r0, r0
	str	r0, [sp, #4]                    @ 4-byte Spill
	cbz	r1, .LBB13_7
@ %bb.6:
	.loc	4 0 12 is_stmt 0                @ ../../../../Library/StdDriver/src/timer.c:0:12
	ldr	r0, [sp]                        @ 4-byte Reload
	str	r0, [sp, #4]                    @ 4-byte Spill
.LBB13_7:
	.loc	4 433 12                        @ ../../../../Library/StdDriver/src/timer.c:433:12
	ldr	r0, [sp, #4]                    @ 4-byte Reload
	.loc	4 433 5                         @ ../../../../Library/StdDriver/src/timer.c:433:5
	add	sp, #24
	pop	{r7, pc}
.Ltmp109:
	.p2align	2
@ %bb.8:
	.loc	4 0 5                           @ ../../../../Library/StdDriver/src/timer.c:0:5
__arm_cp.13_0:
	.long	SystemCoreClock
.Lcpi_end16:
	.size	__arm_cp.13_0, .Lcpi_end16-__arm_cp.13_0
.Lfunc_end13:
	.size	TIMER_ResetCounter, .Lfunc_end13-TIMER_ResetCounter
	.cfi_endproc
	.cantunwind
	.fnend
                                        @ -- End function
	.type	.L__const.TIMER_GetModuleClock.au32Clk,%object @ @__const.TIMER_GetModuleClock.au32Clk
	.section	.rodata.cst32,"aM",%progbits,32
	.p2align	2, 0x0
.L__const.TIMER_GetModuleClock.au32Clk:
	.long	12000000                        @ 0xb71b00
	.long	32768                           @ 0x8000
	.long	0                               @ 0x0
	.long	0                               @ 0x0
	.long	0                               @ 0x0
	.long	38400                           @ 0x9600
	.long	0                               @ 0x0
	.long	48000000                        @ 0x2dc6c00
	.size	.L__const.TIMER_GetModuleClock.au32Clk, 32

	.section	".note.GNU-stack","",%progbits
	.eabi_attribute	30, 6	@ Tag_ABI_optimization_goals
	.ARM_attribute	16, 1	@ Tag_AV_eba