	.text
	.syntax unified
	.eabi_attribute	67, "2.09"	@ Tag_conformance
	.cpu	cortex-m23
	.eabi_attribute	6, 16	@ Tag_CPU_arch
	.eabi_attribute	7, 77	@ Tag_CPU_arch_profile
	.eabi_attribute	8, 0	@ Tag_ARM_ISA_use
	.eabi_attribute	9, 3	@ Tag_THUMB_ISA_use
	.eabi_attribute	34, 0	@ Tag_CPU_unaligned_access
	.eabi_attribute	17, 1	@ Tag_ABI_PCS_GOT_use
	.eabi_attribute	20, 2	@ Tag_ABI_FP_denormal
	.eabi_attribute	21, 0	@ Tag_ABI_FP_exceptions
	.eabi_attribute	23, 1	@ Tag_ABI_FP_number_model
	.eabi_attribute	24, 1	@ Tag_ABI_align_needed
	.eabi_attribute	25, 1	@ Tag_ABI_align_preserved
	.eabi_attribute	38, 1	@ Tag_ABI_FP_16bit_format
	.eabi_attribute	18, 2	@ Tag_ABI_PCS_wchar_t
	.eabi_attribute	26, 1	@ Tag_ABI_enum_size
	.eabi_attribute	14, 0	@ Tag_ABI_PCS_R9_use
	.file	"uart.c"
	.file	1 "C:\\Keil_v5\\ARM\\ARMCLANG\\Bin\\..\\include" "stdint.h"
	.file	2 "E:\\ROBOCON2024\\01. Coding\\Nuvoton\\demo_robot_3wheel\\SampleCode\\NuCodeGen\\DemoCodeGen\\KEIL" "../../../../Library/Device/Nuvoton/M251/Include/uart_reg.h"
	.file	3 "E:\\ROBOCON2024\\01. Coding\\Nuvoton\\demo_robot_3wheel\\SampleCode\\NuCodeGen\\DemoCodeGen\\KEIL" "../../../../Library/Device/Nuvoton/M251/Include/clk_reg.h"
	.section	.text.UART_ClearIntFlag,"ax",%progbits
	.hidden	UART_ClearIntFlag               @ -- Begin function UART_ClearIntFlag
	.globl	UART_ClearIntFlag
	.p2align	2
	.type	UART_ClearIntFlag,%function
	.code	16                              @ @UART_ClearIntFlag
	.thumb_func
UART_ClearIntFlag:
.Lfunc_begin0:
	.file	4 "E:\\ROBOCON2024\\01. Coding\\Nuvoton\\demo_robot_3wheel\\SampleCode\\NuCodeGen\\DemoCodeGen\\KEIL" "../../../../Library/StdDriver/src/uart.c"
	.loc	4 41 0                          @ ../../../../Library/StdDriver/src/uart.c:41:0
	.fnstart
	.cfi_sections .debug_frame
	.cfi_startproc
@ %bb.0:
	.pad	#8
	sub	sp, #8
	.cfi_def_cfa_offset 8
	str	r0, [sp, #4]
	str	r1, [sp]
	mov	r0, sp
.Ltmp0:
	.loc	4 44 9 prologue_end             @ ../../../../Library/StdDriver/src/uart.c:44:9
	ldrb	r0, [r0, #3]
	lsls	r0, r0, #31
	cbz	r0, .LBB0_2
	b	.LBB0_1
.LBB0_1:
.Ltmp1:
	.loc	4 46 9                          @ ../../../../Library/StdDriver/src/uart.c:46:9
	ldr	r1, [sp, #4]
	movs	r0, #1
	lsls	r0, r0, #16
	.loc	4 46 23 is_stmt 0               @ ../../../../Library/StdDriver/src/uart.c:46:23
	str	r0, [r1, #24]
	.loc	4 47 5 is_stmt 1                @ ../../../../Library/StdDriver/src/uart.c:47:5
	b	.LBB0_2
.Ltmp2:
.LBB0_2:
	.loc	4 0 5 is_stmt 0                 @ ../../../../Library/StdDriver/src/uart.c:0:5
	mov	r0, sp
	.loc	4 49 9 is_stmt 1                @ ../../../../Library/StdDriver/src/uart.c:49:9
	ldrb	r0, [r0, #1]
	lsls	r0, r0, #29
	cmp	r0, #0
	bpl	.LBB0_4
	b	.LBB0_3
.LBB0_3:
.Ltmp3:
	.loc	4 51 9                          @ ../../../../Library/StdDriver/src/uart.c:51:9
	ldr	r1, [sp, #4]
	movs	r0, #120
	.loc	4 51 23 is_stmt 0               @ ../../../../Library/StdDriver/src/uart.c:51:23
	str	r0, [r1, #24]
	.loc	4 53 5 is_stmt 1                @ ../../../../Library/StdDriver/src/uart.c:53:5
	b	.LBB0_4
.Ltmp4:
.LBB0_4:
	.loc	4 0 5 is_stmt 0                 @ ../../../../Library/StdDriver/src/uart.c:0:5
	mov	r0, sp
	.loc	4 55 9 is_stmt 1                @ ../../../../Library/StdDriver/src/uart.c:55:9
	ldrb	r0, [r0, #1]
	lsls	r0, r0, #28
	cmp	r0, #0
	bpl	.LBB0_6
	b	.LBB0_5
.LBB0_5:
.Ltmp5:
	.loc	4 57 9                          @ ../../../../Library/StdDriver/src/uart.c:57:9
	ldr	r1, [sp, #4]
	.loc	4 57 24 is_stmt 0               @ ../../../../Library/StdDriver/src/uart.c:57:24
	ldr	r0, [r1, #20]
	movs	r2, #1
	orrs	r0, r2
	str	r0, [r1, #20]
	.loc	4 58 5 is_stmt 1                @ ../../../../Library/StdDriver/src/uart.c:58:5
	b	.LBB0_6
.Ltmp6:
.LBB0_6:
	.loc	4 0 5 is_stmt 0                 @ ../../../../Library/StdDriver/src/uart.c:0:5
	mov	r0, sp
	.loc	4 60 9 is_stmt 1                @ ../../../../Library/StdDriver/src/uart.c:60:9
	ldrb	r0, [r0, #1]
	lsls	r0, r0, #26
	cmp	r0, #0
	bpl	.LBB0_8
	b	.LBB0_7
.LBB0_7:
.Ltmp7:
	.loc	4 62 9                          @ ../../../../Library/StdDriver/src/uart.c:62:9
	ldr	r1, [sp, #4]
	ldr	r0, __arm_cp.0_0
	.loc	4 62 23 is_stmt 0               @ ../../../../Library/StdDriver/src/uart.c:62:23
	str	r0, [r1, #24]
	.loc	4 63 5 is_stmt 1                @ ../../../../Library/StdDriver/src/uart.c:63:5
	b	.LBB0_8
.Ltmp8:
.LBB0_8:
	.loc	4 0 5 is_stmt 0                 @ ../../../../Library/StdDriver/src/uart.c:0:5
	mov	r0, sp
	.loc	4 65 9 is_stmt 1                @ ../../../../Library/StdDriver/src/uart.c:65:9
	ldrb	r0, [r0, #1]
	lsls	r0, r0, #25
	cmp	r0, #0
	bpl	.LBB0_10
	b	.LBB0_9
.LBB0_9:
.Ltmp9:
	.loc	4 67 9                          @ ../../../../Library/StdDriver/src/uart.c:67:9
	ldr	r1, [sp, #4]
	movs	r0, #31
	.loc	4 67 21 is_stmt 0               @ ../../../../Library/StdDriver/src/uart.c:67:21
	str	r0, [r1, #68]
	.loc	4 70 5 is_stmt 1                @ ../../../../Library/StdDriver/src/uart.c:70:5
	b	.LBB0_10
.Ltmp10:
.LBB0_10:
	.loc	4 0 5 is_stmt 0                 @ ../../../../Library/StdDriver/src/uart.c:0:5
	mov	r0, sp
	.loc	4 72 9 is_stmt 1                @ ../../../../Library/StdDriver/src/uart.c:72:9
	ldrb	r0, [r0, #1]
	lsls	r0, r0, #24
	cmp	r0, #0
	bpl	.LBB0_12
	b	.LBB0_11
.LBB0_11:
.Ltmp11:
	.loc	4 74 9                          @ ../../../../Library/StdDriver/src/uart.c:74:9
	ldr	r1, [sp, #4]
	movs	r0, #128
	.loc	4 74 22 is_stmt 0               @ ../../../../Library/StdDriver/src/uart.c:74:22
	str	r0, [r1, #28]
	.loc	4 75 9 is_stmt 1                @ ../../../../Library/StdDriver/src/uart.c:75:9
	ldr	r1, [sp, #4]
	ldr	r0, __arm_cp.0_1
	.loc	4 75 22 is_stmt 0               @ ../../../../Library/StdDriver/src/uart.c:75:22
	str	r0, [r1, #56]
	.loc	4 78 5 is_stmt 1                @ ../../../../Library/StdDriver/src/uart.c:78:5
	b	.LBB0_12
.Ltmp12:
.LBB0_12:
	.loc	4 79 1                          @ ../../../../Library/StdDriver/src/uart.c:79:1
	add	sp, #8
	bx	lr
.Ltmp13:
	.p2align	2
@ %bb.13:
	.loc	4 0 1 is_stmt 0                 @ ../../../../Library/StdDriver/src/uart.c:0:1
__arm_cp.0_0:
	.long	16777217                        @ 0x1000001
.Lcpi_end0:
	.size	__arm_cp.0_0, .Lcpi_end0-__arm_cp.0_0
__arm_cp.0_1:
	.long	783                             @ 0x30f
.Lcpi_end1:
	.size	__arm_cp.0_1, .Lcpi_end1-__arm_cp.0_1
.Lfunc_end0:
	.size	UART_ClearIntFlag, .Lfunc_end0-UART_ClearIntFlag
	.cfi_endproc
	.cantunwind
	.fnend
                                        @ -- End function
	.section	.text.UART_Close,"ax",%progbits
	.hidden	UART_Close                      @ -- Begin function UART_Close
	.globl	UART_Close
	.p2align	1
	.type	UART_Close,%function
	.code	16                              @ @UART_Close
	.thumb_func
UART_Close:
.Lfunc_begin1:
	.loc	4 91 0 is_stmt 1                @ ../../../../Library/StdDriver/src/uart.c:91:0
	.fnstart
	.cfi_startproc
@ %bb.0:
	.pad	#4
	sub	sp, #4
	.cfi_def_cfa_offset 4
	str	r0, [sp]
.Ltmp14:
	.loc	4 92 5 prologue_end             @ ../../../../Library/StdDriver/src/uart.c:92:5
	ldr	r1, [sp]
	movs	r0, #0
	.loc	4 92 17 is_stmt 0               @ ../../../../Library/StdDriver/src/uart.c:92:17
	str	r0, [r1, #4]
	.loc	4 93 1 is_stmt 1                @ ../../../../Library/StdDriver/src/uart.c:93:1
	add	sp, #4
	bx	lr
.Ltmp15:
.Lfunc_end1:
	.size	UART_Close, .Lfunc_end1-UART_Close
	.cfi_endproc
	.cantunwind
	.fnend
                                        @ -- End function
	.section	.text.UART_DisableFlowCtrl,"ax",%progbits
	.hidden	UART_DisableFlowCtrl            @ -- Begin function UART_DisableFlowCtrl
	.globl	UART_DisableFlowCtrl
	.p2align	1
	.type	UART_DisableFlowCtrl,%function
	.code	16                              @ @UART_DisableFlowCtrl
	.thumb_func
UART_DisableFlowCtrl:
.Lfunc_begin2:
	.loc	4 105 0                         @ ../../../../Library/StdDriver/src/uart.c:105:0
	.fnstart
	.cfi_startproc
@ %bb.0:
	.pad	#4
	sub	sp, #4
	.cfi_def_cfa_offset 4
	str	r0, [sp]
.Ltmp16:
	.loc	4 106 5 prologue_end            @ ../../../../Library/StdDriver/src/uart.c:106:5
	ldr	r1, [sp]
	.loc	4 106 17 is_stmt 0              @ ../../../../Library/StdDriver/src/uart.c:106:17
	ldr	r0, [r1, #4]
	movw	r2, #12288
	bics	r0, r2
	str	r0, [r1, #4]
	.loc	4 107 1 is_stmt 1               @ ../../../../Library/StdDriver/src/uart.c:107:1
	add	sp, #4
	bx	lr
.Ltmp17:
.Lfunc_end2:
	.size	UART_DisableFlowCtrl, .Lfunc_end2-UART_DisableFlowCtrl
	.cfi_endproc
	.cantunwind
	.fnend
                                        @ -- End function
	.section	.text.UART_DisableInt,"ax",%progbits
	.hidden	UART_DisableInt                 @ -- Begin function UART_DisableInt
	.globl	UART_DisableInt
	.p2align	1
	.type	UART_DisableInt,%function
	.code	16                              @ @UART_DisableInt
	.thumb_func
UART_DisableInt:
.Lfunc_begin3:
	.loc	4 129 0                         @ ../../../../Library/StdDriver/src/uart.c:129:0
	.fnstart
	.cfi_startproc
@ %bb.0:
	.pad	#8
	sub	sp, #8
	.cfi_def_cfa_offset 8
	str	r0, [sp, #4]
	str	r1, [sp]
.Ltmp18:
	.loc	4 131 5 prologue_end            @ ../../../../Library/StdDriver/src/uart.c:131:5
	ldr	r2, [sp]
	ldr	r1, [sp, #4]
	ldr	r0, [r1, #4]
	bics	r0, r2
	str	r0, [r1, #4]
	.loc	4 132 1                         @ ../../../../Library/StdDriver/src/uart.c:132:1
	add	sp, #8
	bx	lr
.Ltmp19:
.Lfunc_end3:
	.size	UART_DisableInt, .Lfunc_end3-UART_DisableInt
	.cfi_endproc
	.cantunwind
	.fnend
                                        @ -- End function
	.section	.text.UART_EnableFlowCtrl,"ax",%progbits
	.hidden	UART_EnableFlowCtrl             @ -- Begin function UART_EnableFlowCtrl
	.globl	UART_EnableFlowCtrl
	.p2align	1
	.type	UART_EnableFlowCtrl,%function
	.code	16                              @ @UART_EnableFlowCtrl
	.thumb_func
UART_EnableFlowCtrl:
.Lfunc_begin4:
	.loc	4 144 0                         @ ../../../../Library/StdDriver/src/uart.c:144:0
	.fnstart
	.cfi_startproc
@ %bb.0:
	.pad	#4
	sub	sp, #4
	.cfi_def_cfa_offset 4
	str	r0, [sp]
.Ltmp20:
	.loc	4 146 5 prologue_end            @ ../../../../Library/StdDriver/src/uart.c:146:5
	ldr	r1, [sp]
	.loc	4 146 17 is_stmt 0              @ ../../../../Library/StdDriver/src/uart.c:146:17
	ldr	r0, [r1, #16]
	movw	r2, #512
	orrs	r0, r2
	str	r0, [r1, #16]
	.loc	4 149 5 is_stmt 1               @ ../../../../Library/StdDriver/src/uart.c:149:5
	ldr	r1, [sp]
	.loc	4 149 20 is_stmt 0              @ ../../../../Library/StdDriver/src/uart.c:149:20
	ldr	r0, [r1, #20]
	movw	r2, #256
	orrs	r0, r2
	str	r0, [r1, #20]
	.loc	4 152 5 is_stmt 1               @ ../../../../Library/StdDriver/src/uart.c:152:5
	ldr	r1, [sp]
	.loc	4 152 17 is_stmt 0              @ ../../../../Library/StdDriver/src/uart.c:152:17
	ldr	r0, [r1, #4]
	movw	r2, #12288
	orrs	r0, r2
	str	r0, [r1, #4]
	.loc	4 153 1 is_stmt 1               @ ../../../../Library/StdDriver/src/uart.c:153:1
	add	sp, #4
	bx	lr
.Ltmp21:
.Lfunc_end4:
	.size	UART_EnableFlowCtrl, .Lfunc_end4-UART_EnableFlowCtrl
	.cfi_endproc
	.cantunwind
	.fnend
                                        @ -- End function
	.section	.text.UART_EnableInt,"ax",%progbits
	.hidden	UART_EnableInt                  @ -- Begin function UART_EnableInt
	.globl	UART_EnableInt
	.p2align	1
	.type	UART_EnableInt,%function
	.code	16                              @ @UART_EnableInt
	.thumb_func
UART_EnableInt:
.Lfunc_begin5:
	.loc	4 175 0                         @ ../../../../Library/StdDriver/src/uart.c:175:0
	.fnstart
	.cfi_startproc
@ %bb.0:
	.pad	#8
	sub	sp, #8
	.cfi_def_cfa_offset 8
	str	r0, [sp, #4]
	str	r1, [sp]
.Ltmp22:
	.loc	4 177 5 prologue_end            @ ../../../../Library/StdDriver/src/uart.c:177:5
	ldr	r2, [sp]
	ldr	r1, [sp, #4]
	ldr	r0, [r1, #4]
	orrs	r0, r2
	str	r0, [r1, #4]
	.loc	4 178 1                         @ ../../../../Library/StdDriver/src/uart.c:178:1
	add	sp, #8
	bx	lr
.Ltmp23:
.Lfunc_end5:
	.size	UART_EnableInt, .Lfunc_end5-UART_EnableInt
	.cfi_endproc
	.cantunwind
	.fnend
                                        @ -- End function
	.section	.text.UART_Open,"ax",%progbits
	.hidden	UART_Open                       @ -- Begin function UART_Open
	.globl	UART_Open
	.p2align	2
	.type	UART_Open,%function
	.code	16                              @ @UART_Open
	.thumb_func
UART_Open:
.Lfunc_begin6:
	.loc	4 191 0                         @ ../../../../Library/StdDriver/src/uart.c:191:0
	.fnstart
	.cfi_startproc
@ %bb.0:
	.save	{r4, lr}
	push	{r4, lr}
	.cfi_def_cfa_offset 8
	.cfi_offset lr, -4
	.cfi_offset r4, -8
	.pad	#48
	sub	sp, #48
	.cfi_def_cfa_offset 56
	str	r0, [sp, #44]
	str	r1, [sp, #40]
	movs	r0, #0
.Ltmp24:
	.loc	4 192 14 prologue_end           @ ../../../../Library/StdDriver/src/uart.c:192:14
	str	r0, [sp, #36]
	.loc	4 192 38 is_stmt 0              @ ../../../../Library/StdDriver/src/uart.c:192:38
	str	r0, [sp, #32]
	.loc	4 193 14 is_stmt 1              @ ../../../../Library/StdDriver/src/uart.c:193:14
	ldr	r1, __arm_cp.6_0
	add	r0, sp, #8
	ldm	r1!, {r2, r3, r4}
	stm	r0!, {r2, r3, r4}
	ldm	r1!, {r2, r3, r4}
	stm	r0!, {r2, r3, r4}
.Ltmp25:
	.loc	4 195 9                         @ ../../../../Library/StdDriver/src/uart.c:195:9
	ldr	r0, [sp, #44]
	ldr	r1, __arm_cp.6_1
.Ltmp26:
	.loc	4 195 9 is_stmt 0               @ ../../../../Library/StdDriver/src/uart.c:195:9
	cmp	r0, r1
	bne	.LBB6_2
	b	.LBB6_1
.LBB6_1:
	.loc	4 0 9                           @ ../../../../Library/StdDriver/src/uart.c:0:9
	ldr	r0, __arm_cp.6_7
.Ltmp27:
	.loc	4 198 45 is_stmt 1              @ ../../../../Library/StdDriver/src/uart.c:198:45
	ldr	r0, [r0]
	movs	r1, #7
	lsls	r1, r1, #24
	.loc	4 198 53 is_stmt 0              @ ../../../../Library/StdDriver/src/uart.c:198:53
	ands	r0, r1
	.loc	4 198 82                        @ ../../../../Library/StdDriver/src/uart.c:198:82
	lsrs	r0, r0, #24
	.loc	4 198 26                        @ ../../../../Library/StdDriver/src/uart.c:198:26
	str	r0, [sp, #36]
	ldr	r0, __arm_cp.6_8
	.loc	4 200 34 is_stmt 1              @ ../../../../Library/StdDriver/src/uart.c:200:34
	ldr	r0, [r0]
	movw	r1, #3840
	.loc	4 200 42 is_stmt 0              @ ../../../../Library/StdDriver/src/uart.c:200:42
	ands	r0, r1
	.loc	4 200 70                        @ ../../../../Library/StdDriver/src/uart.c:200:70
	lsrs	r0, r0, #8
	.loc	4 200 26                        @ ../../../../Library/StdDriver/src/uart.c:200:26
	str	r0, [sp, #32]
	.loc	4 201 5 is_stmt 1               @ ../../../../Library/StdDriver/src/uart.c:201:5
	b	.LBB6_11
.Ltmp28:
.LBB6_2:
	.loc	4 202 14                        @ ../../../../Library/StdDriver/src/uart.c:202:14
	ldr	r0, [sp, #44]
	ldr	r1, __arm_cp.6_2
.Ltmp29:
	.loc	4 202 14 is_stmt 0              @ ../../../../Library/StdDriver/src/uart.c:202:14
	cmp	r0, r1
	bne	.LBB6_4
	b	.LBB6_3
.LBB6_3:
	.loc	4 0 14                          @ ../../../../Library/StdDriver/src/uart.c:0:14
	ldr	r0, __arm_cp.6_7
.Ltmp30:
	.loc	4 205 34 is_stmt 1              @ ../../../../Library/StdDriver/src/uart.c:205:34
	ldr	r0, [r0]
	movs	r1, #7
	lsls	r1, r1, #28
	.loc	4 205 42 is_stmt 0              @ ../../../../Library/StdDriver/src/uart.c:205:42
	ands	r0, r1
	.loc	4 205 70                        @ ../../../../Library/StdDriver/src/uart.c:205:70
	lsrs	r0, r0, #28
	.loc	4 205 26                        @ ../../../../Library/StdDriver/src/uart.c:205:26
	str	r0, [sp, #36]
	ldr	r0, __arm_cp.6_8
	.loc	4 207 34 is_stmt 1              @ ../../../../Library/StdDriver/src/uart.c:207:34
	ldr	r0, [r0]
	.loc	4 207 42 is_stmt 0              @ ../../../../Library/StdDriver/src/uart.c:207:42
	uxth	r0, r0
	.loc	4 207 70                        @ ../../../../Library/StdDriver/src/uart.c:207:70
	lsrs	r0, r0, #12
	.loc	4 207 26                        @ ../../../../Library/StdDriver/src/uart.c:207:26
	str	r0, [sp, #32]
	.loc	4 208 5 is_stmt 1               @ ../../../../Library/StdDriver/src/uart.c:208:5
	b	.LBB6_10
.Ltmp31:
.LBB6_4:
	.loc	4 209 14                        @ ../../../../Library/StdDriver/src/uart.c:209:14
	ldr	r0, [sp, #44]
	ldr	r1, __arm_cp.6_3
.Ltmp32:
	.loc	4 209 14 is_stmt 0              @ ../../../../Library/StdDriver/src/uart.c:209:14
	cmp	r0, r1
	bne	.LBB6_6
	b	.LBB6_5
.LBB6_5:
	.loc	4 0 14                          @ ../../../../Library/StdDriver/src/uart.c:0:14
	ldr	r0, __arm_cp.6_5
.Ltmp33:
	.loc	4 212 34 is_stmt 1              @ ../../../../Library/StdDriver/src/uart.c:212:34
	ldr	r0, [r0]
	movs	r1, #7
	lsls	r1, r1, #24
	.loc	4 212 42 is_stmt 0              @ ../../../../Library/StdDriver/src/uart.c:212:42
	ands	r0, r1
	.loc	4 212 70                        @ ../../../../Library/StdDriver/src/uart.c:212:70
	lsrs	r0, r0, #24
	.loc	4 212 26                        @ ../../../../Library/StdDriver/src/uart.c:212:26
	str	r0, [sp, #36]
	ldr	r0, __arm_cp.6_6
	.loc	4 214 34 is_stmt 1              @ ../../../../Library/StdDriver/src/uart.c:214:34
	ldr	r0, [r0]
	movs	r1, #15
	.loc	4 214 42 is_stmt 0              @ ../../../../Library/StdDriver/src/uart.c:214:42
	ands	r0, r1
	.loc	4 214 26                        @ ../../../../Library/StdDriver/src/uart.c:214:26
	str	r0, [sp, #32]
	.loc	4 215 5 is_stmt 1               @ ../../../../Library/StdDriver/src/uart.c:215:5
	b	.LBB6_9
.Ltmp34:
.LBB6_6:
	.loc	4 216 14                        @ ../../../../Library/StdDriver/src/uart.c:216:14
	ldr	r0, [sp, #44]
	ldr	r1, __arm_cp.6_4
.Ltmp35:
	.loc	4 216 14 is_stmt 0              @ ../../../../Library/StdDriver/src/uart.c:216:14
	cmp	r0, r1
	bne	.LBB6_8
	b	.LBB6_7
.LBB6_7:
	.loc	4 0 14                          @ ../../../../Library/StdDriver/src/uart.c:0:14
	ldr	r0, __arm_cp.6_5
.Ltmp36:
	.loc	4 219 34 is_stmt 1              @ ../../../../Library/StdDriver/src/uart.c:219:34
	ldr	r0, [r0]
	movs	r1, #7
	lsls	r1, r1, #28
	.loc	4 219 42 is_stmt 0              @ ../../../../Library/StdDriver/src/uart.c:219:42
	ands	r0, r1
	.loc	4 219 70                        @ ../../../../Library/StdDriver/src/uart.c:219:70
	lsrs	r0, r0, #28
	.loc	4 219 26                        @ ../../../../Library/StdDriver/src/uart.c:219:26
	str	r0, [sp, #36]
	ldr	r0, __arm_cp.6_6
	.loc	4 221 34 is_stmt 1              @ ../../../../Library/StdDriver/src/uart.c:221:34
	ldr	r0, [r0]
	.loc	4 221 42 is_stmt 0              @ ../../../../Library/StdDriver/src/uart.c:221:42
	uxtb	r0, r0
	.loc	4 221 70                        @ ../../../../Library/StdDriver/src/uart.c:221:70
	lsrs	r0, r0, #4
	.loc	4 221 26                        @ ../../../../Library/StdDriver/src/uart.c:221:26
	str	r0, [sp, #32]
	.loc	4 222 5 is_stmt 1               @ ../../../../Library/StdDriver/src/uart.c:222:5
	b	.LBB6_8
.Ltmp37:
.LBB6_8:
	.loc	4 0 5 is_stmt 0                 @ ../../../../Library/StdDriver/src/uart.c:0:5
	b	.LBB6_9
.LBB6_9:
	b	.LBB6_10
.LBB6_10:
	b	.LBB6_11
.LBB6_11:
	.loc	4 225 5 is_stmt 1               @ ../../../../Library/StdDriver/src/uart.c:225:5
	ldr	r1, [sp, #44]
	movs	r0, #0
	.loc	4 225 19 is_stmt 0              @ ../../../../Library/StdDriver/src/uart.c:225:19
	str	r0, [r1, #48]
	.loc	4 228 5 is_stmt 1               @ ../../../../Library/StdDriver/src/uart.c:228:5
	ldr	r1, [sp, #44]
	movs	r0, #3
	.loc	4 228 16 is_stmt 0              @ ../../../../Library/StdDriver/src/uart.c:228:16
	str	r0, [r1, #12]
	.loc	4 231 5 is_stmt 1               @ ../../../../Library/StdDriver/src/uart.c:231:5
	ldr	r1, [sp, #44]
	.loc	4 231 16 is_stmt 0              @ ../../../../Library/StdDriver/src/uart.c:231:16
	ldr	r0, [r1, #8]
	ldr	r2, __arm_cp.6_9
	ands	r0, r2
	str	r0, [r1, #8]
.Ltmp38:
	.loc	4 234 9 is_stmt 1               @ ../../../../Library/StdDriver/src/uart.c:234:9
	ldr	r0, [sp, #36]
.Ltmp39:
	.loc	4 234 9 is_stmt 0               @ ../../../../Library/StdDriver/src/uart.c:234:9
	cmp	r0, #1
	bne	.LBB6_13
	b	.LBB6_12
.LBB6_12:
.Ltmp40:
	.loc	4 236 40 is_stmt 1              @ ../../../../Library/StdDriver/src/uart.c:236:40
	bl	CLK_GetPLLClockFreq
	.loc	4 236 20 is_stmt 0              @ ../../../../Library/StdDriver/src/uart.c:236:20
	ldr	r1, [sp, #36]
	.loc	4 236 9                         @ ../../../../Library/StdDriver/src/uart.c:236:9
	lsls	r2, r1, #2
	add	r1, sp, #8
	.loc	4 236 38                        @ ../../../../Library/StdDriver/src/uart.c:236:38
	str	r0, [r1, r2]
	.loc	4 237 5 is_stmt 1               @ ../../../../Library/StdDriver/src/uart.c:237:5
	b	.LBB6_13
.Ltmp41:
.LBB6_13:
	.loc	4 240 9                         @ ../../../../Library/StdDriver/src/uart.c:240:9
	ldr	r0, [sp, #36]
.Ltmp42:
	.loc	4 240 9 is_stmt 0               @ ../../../../Library/StdDriver/src/uart.c:240:9
	cmp	r0, #4
	bne	.LBB6_19
	b	.LBB6_14
.LBB6_14:
.Ltmp43:
	.loc	4 243 14 is_stmt 1              @ ../../../../Library/StdDriver/src/uart.c:243:14
	ldr	r0, [sp, #44]
	ldr	r1, __arm_cp.6_1
	.loc	4 243 39 is_stmt 0              @ ../../../../Library/StdDriver/src/uart.c:243:39
	cmp	r0, r1
	beq	.LBB6_16
	b	.LBB6_15
.LBB6_15:
	.loc	4 243 43                        @ ../../../../Library/StdDriver/src/uart.c:243:43
	ldr	r0, [sp, #44]
	ldr	r1, __arm_cp.6_3
.Ltmp44:
	.loc	4 243 13                        @ ../../../../Library/StdDriver/src/uart.c:243:13
	cmp	r0, r1
	bne	.LBB6_17
	b	.LBB6_16
.LBB6_16:
.Ltmp45:
	.loc	4 245 45 is_stmt 1              @ ../../../../Library/StdDriver/src/uart.c:245:45
	bl	CLK_GetPCLK0Freq
	.loc	4 245 24 is_stmt 0              @ ../../../../Library/StdDriver/src/uart.c:245:24
	ldr	r1, [sp, #36]
	.loc	4 245 13                        @ ../../../../Library/StdDriver/src/uart.c:245:13
	lsls	r2, r1, #2
	add	r1, sp, #8
	.loc	4 245 42                        @ ../../../../Library/StdDriver/src/uart.c:245:42
	str	r0, [r1, r2]
	.loc	4 246 9 is_stmt 1               @ ../../../../Library/StdDriver/src/uart.c:246:9
	b	.LBB6_18
.Ltmp46:
.LBB6_17:
	.loc	4 249 45                        @ ../../../../Library/StdDriver/src/uart.c:249:45
	bl	CLK_GetPCLK1Freq
	.loc	4 249 24 is_stmt 0              @ ../../../../Library/StdDriver/src/uart.c:249:24
	ldr	r1, [sp, #36]
	.loc	4 249 13                        @ ../../../../Library/StdDriver/src/uart.c:249:13
	lsls	r2, r1, #2
	add	r1, sp, #8
	.loc	4 249 42                        @ ../../../../Library/StdDriver/src/uart.c:249:42
	str	r0, [r1, r2]
	b	.LBB6_18
.Ltmp47:
.LBB6_18:
	.loc	4 252 5 is_stmt 1               @ ../../../../Library/StdDriver/src/uart.c:252:5
	b	.LBB6_19
.Ltmp48:
.LBB6_19:
	.loc	4 255 9                         @ ../../../../Library/StdDriver/src/uart.c:255:9
	ldr	r0, [sp, #40]
.Ltmp49:
	.loc	4 255 9 is_stmt 0               @ ../../../../Library/StdDriver/src/uart.c:255:9
	cbz	r0, .LBB6_24
	b	.LBB6_20
.LBB6_20:
.Ltmp50:
	.loc	4 259 23 is_stmt 1              @ ../../../../Library/StdDriver/src/uart.c:259:23
	ldr	r0, [sp, #36]
	lsls	r1, r0, #2
	add	r0, sp, #8
	ldr	r0, [r0, r1]
	ldr	r1, [sp, #32]
	adds	r1, r1, #1
	udiv	r0, r0, r1
	ldr	r1, [sp, #40]
	lsrs	r2, r1, #1
	adds	r0, r0, r2
	udiv	r0, r0, r1
	subs	r0, r0, #2
	.loc	4 259 21 is_stmt 0              @ ../../../../Library/StdDriver/src/uart.c:259:21
	str	r0, [sp, #4]
	add	r0, sp, #4
.Ltmp51:
	.loc	4 261 13 is_stmt 1              @ ../../../../Library/StdDriver/src/uart.c:261:13
	ldrh	r0, [r0, #2]
.Ltmp52:
	.loc	4 261 13 is_stmt 0              @ ../../../../Library/StdDriver/src/uart.c:261:13
	cbz	r0, .LBB6_22
	b	.LBB6_21
.LBB6_21:
.Ltmp53:
	.loc	4 263 45 is_stmt 1              @ ../../../../Library/StdDriver/src/uart.c:263:45
	ldr	r0, [sp, #36]
	lsls	r1, r0, #2
	add	r0, sp, #8
	ldr	r0, [r0, r1]
	ldr	r1, [sp, #32]
	adds	r1, r1, #1
	udiv	r0, r0, r1
	ldr	r1, [sp, #40]
	lsls	r2, r1, #3
	adds	r0, r0, r2
	udiv	r0, r0, r1
	lsrs	r0, r0, #4
	subs	r0, r0, #2
	.loc	4 263 13 is_stmt 0              @ ../../../../Library/StdDriver/src/uart.c:263:13
	ldr	r1, [sp, #44]
	.loc	4 263 24                        @ ../../../../Library/StdDriver/src/uart.c:263:24
	str	r0, [r1, #36]
	.loc	4 264 9 is_stmt 1               @ ../../../../Library/StdDriver/src/uart.c:264:9
	b	.LBB6_23
.Ltmp54:
.LBB6_22:
	.loc	4 267 45                        @ ../../../../Library/StdDriver/src/uart.c:267:45
	ldr	r0, [sp, #4]
	movs	r1, #3
	lsls	r1, r1, #28
	.loc	4 267 43 is_stmt 0              @ ../../../../Library/StdDriver/src/uart.c:267:43
	orrs	r0, r1
	.loc	4 267 13                        @ ../../../../Library/StdDriver/src/uart.c:267:13
	ldr	r1, [sp, #44]
	.loc	4 267 24                        @ ../../../../Library/StdDriver/src/uart.c:267:24
	str	r0, [r1, #36]
	b	.LBB6_23
.Ltmp55:
.LBB6_23:
	.loc	4 269 5 is_stmt 1               @ ../../../../Library/StdDriver/src/uart.c:269:5
	b	.LBB6_24
.Ltmp56:
.LBB6_24:
	.loc	4 270 1                         @ ../../../../Library/StdDriver/src/uart.c:270:1
	add	sp, #48
	pop	{r4, pc}
.Ltmp57:
	.p2align	2
@ %bb.25:
	.loc	4 0 1 is_stmt 0                 @ ../../../../Library/StdDriver/src/uart.c:0:1
__arm_cp.6_0:
	.long	.L__const.UART_Open.au32ClkTbl
.Lcpi_end2:
	.size	__arm_cp.6_0, .Lcpi_end2-__arm_cp.6_0
__arm_cp.6_1:
	.long	1074200576                      @ 0x40070000
.Lcpi_end3:
	.size	__arm_cp.6_1, .Lcpi_end3-__arm_cp.6_1
__arm_cp.6_2:
	.long	1074204672                      @ 0x40071000
.Lcpi_end4:
	.size	__arm_cp.6_2, .Lcpi_end4-__arm_cp.6_2
__arm_cp.6_3:
	.long	1074208768                      @ 0x40072000
.Lcpi_end5:
	.size	__arm_cp.6_3, .Lcpi_end5-__arm_cp.6_3
__arm_cp.6_4:
	.long	1074212864                      @ 0x40073000
.Lcpi_end6:
	.size	__arm_cp.6_4, .Lcpi_end6-__arm_cp.6_4
__arm_cp.6_5:
	.long	1073742364                      @ 0x4000021c
.Lcpi_end7:
	.size	__arm_cp.6_5, .Lcpi_end7-__arm_cp.6_5
__arm_cp.6_6:
	.long	1073742384                      @ 0x40000230
.Lcpi_end8:
	.size	__arm_cp.6_6, .Lcpi_end8-__arm_cp.6_6
__arm_cp.6_7:
	.long	1073742356                      @ 0x40000214
.Lcpi_end9:
	.size	__arm_cp.6_7, .Lcpi_end9-__arm_cp.6_7
__arm_cp.6_8:
	.long	1073742368                      @ 0x40000220
.Lcpi_end10:
	.size	__arm_cp.6_8, .Lcpi_end10-__arm_cp.6_8
__arm_cp.6_9:
	.long	4293984015                      @ 0xfff0ff0f
.Lcpi_end11:
	.size	__arm_cp.6_9, .Lcpi_end11-__arm_cp.6_9
.Lfunc_end6:
	.size	UART_Open, .Lfunc_end6-UART_Open
	.cfi_endproc
	.cantunwind
	.fnend
                                        @ -- End function
	.section	.text.UART_Read,"ax",%progbits
	.hidden	UART_Read                       @ -- Begin function UART_Read
	.globl	UART_Read
	.p2align	1
	.type	UART_Read,%function
	.code	16                              @ @UART_Read
	.thumb_func
UART_Read:
.Lfunc_begin7:
	.loc	4 285 0 is_stmt 1               @ ../../../../Library/StdDriver/src/uart.c:285:0
	.fnstart
	.cfi_startproc
@ %bb.0:
	.pad	#24
	sub	sp, #24
	.cfi_def_cfa_offset 24
	str	r0, [sp, #20]
	str	r1, [sp, #16]
	str	r2, [sp, #12]
	movs	r0, #0
.Ltmp58:
	.loc	4 287 15 prologue_end           @ ../../../../Library/StdDriver/src/uart.c:287:15
	str	r0, [sp, #4]
.Ltmp59:
	.loc	4 289 19                        @ ../../../../Library/StdDriver/src/uart.c:289:19
	str	r0, [sp, #8]
	.loc	4 289 10 is_stmt 0              @ ../../../../Library/StdDriver/src/uart.c:289:10
	b	.LBB7_1
.LBB7_1:                                @ =>This Loop Header: Depth=1
                                        @     Child Loop BB7_3 Depth 2
.Ltmp60:
	.loc	4 289 26                        @ ../../../../Library/StdDriver/src/uart.c:289:26
	ldr	r0, [sp, #8]
	.loc	4 289 37                        @ ../../../../Library/StdDriver/src/uart.c:289:37
	ldr	r1, [sp, #12]
.Ltmp61:
	.loc	4 289 5                         @ ../../../../Library/StdDriver/src/uart.c:289:5
	cmp	r0, r1
	bhs	.LBB7_13
	b	.LBB7_2
.LBB7_2:                                @   in Loop: Header=BB7_1 Depth=1
	.loc	4 0 5                           @ ../../../../Library/StdDriver/src/uart.c:0:5
	movs	r0, #0
.Ltmp62:
	.loc	4 291 18 is_stmt 1              @ ../../../../Library/StdDriver/src/uart.c:291:18
	str	r0, [sp]
	.loc	4 293 9                         @ ../../../../Library/StdDriver/src/uart.c:293:9
	b	.LBB7_3
.LBB7_3:                                @   Parent Loop BB7_1 Depth=1
                                        @ =>  This Inner Loop Header: Depth=2
	.loc	4 293 16 is_stmt 0              @ ../../../../Library/StdDriver/src/uart.c:293:16
	ldr	r0, [sp, #20]
	.loc	4 293 22                        @ ../../../../Library/StdDriver/src/uart.c:293:22
	ldr	r0, [r0, #24]
	.loc	4 293 9                         @ ../../../../Library/StdDriver/src/uart.c:293:9
	lsls	r0, r0, #17
	cmp	r0, #0
	bpl	.LBB7_8
	b	.LBB7_4
.LBB7_4:                                @   in Loop: Header=BB7_3 Depth=2
.Ltmp63:
	.loc	4 295 24 is_stmt 1              @ ../../../../Library/StdDriver/src/uart.c:295:24
	ldr	r0, [sp]
	adds	r0, r0, #1
	str	r0, [sp]
.Ltmp64:
	.loc	4 297 17                        @ ../../../../Library/StdDriver/src/uart.c:297:17
	ldr	r0, [sp]
.Ltmp65:
	.loc	4 297 17 is_stmt 0              @ ../../../../Library/StdDriver/src/uart.c:297:17
	lsrs	r0, r0, #30
	cbz	r0, .LBB7_6
	b	.LBB7_5
.LBB7_5:                                @   in Loop: Header=BB7_1 Depth=1
	.loc	4 0 17                          @ ../../../../Library/StdDriver/src/uart.c:0:17
	movs	r0, #1
.Ltmp66:
	.loc	4 299 25 is_stmt 1              @ ../../../../Library/StdDriver/src/uart.c:299:25
	str	r0, [sp, #4]
	.loc	4 300 17                        @ ../../../../Library/StdDriver/src/uart.c:300:17
	b	.LBB7_8
.Ltmp67:
.LBB7_6:                                @   in Loop: Header=BB7_3 Depth=2
	.loc	4 0 17 is_stmt 0                @ ../../../../Library/StdDriver/src/uart.c:0:17
	b	.LBB7_7
.LBB7_7:                                @   in Loop: Header=BB7_3 Depth=2
	.loc	4 293 9 is_stmt 1               @ ../../../../Library/StdDriver/src/uart.c:293:9
	b	.LBB7_3
.LBB7_8:                                @   in Loop: Header=BB7_1 Depth=1
.Ltmp68:
	.loc	4 307 13                        @ ../../../../Library/StdDriver/src/uart.c:307:13
	ldr	r0, [sp, #4]
.Ltmp69:
	.loc	4 307 13 is_stmt 0              @ ../../../../Library/StdDriver/src/uart.c:307:13
	cmp	r0, #1
	bne	.LBB7_10
	b	.LBB7_9
.LBB7_9:
.Ltmp70:
	.loc	4 309 13 is_stmt 1              @ ../../../../Library/StdDriver/src/uart.c:309:13
	b	.LBB7_13
.Ltmp71:
.LBB7_10:                               @   in Loop: Header=BB7_1 Depth=1
	.loc	4 313 43                        @ ../../../../Library/StdDriver/src/uart.c:313:43
	ldr	r0, [sp, #20]
	.loc	4 313 49 is_stmt 0              @ ../../../../Library/StdDriver/src/uart.c:313:49
	ldr	r0, [r0]
	.loc	4 313 13                        @ ../../../../Library/StdDriver/src/uart.c:313:13
	ldr	r1, [sp, #16]
	.loc	4 313 22                        @ ../../../../Library/StdDriver/src/uart.c:313:22
	ldr	r2, [sp, #8]
	.loc	4 313 32                        @ ../../../../Library/StdDriver/src/uart.c:313:32
	strb	r0, [r1, r2]
	b	.LBB7_11
.Ltmp72:
.LBB7_11:                               @   in Loop: Header=BB7_1 Depth=1
	.loc	4 315 5 is_stmt 1               @ ../../../../Library/StdDriver/src/uart.c:315:5
	b	.LBB7_12
.Ltmp73:
.LBB7_12:                               @   in Loop: Header=BB7_1 Depth=1
	.loc	4 289 59                        @ ../../../../Library/StdDriver/src/uart.c:289:59
	ldr	r0, [sp, #8]
	adds	r0, r0, #1
	str	r0, [sp, #8]
	.loc	4 289 5 is_stmt 0               @ ../../../../Library/StdDriver/src/uart.c:289:5
	b	.LBB7_1
.Ltmp74:
.LBB7_13:
	.loc	4 317 12 is_stmt 1              @ ../../../../Library/StdDriver/src/uart.c:317:12
	ldr	r0, [sp, #8]
	.loc	4 317 5 is_stmt 0               @ ../../../../Library/StdDriver/src/uart.c:317:5
	add	sp, #24
	bx	lr
.Ltmp75:
.Lfunc_end7:
	.size	UART_Read, .Lfunc_end7-UART_Read
	.cfi_endproc
	.cantunwind
	.fnend
                                        @ -- End function
	.section	.text.UART_SetLine_Config,"ax",%progbits
	.hidden	UART_SetLine_Config             @ -- Begin function UART_SetLine_Config
	.globl	UART_SetLine_Config
	.p2align	2
	.type	UART_SetLine_Config,%function
	.code	16                              @ @UART_SetLine_Config
	.thumb_func
UART_SetLine_Config:
.Lfunc_begin8:
	.loc	4 348 0 is_stmt 1               @ ../../../../Library/StdDriver/src/uart.c:348:0
	.fnstart
	.cfi_startproc
@ %bb.0:
	.save	{r4, lr}
	push	{r4, lr}
	.cfi_def_cfa_offset 8
	.cfi_offset lr, -4
	.cfi_offset r4, -8
	.pad	#56
	sub	sp, #56
	.cfi_def_cfa_offset 64
	ldr	r4, [sp, #64]
	str	r0, [sp, #52]
	str	r1, [sp, #48]
	str	r2, [sp, #44]
	str	r3, [sp, #40]
	movs	r0, #0
.Ltmp76:
	.loc	4 349 14 prologue_end           @ ../../../../Library/StdDriver/src/uart.c:349:14
	str	r0, [sp, #36]
	.loc	4 349 38 is_stmt 0              @ ../../../../Library/StdDriver/src/uart.c:349:38
	str	r0, [sp, #32]
	.loc	4 350 14 is_stmt 1              @ ../../../../Library/StdDriver/src/uart.c:350:14
	ldr	r1, __arm_cp.8_0
	add	r0, sp, #8
	ldm	r1!, {r2, r3, r4}
	stm	r0!, {r2, r3, r4}
	ldm	r1!, {r2, r3, r4}
	stm	r0!, {r2, r3, r4}
.Ltmp77:
	.loc	4 352 9                         @ ../../../../Library/StdDriver/src/uart.c:352:9
	ldr	r0, [sp, #52]
	ldr	r1, __arm_cp.8_1
.Ltmp78:
	.loc	4 352 9 is_stmt 0               @ ../../../../Library/StdDriver/src/uart.c:352:9
	cmp	r0, r1
	bne	.LBB8_2
	b	.LBB8_1
.LBB8_1:
	.loc	4 0 9                           @ ../../../../Library/StdDriver/src/uart.c:0:9
	ldr	r0, __arm_cp.8_7
.Ltmp79:
	.loc	4 355 34 is_stmt 1              @ ../../../../Library/StdDriver/src/uart.c:355:34
	ldr	r0, [r0]
	movs	r1, #7
	lsls	r1, r1, #24
	.loc	4 355 42 is_stmt 0              @ ../../../../Library/StdDriver/src/uart.c:355:42
	ands	r0, r1
	.loc	4 355 70                        @ ../../../../Library/StdDriver/src/uart.c:355:70
	lsrs	r0, r0, #24
	.loc	4 355 26                        @ ../../../../Library/StdDriver/src/uart.c:355:26
	str	r0, [sp, #36]
	ldr	r0, __arm_cp.8_8
	.loc	4 357 34 is_stmt 1              @ ../../../../Library/StdDriver/src/uart.c:357:34
	ldr	r0, [r0]
	movw	r1, #3840
	.loc	4 357 42 is_stmt 0              @ ../../../../Library/StdDriver/src/uart.c:357:42
	ands	r0, r1
	.loc	4 357 70                        @ ../../../../Library/StdDriver/src/uart.c:357:70
	lsrs	r0, r0, #8
	.loc	4 357 26                        @ ../../../../Library/StdDriver/src/uart.c:357:26
	str	r0, [sp, #32]
	.loc	4 358 5 is_stmt 1               @ ../../../../Library/StdDriver/src/uart.c:358:5
	b	.LBB8_11
.Ltmp80:
.LBB8_2:
	.loc	4 359 14                        @ ../../../../Library/StdDriver/src/uart.c:359:14
	ldr	r0, [sp, #52]
	ldr	r1, __arm_cp.8_2
.Ltmp81:
	.loc	4 359 14 is_stmt 0              @ ../../../../Library/StdDriver/src/uart.c:359:14
	cmp	r0, r1
	bne	.LBB8_4
	b	.LBB8_3
.LBB8_3:
	.loc	4 0 14                          @ ../../../../Library/StdDriver/src/uart.c:0:14
	ldr	r0, __arm_cp.8_7
.Ltmp82:
	.loc	4 362 34 is_stmt 1              @ ../../../../Library/StdDriver/src/uart.c:362:34
	ldr	r0, [r0]
	movs	r1, #7
	lsls	r1, r1, #28
	.loc	4 362 42 is_stmt 0              @ ../../../../Library/StdDriver/src/uart.c:362:42
	ands	r0, r1
	.loc	4 362 70                        @ ../../../../Library/StdDriver/src/uart.c:362:70
	lsrs	r0, r0, #28
	.loc	4 362 26                        @ ../../../../Library/StdDriver/src/uart.c:362:26
	str	r0, [sp, #36]
	ldr	r0, __arm_cp.8_8
	.loc	4 364 34 is_stmt 1              @ ../../../../Library/StdDriver/src/uart.c:364:34
	ldr	r0, [r0]
	.loc	4 364 42 is_stmt 0              @ ../../../../Library/StdDriver/src/uart.c:364:42
	uxth	r0, r0
	.loc	4 364 70                        @ ../../../../Library/StdDriver/src/uart.c:364:70
	lsrs	r0, r0, #12
	.loc	4 364 26                        @ ../../../../Library/StdDriver/src/uart.c:364:26
	str	r0, [sp, #32]
	.loc	4 365 5 is_stmt 1               @ ../../../../Library/StdDriver/src/uart.c:365:5
	b	.LBB8_10
.Ltmp83:
.LBB8_4:
	.loc	4 366 14                        @ ../../../../Library/StdDriver/src/uart.c:366:14
	ldr	r0, [sp, #52]
	ldr	r1, __arm_cp.8_3
.Ltmp84:
	.loc	4 366 14 is_stmt 0              @ ../../../../Library/StdDriver/src/uart.c:366:14
	cmp	r0, r1
	bne	.LBB8_6
	b	.LBB8_5
.LBB8_5:
	.loc	4 0 14                          @ ../../../../Library/StdDriver/src/uart.c:0:14
	ldr	r0, __arm_cp.8_5
.Ltmp85:
	.loc	4 369 34 is_stmt 1              @ ../../../../Library/StdDriver/src/uart.c:369:34
	ldr	r0, [r0]
	movs	r1, #7
	lsls	r1, r1, #24
	.loc	4 369 42 is_stmt 0              @ ../../../../Library/StdDriver/src/uart.c:369:42
	ands	r0, r1
	.loc	4 369 70                        @ ../../../../Library/StdDriver/src/uart.c:369:70
	lsrs	r0, r0, #24
	.loc	4 369 26                        @ ../../../../Library/StdDriver/src/uart.c:369:26
	str	r0, [sp, #36]
	ldr	r0, __arm_cp.8_6
	.loc	4 371 34 is_stmt 1              @ ../../../../Library/StdDriver/src/uart.c:371:34
	ldr	r0, [r0]
	movs	r1, #15
	.loc	4 371 42 is_stmt 0              @ ../../../../Library/StdDriver/src/uart.c:371:42
	ands	r0, r1
	.loc	4 371 26                        @ ../../../../Library/StdDriver/src/uart.c:371:26
	str	r0, [sp, #32]
	.loc	4 372 5 is_stmt 1               @ ../../../../Library/StdDriver/src/uart.c:372:5
	b	.LBB8_9
.Ltmp86:
.LBB8_6:
	.loc	4 373 14                        @ ../../../../Library/StdDriver/src/uart.c:373:14
	ldr	r0, [sp, #52]
	ldr	r1, __arm_cp.8_4
.Ltmp87:
	.loc	4 373 14 is_stmt 0              @ ../../../../Library/StdDriver/src/uart.c:373:14
	cmp	r0, r1
	bne	.LBB8_8
	b	.LBB8_7
.LBB8_7:
	.loc	4 0 14                          @ ../../../../Library/StdDriver/src/uart.c:0:14
	ldr	r0, __arm_cp.8_5
.Ltmp88:
	.loc	4 376 34 is_stmt 1              @ ../../../../Library/StdDriver/src/uart.c:376:34
	ldr	r0, [r0]
	movs	r1, #7
	lsls	r1, r1, #28
	.loc	4 376 42 is_stmt 0              @ ../../../../Library/StdDriver/src/uart.c:376:42
	ands	r0, r1
	.loc	4 376 70                        @ ../../../../Library/StdDriver/src/uart.c:376:70
	lsrs	r0, r0, #28
	.loc	4 376 26                        @ ../../../../Library/StdDriver/src/uart.c:376:26
	str	r0, [sp, #36]
	ldr	r0, __arm_cp.8_6
	.loc	4 378 34 is_stmt 1              @ ../../../../Library/StdDriver/src/uart.c:378:34
	ldr	r0, [r0]
	.loc	4 378 42 is_stmt 0              @ ../../../../Library/StdDriver/src/uart.c:378:42
	uxtb	r0, r0
	.loc	4 378 70                        @ ../../../../Library/StdDriver/src/uart.c:378:70
	lsrs	r0, r0, #4
	.loc	4 378 26                        @ ../../../../Library/StdDriver/src/uart.c:378:26
	str	r0, [sp, #32]
	.loc	4 379 5 is_stmt 1               @ ../../../../Library/StdDriver/src/uart.c:379:5
	b	.LBB8_8
.Ltmp89:
.LBB8_8:
	.loc	4 0 5 is_stmt 0                 @ ../../../../Library/StdDriver/src/uart.c:0:5
	b	.LBB8_9
.LBB8_9:
	b	.LBB8_10
.LBB8_10:
	b	.LBB8_11
.LBB8_11:
.Ltmp90:
	.loc	4 382 9 is_stmt 1               @ ../../../../Library/StdDriver/src/uart.c:382:9
	ldr	r0, [sp, #36]
.Ltmp91:
	.loc	4 382 9 is_stmt 0               @ ../../../../Library/StdDriver/src/uart.c:382:9
	cmp	r0, #1
	bne	.LBB8_13
	b	.LBB8_12
.LBB8_12:
.Ltmp92:
	.loc	4 384 40 is_stmt 1              @ ../../../../Library/StdDriver/src/uart.c:384:40
	bl	CLK_GetPLLClockFreq
	.loc	4 384 20 is_stmt 0              @ ../../../../Library/StdDriver/src/uart.c:384:20
	ldr	r1, [sp, #36]
	.loc	4 384 9                         @ ../../../../Library/StdDriver/src/uart.c:384:9
	lsls	r2, r1, #2
	add	r1, sp, #8
	.loc	4 384 38                        @ ../../../../Library/StdDriver/src/uart.c:384:38
	str	r0, [r1, r2]
	.loc	4 385 5 is_stmt 1               @ ../../../../Library/StdDriver/src/uart.c:385:5
	b	.LBB8_13
.Ltmp93:
.LBB8_13:
	.loc	4 388 9                         @ ../../../../Library/StdDriver/src/uart.c:388:9
	ldr	r0, [sp, #36]
.Ltmp94:
	.loc	4 388 9 is_stmt 0               @ ../../../../Library/StdDriver/src/uart.c:388:9
	cmp	r0, #4
	bne	.LBB8_19
	b	.LBB8_14
.LBB8_14:
.Ltmp95:
	.loc	4 391 14 is_stmt 1              @ ../../../../Library/StdDriver/src/uart.c:391:14
	ldr	r0, [sp, #52]
	ldr	r1, __arm_cp.8_1
	.loc	4 391 39 is_stmt 0              @ ../../../../Library/StdDriver/src/uart.c:391:39
	cmp	r0, r1
	beq	.LBB8_16
	b	.LBB8_15
.LBB8_15:
	.loc	4 391 43                        @ ../../../../Library/StdDriver/src/uart.c:391:43
	ldr	r0, [sp, #52]
	ldr	r1, __arm_cp.8_3
.Ltmp96:
	.loc	4 391 13                        @ ../../../../Library/StdDriver/src/uart.c:391:13
	cmp	r0, r1
	bne	.LBB8_17
	b	.LBB8_16
.LBB8_16:
.Ltmp97:
	.loc	4 393 45 is_stmt 1              @ ../../../../Library/StdDriver/src/uart.c:393:45
	bl	CLK_GetPCLK0Freq
	.loc	4 393 24 is_stmt 0              @ ../../../../Library/StdDriver/src/uart.c:393:24
	ldr	r1, [sp, #36]
	.loc	4 393 13                        @ ../../../../Library/StdDriver/src/uart.c:393:13
	lsls	r2, r1, #2
	add	r1, sp, #8
	.loc	4 393 42                        @ ../../../../Library/StdDriver/src/uart.c:393:42
	str	r0, [r1, r2]
	.loc	4 394 9 is_stmt 1               @ ../../../../Library/StdDriver/src/uart.c:394:9
	b	.LBB8_18
.Ltmp98:
.LBB8_17:
	.loc	4 397 45                        @ ../../../../Library/StdDriver/src/uart.c:397:45
	bl	CLK_GetPCLK1Freq
	.loc	4 397 24 is_stmt 0              @ ../../../../Library/StdDriver/src/uart.c:397:24
	ldr	r1, [sp, #36]
	.loc	4 397 13                        @ ../../../../Library/StdDriver/src/uart.c:397:13
	lsls	r2, r1, #2
	add	r1, sp, #8
	.loc	4 397 42                        @ ../../../../Library/StdDriver/src/uart.c:397:42
	str	r0, [r1, r2]
	b	.LBB8_18
.Ltmp99:
.LBB8_18:
	.loc	4 399 5 is_stmt 1               @ ../../../../Library/StdDriver/src/uart.c:399:5
	b	.LBB8_19
.Ltmp100:
.LBB8_19:
	.loc	4 403 9                         @ ../../../../Library/StdDriver/src/uart.c:403:9
	ldr	r0, [sp, #48]
.Ltmp101:
	.loc	4 403 9 is_stmt 0               @ ../../../../Library/StdDriver/src/uart.c:403:9
	cbz	r0, .LBB8_24
	b	.LBB8_20
.LBB8_20:
.Ltmp102:
	.loc	4 407 23 is_stmt 1              @ ../../../../Library/StdDriver/src/uart.c:407:23
	ldr	r0, [sp, #36]
	lsls	r1, r0, #2
	add	r0, sp, #8
	ldr	r0, [r0, r1]
	ldr	r1, [sp, #32]
	adds	r1, r1, #1
	udiv	r0, r0, r1
	ldr	r1, [sp, #48]
	lsrs	r2, r1, #1
	adds	r0, r0, r2
	udiv	r0, r0, r1
	subs	r0, r0, #2
	.loc	4 407 21 is_stmt 0              @ ../../../../Library/StdDriver/src/uart.c:407:21
	str	r0, [sp, #4]
	add	r0, sp, #4
.Ltmp103:
	.loc	4 409 13 is_stmt 1              @ ../../../../Library/StdDriver/src/uart.c:409:13
	ldrh	r0, [r0, #2]
.Ltmp104:
	.loc	4 409 13 is_stmt 0              @ ../../../../Library/StdDriver/src/uart.c:409:13
	cbz	r0, .LBB8_22
	b	.LBB8_21
.LBB8_21:
.Ltmp105:
	.loc	4 411 45 is_stmt 1              @ ../../../../Library/StdDriver/src/uart.c:411:45
	ldr	r0, [sp, #36]
	lsls	r1, r0, #2
	add	r0, sp, #8
	ldr	r0, [r0, r1]
	ldr	r1, [sp, #32]
	adds	r1, r1, #1
	udiv	r0, r0, r1
	ldr	r1, [sp, #48]
	lsls	r2, r1, #3
	adds	r0, r0, r2
	udiv	r0, r0, r1
	lsrs	r0, r0, #4
	subs	r0, r0, #2
	.loc	4 411 13 is_stmt 0              @ ../../../../Library/StdDriver/src/uart.c:411:13
	ldr	r1, [sp, #52]
	.loc	4 411 24                        @ ../../../../Library/StdDriver/src/uart.c:411:24
	str	r0, [r1, #36]
	.loc	4 412 9 is_stmt 1               @ ../../../../Library/StdDriver/src/uart.c:412:9
	b	.LBB8_23
.Ltmp106:
.LBB8_22:
	.loc	4 415 45                        @ ../../../../Library/StdDriver/src/uart.c:415:45
	ldr	r0, [sp, #4]
	movs	r1, #3
	lsls	r1, r1, #28
	.loc	4 415 43 is_stmt 0              @ ../../../../Library/StdDriver/src/uart.c:415:43
	orrs	r0, r1
	.loc	4 415 13                        @ ../../../../Library/StdDriver/src/uart.c:415:13
	ldr	r1, [sp, #52]
	.loc	4 415 24                        @ ../../../../Library/StdDriver/src/uart.c:415:24
	str	r0, [r1, #36]
	b	.LBB8_23
.Ltmp107:
.LBB8_23:
	.loc	4 417 5 is_stmt 1               @ ../../../../Library/StdDriver/src/uart.c:417:5
	b	.LBB8_24
.Ltmp108:
.LBB8_24:
	.loc	4 420 18                        @ ../../../../Library/StdDriver/src/uart.c:420:18
	ldr	r0, [sp, #44]
	.loc	4 420 33 is_stmt 0              @ ../../../../Library/StdDriver/src/uart.c:420:33
	ldr	r1, [sp, #40]
	.loc	4 420 31                        @ ../../../../Library/StdDriver/src/uart.c:420:31
	orrs	r0, r1
	.loc	4 420 45                        @ ../../../../Library/StdDriver/src/uart.c:420:45
	ldr	r1, [sp, #64]
	.loc	4 420 43                        @ ../../../../Library/StdDriver/src/uart.c:420:43
	orrs	r0, r1
	.loc	4 420 5                         @ ../../../../Library/StdDriver/src/uart.c:420:5
	ldr	r1, [sp, #52]
	.loc	4 420 16                        @ ../../../../Library/StdDriver/src/uart.c:420:16
	str	r0, [r1, #12]
	.loc	4 421 1 is_stmt 1               @ ../../../../Library/StdDriver/src/uart.c:421:1
	add	sp, #56
	pop	{r4, pc}
.Ltmp109:
	.p2align	2
@ %bb.25:
	.loc	4 0 1 is_stmt 0                 @ ../../../../Library/StdDriver/src/uart.c:0:1
__arm_cp.8_0:
	.long	.L__const.UART_SetLine_Config.au32ClkTbl
.Lcpi_end12:
	.size	__arm_cp.8_0, .Lcpi_end12-__arm_cp.8_0
__arm_cp.8_1:
	.long	1074200576                      @ 0x40070000
.Lcpi_end13:
	.size	__arm_cp.8_1, .Lcpi_end13-__arm_cp.8_1
__arm_cp.8_2:
	.long	1074204672                      @ 0x40071000
.Lcpi_end14:
	.size	__arm_cp.8_2, .Lcpi_end14-__arm_cp.8_2
__arm_cp.8_3:
	.long	1074208768                      @ 0x40072000
.Lcpi_end15:
	.size	__arm_cp.8_3, .Lcpi_end15-__arm_cp.8_3
__arm_cp.8_4:
	.long	1074212864                      @ 0x40073000
.Lcpi_end16:
	.size	__arm_cp.8_4, .Lcpi_end16-__arm_cp.8_4
__arm_cp.8_5:
	.long	1073742364                      @ 0x4000021c
.Lcpi_end17:
	.size	__arm_cp.8_5, .Lcpi_end17-__arm_cp.8_5
__arm_cp.8_6:
	.long	1073742384                      @ 0x40000230
.Lcpi_end18:
	.size	__arm_cp.8_6, .Lcpi_end18-__arm_cp.8_6
__arm_cp.8_7:
	.long	1073742356                      @ 0x40000214
.Lcpi_end19:
	.size	__arm_cp.8_7, .Lcpi_end19-__arm_cp.8_7
__arm_cp.8_8:
	.long	1073742368                      @ 0x40000220
.Lcpi_end20:
	.size	__arm_cp.8_8, .Lcpi_end20-__arm_cp.8_8
.Lfunc_end8:
	.size	UART_SetLine_Config, .Lfunc_end8-UART_SetLine_Config
	.cfi_endproc
	.cantunwind
	.fnend
                                        @ -- End function
	.section	.text.UART_SetTimeoutCnt,"ax",%progbits
	.hidden	UART_SetTimeoutCnt              @ -- Begin function UART_SetTimeoutCnt
	.globl	UART_SetTimeoutCnt
	.p2align	1
	.type	UART_SetTimeoutCnt,%function
	.code	16                              @ @UART_SetTimeoutCnt
	.thumb_func
UART_SetTimeoutCnt:
.Lfunc_begin9:
	.loc	4 434 0 is_stmt 1               @ ../../../../Library/StdDriver/src/uart.c:434:0
	.fnstart
	.cfi_startproc
@ %bb.0:
	.pad	#8
	sub	sp, #8
	.cfi_def_cfa_offset 8
	str	r0, [sp, #4]
	str	r1, [sp]
.Ltmp110:
	.loc	4 436 19 prologue_end           @ ../../../../Library/StdDriver/src/uart.c:436:19
	ldr	r0, [sp, #4]
	.loc	4 436 25 is_stmt 0              @ ../../../../Library/StdDriver/src/uart.c:436:25
	ldr	r0, [r0, #32]
	movs	r1, #255
	.loc	4 436 30                        @ ../../../../Library/StdDriver/src/uart.c:436:30
	bics	r0, r1
	.loc	4 436 56                        @ ../../../../Library/StdDriver/src/uart.c:436:56
	ldr	r1, [sp]
	.loc	4 436 53                        @ ../../../../Library/StdDriver/src/uart.c:436:53
	orrs	r0, r1
	.loc	4 436 5                         @ ../../../../Library/StdDriver/src/uart.c:436:5
	ldr	r1, [sp, #4]
	.loc	4 436 16                        @ ../../../../Library/StdDriver/src/uart.c:436:16
	str	r0, [r1, #32]
	.loc	4 439 5 is_stmt 1               @ ../../../../Library/StdDriver/src/uart.c:439:5
	ldr	r1, [sp, #4]
	.loc	4 439 17 is_stmt 0              @ ../../../../Library/StdDriver/src/uart.c:439:17
	ldr	r0, [r1, #4]
	movw	r2, #2048
	orrs	r0, r2
	str	r0, [r1, #4]
	.loc	4 440 1 is_stmt 1               @ ../../../../Library/StdDriver/src/uart.c:440:1
	add	sp, #8
	bx	lr
.Ltmp111:
.Lfunc_end9:
	.size	UART_SetTimeoutCnt, .Lfunc_end9-UART_SetTimeoutCnt
	.cfi_endproc
	.cantunwind
	.fnend
                                        @ -- End function
	.section	.text.UART_SelectIrDAMode,"ax",%progbits
	.hidden	UART_SelectIrDAMode             @ -- Begin function UART_SelectIrDAMode
	.globl	UART_SelectIrDAMode
	.p2align	2
	.type	UART_SelectIrDAMode,%function
	.code	16                              @ @UART_SelectIrDAMode
	.thumb_func
UART_SelectIrDAMode:
.Lfunc_begin10:
	.loc	4 456 0                         @ ../../../../Library/StdDriver/src/uart.c:456:0
	.fnstart
	.cfi_startproc
@ %bb.0:
	.save	{r4, lr}
	push	{r4, lr}
	.cfi_def_cfa_offset 8
	.cfi_offset lr, -4
	.cfi_offset r4, -8
	.pad	#48
	sub	sp, #48
	.cfi_def_cfa_offset 56
	str	r0, [sp, #44]
	str	r1, [sp, #40]
	str	r2, [sp, #36]
	movs	r0, #0
.Ltmp112:
	.loc	4 457 14 prologue_end           @ ../../../../Library/StdDriver/src/uart.c:457:14
	str	r0, [sp, #32]
	.loc	4 457 38 is_stmt 0              @ ../../../../Library/StdDriver/src/uart.c:457:38
	str	r0, [sp, #28]
	.loc	4 458 14 is_stmt 1              @ ../../../../Library/StdDriver/src/uart.c:458:14
	ldr	r1, __arm_cp.10_0
	add	r0, sp, #4
	ldm	r1!, {r2, r3, r4}
	stm	r0!, {r2, r3, r4}
	ldm	r1!, {r2, r3, r4}
	stm	r0!, {r2, r3, r4}
	.loc	4 461 5                         @ ../../../../Library/StdDriver/src/uart.c:461:5
	ldr	r1, [sp, #44]
	movs	r0, #2
	.loc	4 461 19 is_stmt 0              @ ../../../../Library/StdDriver/src/uart.c:461:19
	str	r0, [r1, #48]
.Ltmp113:
	.loc	4 464 9 is_stmt 1               @ ../../../../Library/StdDriver/src/uart.c:464:9
	ldr	r0, [sp, #44]
	ldr	r1, __arm_cp.10_1
.Ltmp114:
	.loc	4 464 9 is_stmt 0               @ ../../../../Library/StdDriver/src/uart.c:464:9
	cmp	r0, r1
	bne	.LBB10_2
	b	.LBB10_1
.LBB10_1:
	.loc	4 0 9                           @ ../../../../Library/StdDriver/src/uart.c:0:9
	ldr	r0, __arm_cp.10_7
.Ltmp115:
	.loc	4 467 34 is_stmt 1              @ ../../../../Library/StdDriver/src/uart.c:467:34
	ldr	r0, [r0]
	movs	r1, #7
	lsls	r1, r1, #24
	.loc	4 467 42 is_stmt 0              @ ../../../../Library/StdDriver/src/uart.c:467:42
	ands	r0, r1
	.loc	4 467 70                        @ ../../../../Library/StdDriver/src/uart.c:467:70
	lsrs	r0, r0, #24
	.loc	4 467 26                        @ ../../../../Library/StdDriver/src/uart.c:467:26
	str	r0, [sp, #32]
	ldr	r0, __arm_cp.10_8
	.loc	4 469 34 is_stmt 1              @ ../../../../Library/StdDriver/src/uart.c:469:34
	ldr	r0, [r0]
	movw	r1, #3840
	.loc	4 469 42 is_stmt 0              @ ../../../../Library/StdDriver/src/uart.c:469:42
	ands	r0, r1
	.loc	4 469 70                        @ ../../../../Library/StdDriver/src/uart.c:469:70
	lsrs	r0, r0, #8
	.loc	4 469 26                        @ ../../../../Library/StdDriver/src/uart.c:469:26
	str	r0, [sp, #28]
	.loc	4 470 5 is_stmt 1               @ ../../../../Library/StdDriver/src/uart.c:470:5
	b	.LBB10_11
.Ltmp116:
.LBB10_2:
	.loc	4 471 14                        @ ../../../../Library/StdDriver/src/uart.c:471:14
	ldr	r0, [sp, #44]
	ldr	r1, __arm_cp.10_2
.Ltmp117:
	.loc	4 471 14 is_stmt 0              @ ../../../../Library/StdDriver/src/uart.c:471:14
	cmp	r0, r1
	bne	.LBB10_4
	b	.LBB10_3
.LBB10_3:
	.loc	4 0 14                          @ ../../../../Library/StdDriver/src/uart.c:0:14
	ldr	r0, __arm_cp.10_7
.Ltmp118:
	.loc	4 474 34 is_stmt 1              @ ../../../../Library/StdDriver/src/uart.c:474:34
	ldr	r0, [r0]
	movs	r1, #7
	lsls	r1, r1, #28
	.loc	4 474 42 is_stmt 0              @ ../../../../Library/StdDriver/src/uart.c:474:42
	ands	r0, r1
	.loc	4 474 70                        @ ../../../../Library/StdDriver/src/uart.c:474:70
	lsrs	r0, r0, #28
	.loc	4 474 26                        @ ../../../../Library/StdDriver/src/uart.c:474:26
	str	r0, [sp, #32]
	ldr	r0, __arm_cp.10_8
	.loc	4 476 34 is_stmt 1              @ ../../../../Library/StdDriver/src/uart.c:476:34
	ldr	r0, [r0]
	.loc	4 476 42 is_stmt 0              @ ../../../../Library/StdDriver/src/uart.c:476:42
	uxth	r0, r0
	.loc	4 476 70                        @ ../../../../Library/StdDriver/src/uart.c:476:70
	lsrs	r0, r0, #12
	.loc	4 476 26                        @ ../../../../Library/StdDriver/src/uart.c:476:26
	str	r0, [sp, #28]
	.loc	4 477 5 is_stmt 1               @ ../../../../Library/StdDriver/src/uart.c:477:5
	b	.LBB10_10
.Ltmp119:
.LBB10_4:
	.loc	4 478 14                        @ ../../../../Library/StdDriver/src/uart.c:478:14
	ldr	r0, [sp, #44]
	ldr	r1, __arm_cp.10_3
.Ltmp120:
	.loc	4 478 14 is_stmt 0              @ ../../../../Library/StdDriver/src/uart.c:478:14
	cmp	r0, r1
	bne	.LBB10_6
	b	.LBB10_5
.LBB10_5:
	.loc	4 0 14                          @ ../../../../Library/StdDriver/src/uart.c:0:14
	ldr	r0, __arm_cp.10_5
.Ltmp121:
	.loc	4 481 34 is_stmt 1              @ ../../../../Library/StdDriver/src/uart.c:481:34
	ldr	r0, [r0]
	movs	r1, #7
	lsls	r1, r1, #24
	.loc	4 481 42 is_stmt 0              @ ../../../../Library/StdDriver/src/uart.c:481:42
	ands	r0, r1
	.loc	4 481 70                        @ ../../../../Library/StdDriver/src/uart.c:481:70
	lsrs	r0, r0, #24
	.loc	4 481 26                        @ ../../../../Library/StdDriver/src/uart.c:481:26
	str	r0, [sp, #32]
	ldr	r0, __arm_cp.10_6
	.loc	4 483 34 is_stmt 1              @ ../../../../Library/StdDriver/src/uart.c:483:34
	ldr	r0, [r0]
	movs	r1, #15
	.loc	4 483 42 is_stmt 0              @ ../../../../Library/StdDriver/src/uart.c:483:42
	ands	r0, r1
	.loc	4 483 26                        @ ../../../../Library/StdDriver/src/uart.c:483:26
	str	r0, [sp, #28]
	.loc	4 484 5 is_stmt 1               @ ../../../../Library/StdDriver/src/uart.c:484:5
	b	.LBB10_9
.Ltmp122:
.LBB10_6:
	.loc	4 485 14                        @ ../../../../Library/StdDriver/src/uart.c:485:14
	ldr	r0, [sp, #44]
	ldr	r1, __arm_cp.10_4
.Ltmp123:
	.loc	4 485 14 is_stmt 0              @ ../../../../Library/StdDriver/src/uart.c:485:14
	cmp	r0, r1
	bne	.LBB10_8
	b	.LBB10_7
.LBB10_7:
	.loc	4 0 14                          @ ../../../../Library/StdDriver/src/uart.c:0:14
	ldr	r0, __arm_cp.10_5
.Ltmp124:
	.loc	4 488 34 is_stmt 1              @ ../../../../Library/StdDriver/src/uart.c:488:34
	ldr	r0, [r0]
	movs	r1, #7
	lsls	r1, r1, #28
	.loc	4 488 42 is_stmt 0              @ ../../../../Library/StdDriver/src/uart.c:488:42
	ands	r0, r1
	.loc	4 488 70                        @ ../../../../Library/StdDriver/src/uart.c:488:70
	lsrs	r0, r0, #28
	.loc	4 488 26                        @ ../../../../Library/StdDriver/src/uart.c:488:26
	str	r0, [sp, #32]
	ldr	r0, __arm_cp.10_6
	.loc	4 490 34 is_stmt 1              @ ../../../../Library/StdDriver/src/uart.c:490:34
	ldr	r0, [r0]
	.loc	4 490 42 is_stmt 0              @ ../../../../Library/StdDriver/src/uart.c:490:42
	uxtb	r0, r0
	.loc	4 490 70                        @ ../../../../Library/StdDriver/src/uart.c:490:70
	lsrs	r0, r0, #4
	.loc	4 490 26                        @ ../../../../Library/StdDriver/src/uart.c:490:26
	str	r0, [sp, #28]
	.loc	4 491 5 is_stmt 1               @ ../../../../Library/StdDriver/src/uart.c:491:5
	b	.LBB10_8
.Ltmp125:
.LBB10_8:
	.loc	4 0 5 is_stmt 0                 @ ../../../../Library/StdDriver/src/uart.c:0:5
	b	.LBB10_9
.LBB10_9:
	b	.LBB10_10
.LBB10_10:
	b	.LBB10_11
.LBB10_11:
.Ltmp126:
	.loc	4 496 9 is_stmt 1               @ ../../../../Library/StdDriver/src/uart.c:496:9
	ldr	r0, [sp, #32]
.Ltmp127:
	.loc	4 496 9 is_stmt 0               @ ../../../../Library/StdDriver/src/uart.c:496:9
	cmp	r0, #1
	bne	.LBB10_13
	b	.LBB10_12
.LBB10_12:
.Ltmp128:
	.loc	4 498 40 is_stmt 1              @ ../../../../Library/StdDriver/src/uart.c:498:40
	bl	CLK_GetPLLClockFreq
	.loc	4 498 20 is_stmt 0              @ ../../../../Library/StdDriver/src/uart.c:498:20
	ldr	r1, [sp, #32]
	.loc	4 498 9                         @ ../../../../Library/StdDriver/src/uart.c:498:9
	lsls	r2, r1, #2
	add	r1, sp, #4
	.loc	4 498 38                        @ ../../../../Library/StdDriver/src/uart.c:498:38
	str	r0, [r1, r2]
	.loc	4 499 5 is_stmt 1               @ ../../../../Library/StdDriver/src/uart.c:499:5
	b	.LBB10_13
.Ltmp129:
.LBB10_13:
	.loc	4 502 9                         @ ../../../../Library/StdDriver/src/uart.c:502:9
	ldr	r0, [sp, #32]
.Ltmp130:
	.loc	4 502 9 is_stmt 0               @ ../../../../Library/StdDriver/src/uart.c:502:9
	cmp	r0, #4
	bne	.LBB10_19
	b	.LBB10_14
.LBB10_14:
.Ltmp131:
	.loc	4 505 14 is_stmt 1              @ ../../../../Library/StdDriver/src/uart.c:505:14
	ldr	r0, [sp, #44]
	ldr	r1, __arm_cp.10_1
	.loc	4 505 39 is_stmt 0              @ ../../../../Library/StdDriver/src/uart.c:505:39
	cmp	r0, r1
	beq	.LBB10_16
	b	.LBB10_15
.LBB10_15:
	.loc	4 505 43                        @ ../../../../Library/StdDriver/src/uart.c:505:43
	ldr	r0, [sp, #44]
	ldr	r1, __arm_cp.10_3
.Ltmp132:
	.loc	4 505 13                        @ ../../../../Library/StdDriver/src/uart.c:505:13
	cmp	r0, r1
	bne	.LBB10_17
	b	.LBB10_16
.LBB10_16:
.Ltmp133:
	.loc	4 507 45 is_stmt 1              @ ../../../../Library/StdDriver/src/uart.c:507:45
	bl	CLK_GetPCLK0Freq
	.loc	4 507 24 is_stmt 0              @ ../../../../Library/StdDriver/src/uart.c:507:24
	ldr	r1, [sp, #32]
	.loc	4 507 13                        @ ../../../../Library/StdDriver/src/uart.c:507:13
	lsls	r2, r1, #2
	add	r1, sp, #4
	.loc	4 507 42                        @ ../../../../Library/StdDriver/src/uart.c:507:42
	str	r0, [r1, r2]
	.loc	4 508 9 is_stmt 1               @ ../../../../Library/StdDriver/src/uart.c:508:9
	b	.LBB10_18
.Ltmp134:
.LBB10_17:
	.loc	4 511 45                        @ ../../../../Library/StdDriver/src/uart.c:511:45
	bl	CLK_GetPCLK1Freq
	.loc	4 511 24 is_stmt 0              @ ../../../../Library/StdDriver/src/uart.c:511:24
	ldr	r1, [sp, #32]
	.loc	4 511 13                        @ ../../../../Library/StdDriver/src/uart.c:511:13
	lsls	r2, r1, #2
	add	r1, sp, #4
	.loc	4 511 42                        @ ../../../../Library/StdDriver/src/uart.c:511:42
	str	r0, [r1, r2]
	b	.LBB10_18
.Ltmp135:
.LBB10_18:
	.loc	4 513 5 is_stmt 1               @ ../../../../Library/StdDriver/src/uart.c:513:5
	b	.LBB10_19
.Ltmp136:
.LBB10_19:
	.loc	4 517 9                         @ ../../../../Library/StdDriver/src/uart.c:517:9
	ldr	r0, [sp, #40]
.Ltmp137:
	.loc	4 517 9 is_stmt 0               @ ../../../../Library/StdDriver/src/uart.c:517:9
	cbz	r0, .LBB10_23
	b	.LBB10_20
.LBB10_20:
.Ltmp138:
	.loc	4 521 23 is_stmt 1              @ ../../../../Library/StdDriver/src/uart.c:521:23
	ldr	r0, [sp, #32]
	lsls	r1, r0, #2
	add	r0, sp, #4
	ldr	r0, [r0, r1]
	ldr	r1, [sp, #28]
	adds	r1, r1, #1
	udiv	r0, r0, r1
	ldr	r1, [sp, #40]
	lsls	r2, r1, #3
	adds	r0, r0, r2
	udiv	r0, r0, r1
	lsrs	r0, r0, #4
	subs	r0, r0, #2
	.loc	4 521 21 is_stmt 0              @ ../../../../Library/StdDriver/src/uart.c:521:21
	str	r0, [sp]
.Ltmp139:
	.loc	4 523 13 is_stmt 1              @ ../../../../Library/StdDriver/src/uart.c:523:13
	ldr	r0, [sp]
	ldr	r1, __arm_cp.10_9
.Ltmp140:
	.loc	4 523 13 is_stmt 0              @ ../../../../Library/StdDriver/src/uart.c:523:13
	cmp	r0, r1
	bhi	.LBB10_22
	b	.LBB10_21
.LBB10_21:
.Ltmp141:
	.loc	4 525 45 is_stmt 1              @ ../../../../Library/StdDriver/src/uart.c:525:45
	ldr	r0, [sp]
	.loc	4 525 13 is_stmt 0              @ ../../../../Library/StdDriver/src/uart.c:525:13
	ldr	r1, [sp, #44]
	.loc	4 525 24                        @ ../../../../Library/StdDriver/src/uart.c:525:24
	str	r0, [r1, #36]
	.loc	4 526 9 is_stmt 1               @ ../../../../Library/StdDriver/src/uart.c:526:9
	b	.LBB10_22
.Ltmp142:
.LBB10_22:
	.loc	4 528 5                         @ ../../../../Library/StdDriver/src/uart.c:528:5
	b	.LBB10_23
.Ltmp143:
.LBB10_23:
	.loc	4 531 9                         @ ../../../../Library/StdDriver/src/uart.c:531:9
	ldr	r0, [sp, #36]
.Ltmp144:
	.loc	4 531 9 is_stmt 0               @ ../../../../Library/StdDriver/src/uart.c:531:9
	cbnz	r0, .LBB10_25
	b	.LBB10_24
.LBB10_24:
.Ltmp145:
	.loc	4 533 9 is_stmt 1               @ ../../../../Library/StdDriver/src/uart.c:533:9
	ldr	r1, [sp, #44]
	.loc	4 533 20 is_stmt 0              @ ../../../../Library/StdDriver/src/uart.c:533:20
	ldr	r0, [r1, #40]
	movs	r2, #64
	orrs	r0, r2
	str	r0, [r1, #40]
	.loc	4 534 9 is_stmt 1               @ ../../../../Library/StdDriver/src/uart.c:534:9
	ldr	r1, [sp, #44]
	.loc	4 534 20 is_stmt 0              @ ../../../../Library/StdDriver/src/uart.c:534:20
	ldr	r0, [r1, #40]
	movs	r2, #2
	bics	r0, r2
	str	r0, [r1, #40]
	.loc	4 535 5 is_stmt 1               @ ../../../../Library/StdDriver/src/uart.c:535:5
	b	.LBB10_26
.Ltmp146:
.LBB10_25:
	.loc	4 538 9                         @ ../../../../Library/StdDriver/src/uart.c:538:9
	ldr	r1, [sp, #44]
	.loc	4 538 20 is_stmt 0              @ ../../../../Library/StdDriver/src/uart.c:538:20
	ldr	r0, [r1, #40]
	movs	r2, #32
	bics	r0, r2
	str	r0, [r1, #40]
	.loc	4 539 9 is_stmt 1               @ ../../../../Library/StdDriver/src/uart.c:539:9
	ldr	r1, [sp, #44]
	.loc	4 539 20 is_stmt 0              @ ../../../../Library/StdDriver/src/uart.c:539:20
	ldr	r0, [r1, #40]
	movs	r2, #2
	orrs	r0, r2
	str	r0, [r1, #40]
	b	.LBB10_26
.Ltmp147:
.LBB10_26:
	.loc	4 542 1 is_stmt 1               @ ../../../../Library/StdDriver/src/uart.c:542:1
	add	sp, #48
	pop	{r4, pc}
.Ltmp148:
	.p2align	2
@ %bb.27:
	.loc	4 0 1 is_stmt 0                 @ ../../../../Library/StdDriver/src/uart.c:0:1
__arm_cp.10_0:
	.long	.L__const.UART_SelectIrDAMode.au32ClkTbl
.Lcpi_end21:
	.size	__arm_cp.10_0, .Lcpi_end21-__arm_cp.10_0
__arm_cp.10_1:
	.long	1074200576                      @ 0x40070000
.Lcpi_end22:
	.size	__arm_cp.10_1, .Lcpi_end22-__arm_cp.10_1
__arm_cp.10_2:
	.long	1074204672                      @ 0x40071000
.Lcpi_end23:
	.size	__arm_cp.10_2, .Lcpi_end23-__arm_cp.10_2
__arm_cp.10_3:
	.long	1074208768                      @ 0x40072000
.Lcpi_end24:
	.size	__arm_cp.10_3, .Lcpi_end24-__arm_cp.10_3
__arm_cp.10_4:
	.long	1074212864                      @ 0x40073000
.Lcpi_end25:
	.size	__arm_cp.10_4, .Lcpi_end25-__arm_cp.10_4
__arm_cp.10_5:
	.long	1073742364                      @ 0x4000021c
.Lcpi_end26:
	.size	__arm_cp.10_5, .Lcpi_end26-__arm_cp.10_5
__arm_cp.10_6:
	.long	1073742384                      @ 0x40000230
.Lcpi_end27:
	.size	__arm_cp.10_6, .Lcpi_end27-__arm_cp.10_6
__arm_cp.10_7:
	.long	1073742356                      @ 0x40000214
.Lcpi_end28:
	.size	__arm_cp.10_7, .Lcpi_end28-__arm_cp.10_7
__arm_cp.10_8:
	.long	1073742368                      @ 0x40000220
.Lcpi_end29:
	.size	__arm_cp.10_8, .Lcpi_end29-__arm_cp.10_8
__arm_cp.10_9:
	.long	65534                           @ 0xfffe
.Lcpi_end30:
	.size	__arm_cp.10_9, .Lcpi_end30-__arm_cp.10_9
.Lfunc_end10:
	.size	UART_SelectIrDAMode, .Lfunc_end10-UART_SelectIrDAMode
	.cfi_endproc
	.cantunwind
	.fnend
                                        @ -- End function
	.section	.text.UART_SelectRS485Mode,"ax",%progbits
	.hidden	UART_SelectRS485Mode            @ -- Begin function UART_SelectRS485Mode
	.globl	UART_SelectRS485Mode
	.p2align	2
	.type	UART_SelectRS485Mode,%function
	.code	16                              @ @UART_SelectRS485Mode
	.thumb_func
UART_SelectRS485Mode:
.Lfunc_begin11:
	.loc	4 559 0 is_stmt 1               @ ../../../../Library/StdDriver/src/uart.c:559:0
	.fnstart
	.cfi_startproc
@ %bb.0:
	.pad	#12
	sub	sp, #12
	.cfi_def_cfa_offset 12
	str	r0, [sp, #8]
	str	r1, [sp, #4]
	str	r2, [sp]
.Ltmp149:
	.loc	4 561 5 prologue_end            @ ../../../../Library/StdDriver/src/uart.c:561:5
	ldr	r1, [sp, #8]
	movs	r0, #3
	.loc	4 561 19 is_stmt 0              @ ../../../../Library/StdDriver/src/uart.c:561:19
	str	r0, [r1, #48]
	.loc	4 564 5 is_stmt 1               @ ../../../../Library/StdDriver/src/uart.c:564:5
	ldr	r1, [sp, #8]
	.loc	4 564 18 is_stmt 0              @ ../../../../Library/StdDriver/src/uart.c:564:18
	ldr	r0, [r1, #44]
	ldr	r2, __arm_cp.11_0
	ands	r0, r2
	str	r0, [r1, #44]
	.loc	4 565 22 is_stmt 1              @ ../../../../Library/StdDriver/src/uart.c:565:22
	ldr	r2, [sp, #4]
	.loc	4 565 33 is_stmt 0              @ ../../../../Library/StdDriver/src/uart.c:565:33
	ldr	r0, [sp]
	.loc	4 565 41                        @ ../../../../Library/StdDriver/src/uart.c:565:41
	lsls	r0, r0, #24
	.loc	4 565 30                        @ ../../../../Library/StdDriver/src/uart.c:565:30
	orrs	r2, r0
	.loc	4 565 5                         @ ../../../../Library/StdDriver/src/uart.c:565:5
	ldr	r1, [sp, #8]
	.loc	4 565 18                        @ ../../../../Library/StdDriver/src/uart.c:565:18
	ldr	r0, [r1, #44]
	orrs	r0, r2
	str	r0, [r1, #44]
	.loc	4 566 1 is_stmt 1               @ ../../../../Library/StdDriver/src/uart.c:566:1
	add	sp, #12
	bx	lr
.Ltmp150:
	.p2align	2
@ %bb.1:
	.loc	4 0 1 is_stmt 0                 @ ../../../../Library/StdDriver/src/uart.c:0:1
__arm_cp.11_0:
	.long	16775423                        @ 0xfff8ff
.Lcpi_end31:
	.size	__arm_cp.11_0, .Lcpi_end31-__arm_cp.11_0
.Lfunc_end11:
	.size	UART_SelectRS485Mode, .Lfunc_end11-UART_SelectRS485Mode
	.cfi_endproc
	.cantunwind
	.fnend
                                        @ -- End function
	.section	.text.UART_SelectLINMode,"ax",%progbits
	.hidden	UART_SelectLINMode              @ -- Begin function UART_SelectLINMode
	.globl	UART_SelectLINMode
	.p2align	1
	.type	UART_SelectLINMode,%function
	.code	16                              @ @UART_SelectLINMode
	.thumb_func
UART_SelectLINMode:
.Lfunc_begin12:
	.loc	4 582 0 is_stmt 1               @ ../../../../Library/StdDriver/src/uart.c:582:0
	.fnstart
	.cfi_startproc
@ %bb.0:
	.pad	#12
	sub	sp, #12
	.cfi_def_cfa_offset 12
	str	r0, [sp, #8]
	str	r1, [sp, #4]
	str	r2, [sp]
.Ltmp151:
	.loc	4 584 5 prologue_end            @ ../../../../Library/StdDriver/src/uart.c:584:5
	ldr	r1, [sp, #8]
	movs	r0, #1
	.loc	4 584 19 is_stmt 0              @ ../../../../Library/StdDriver/src/uart.c:584:19
	str	r0, [r1, #48]
	.loc	4 587 5 is_stmt 1               @ ../../../../Library/StdDriver/src/uart.c:587:5
	ldr	r1, [sp, #8]
	.loc	4 587 18 is_stmt 0              @ ../../../../Library/StdDriver/src/uart.c:587:18
	ldr	r0, [r1, #44]
	movs	r2, #207
	bics	r0, r2
	str	r0, [r1, #44]
	.loc	4 588 22 is_stmt 1              @ ../../../../Library/StdDriver/src/uart.c:588:22
	ldr	r2, [sp, #4]
	.loc	4 588 33 is_stmt 0              @ ../../../../Library/StdDriver/src/uart.c:588:33
	ldr	r0, [sp]
	.loc	4 588 30                        @ ../../../../Library/StdDriver/src/uart.c:588:30
	orrs	r2, r0
	.loc	4 588 5                         @ ../../../../Library/StdDriver/src/uart.c:588:5
	ldr	r1, [sp, #8]
	.loc	4 588 18                        @ ../../../../Library/StdDriver/src/uart.c:588:18
	ldr	r0, [r1, #44]
	orrs	r0, r2
	str	r0, [r1, #44]
	.loc	4 589 1 is_stmt 1               @ ../../../../Library/StdDriver/src/uart.c:589:1
	add	sp, #12
	bx	lr
.Ltmp152:
.Lfunc_end12:
	.size	UART_SelectLINMode, .Lfunc_end12-UART_SelectLINMode
	.cfi_endproc
	.cantunwind
	.fnend
                                        @ -- End function
	.section	.text.UART_Write,"ax",%progbits
	.hidden	UART_Write                      @ -- Begin function UART_Write
	.globl	UART_Write
	.p2align	1
	.type	UART_Write,%function
	.code	16                              @ @UART_Write
	.thumb_func
UART_Write:
.Lfunc_begin13:
	.loc	4 604 0                         @ ../../../../Library/StdDriver/src/uart.c:604:0
	.fnstart
	.cfi_startproc
@ %bb.0:
	.pad	#24
	sub	sp, #24
	.cfi_def_cfa_offset 24
	str	r0, [sp, #20]
	str	r1, [sp, #16]
	str	r2, [sp, #12]
	movs	r0, #0
.Ltmp153:
	.loc	4 606 15 prologue_end           @ ../../../../Library/StdDriver/src/uart.c:606:15
	str	r0, [sp, #4]
.Ltmp154:
	.loc	4 608 19                        @ ../../../../Library/StdDriver/src/uart.c:608:19
	str	r0, [sp, #8]
	.loc	4 608 10 is_stmt 0              @ ../../../../Library/StdDriver/src/uart.c:608:10
	b	.LBB13_1
.LBB13_1:                               @ =>This Loop Header: Depth=1
                                        @     Child Loop BB13_3 Depth 2
.Ltmp155:
	.loc	4 608 26                        @ ../../../../Library/StdDriver/src/uart.c:608:26
	ldr	r0, [sp, #8]
	.loc	4 608 38                        @ ../../../../Library/StdDriver/src/uart.c:608:38
	ldr	r1, [sp, #12]
.Ltmp156:
	.loc	4 608 5                         @ ../../../../Library/StdDriver/src/uart.c:608:5
	cmp	r0, r1
	beq	.LBB13_13
	b	.LBB13_2
.LBB13_2:                               @   in Loop: Header=BB13_1 Depth=1
	.loc	4 0 5                           @ ../../../../Library/StdDriver/src/uart.c:0:5
	movs	r0, #0
.Ltmp157:
	.loc	4 610 18 is_stmt 1              @ ../../../../Library/StdDriver/src/uart.c:610:18
	str	r0, [sp]
	.loc	4 612 9                         @ ../../../../Library/StdDriver/src/uart.c:612:9
	b	.LBB13_3
.LBB13_3:                               @   Parent Loop BB13_1 Depth=1
                                        @ =>  This Inner Loop Header: Depth=2
	.loc	4 612 16 is_stmt 0              @ ../../../../Library/StdDriver/src/uart.c:612:16
	ldr	r0, [sp, #20]
	.loc	4 612 22                        @ ../../../../Library/StdDriver/src/uart.c:612:22
	ldr	r0, [r0, #24]
	.loc	4 612 9                         @ ../../../../Library/StdDriver/src/uart.c:612:9
	lsls	r0, r0, #8
	cmp	r0, #0
	bpl	.LBB13_8
	b	.LBB13_4
.LBB13_4:                               @   in Loop: Header=BB13_3 Depth=2
.Ltmp158:
	.loc	4 614 24 is_stmt 1              @ ../../../../Library/StdDriver/src/uart.c:614:24
	ldr	r0, [sp]
	adds	r0, r0, #1
	str	r0, [sp]
.Ltmp159:
	.loc	4 616 17                        @ ../../../../Library/StdDriver/src/uart.c:616:17
	ldr	r0, [sp]
.Ltmp160:
	.loc	4 616 17 is_stmt 0              @ ../../../../Library/StdDriver/src/uart.c:616:17
	lsrs	r0, r0, #30
	cbz	r0, .LBB13_6
	b	.LBB13_5
.LBB13_5:                               @   in Loop: Header=BB13_1 Depth=1
	.loc	4 0 17                          @ ../../../../Library/StdDriver/src/uart.c:0:17
	movs	r0, #1
.Ltmp161:
	.loc	4 618 25 is_stmt 1              @ ../../../../Library/StdDriver/src/uart.c:618:25
	str	r0, [sp, #4]
	.loc	4 619 17                        @ ../../../../Library/StdDriver/src/uart.c:619:17
	b	.LBB13_8
.Ltmp162:
.LBB13_6:                               @   in Loop: Header=BB13_3 Depth=2
	.loc	4 0 17 is_stmt 0                @ ../../../../Library/StdDriver/src/uart.c:0:17
	b	.LBB13_7
.LBB13_7:                               @   in Loop: Header=BB13_3 Depth=2
	.loc	4 612 9 is_stmt 1               @ ../../../../Library/StdDriver/src/uart.c:612:9
	b	.LBB13_3
.LBB13_8:                               @   in Loop: Header=BB13_1 Depth=1
.Ltmp163:
	.loc	4 626 13                        @ ../../../../Library/StdDriver/src/uart.c:626:13
	ldr	r0, [sp, #4]
.Ltmp164:
	.loc	4 626 13 is_stmt 0              @ ../../../../Library/StdDriver/src/uart.c:626:13
	cmp	r0, #1
	bne	.LBB13_10
	b	.LBB13_9
.LBB13_9:
.Ltmp165:
	.loc	4 628 13 is_stmt 1              @ ../../../../Library/StdDriver/src/uart.c:628:13
	b	.LBB13_13
.Ltmp166:
.LBB13_10:                              @   in Loop: Header=BB13_1 Depth=1
	.loc	4 632 25                        @ ../../../../Library/StdDriver/src/uart.c:632:25
	ldr	r0, [sp, #16]
	.loc	4 632 34 is_stmt 0              @ ../../../../Library/StdDriver/src/uart.c:632:34
	ldr	r1, [sp, #8]
	.loc	4 632 25                        @ ../../../../Library/StdDriver/src/uart.c:632:25
	ldrb	r0, [r0, r1]
	.loc	4 632 13                        @ ../../../../Library/StdDriver/src/uart.c:632:13
	ldr	r1, [sp, #20]
	.loc	4 632 23                        @ ../../../../Library/StdDriver/src/uart.c:632:23
	str	r0, [r1]
	b	.LBB13_11
.Ltmp167:
.LBB13_11:                              @   in Loop: Header=BB13_1 Depth=1
	.loc	4 634 5 is_stmt 1               @ ../../../../Library/StdDriver/src/uart.c:634:5
	b	.LBB13_12
.Ltmp168:
.LBB13_12:                              @   in Loop: Header=BB13_1 Depth=1
	.loc	4 608 61                        @ ../../../../Library/StdDriver/src/uart.c:608:61
	ldr	r0, [sp, #8]
	adds	r0, r0, #1
	str	r0, [sp, #8]
	.loc	4 608 5 is_stmt 0               @ ../../../../Library/StdDriver/src/uart.c:608:5
	b	.LBB13_1
.Ltmp169:
.LBB13_13:
	.loc	4 636 12 is_stmt 1              @ ../../../../Library/StdDriver/src/uart.c:636:12
	ldr	r0, [sp, #8]
	.loc	4 636 5 is_stmt 0               @ ../../../../Library/StdDriver/src/uart.c:636:5
	add	sp, #24
	bx	lr
.Ltmp170:
.Lfunc_end13:
	.size	UART_Write, .Lfunc_end13-UART_Write
	.cfi_endproc
	.cantunwind
	.fnend
                                        @ -- End function
	.section	.text.UART_SelectSingleWireMode,"ax",%progbits
	.hidden	UART_SelectSingleWireMode       @ -- Begin function UART_SelectSingleWireMode
	.globl	UART_SelectSingleWireMode
	.p2align	1
	.type	UART_SelectSingleWireMode,%function
	.code	16                              @ @UART_SelectSingleWireMode
	.thumb_func
UART_SelectSingleWireMode:
.Lfunc_begin14:
	.loc	4 648 0 is_stmt 1               @ ../../../../Library/StdDriver/src/uart.c:648:0
	.fnstart
	.cfi_startproc
@ %bb.0:
	.pad	#4
	sub	sp, #4
	.cfi_def_cfa_offset 4
	str	r0, [sp]
.Ltmp171:
	.loc	4 651 23 prologue_end           @ ../../../../Library/StdDriver/src/uart.c:651:23
	ldr	r0, [sp]
	.loc	4 651 29 is_stmt 0              @ ../../../../Library/StdDriver/src/uart.c:651:29
	ldr	r0, [r0, #48]
	movs	r1, #4
	.loc	4 651 37                        @ ../../../../Library/StdDriver/src/uart.c:651:37
	orrs	r0, r1
	movs	r1, #3
	.loc	4 651 68                        @ ../../../../Library/StdDriver/src/uart.c:651:68
	bics	r0, r1
	.loc	4 651 5                         @ ../../../../Library/StdDriver/src/uart.c:651:5
	ldr	r1, [sp]
	.loc	4 651 19                        @ ../../../../Library/StdDriver/src/uart.c:651:19
	str	r0, [r1, #48]
	.loc	4 653 1 is_stmt 1               @ ../../../../Library/StdDriver/src/uart.c:653:1
	add	sp, #4
	bx	lr
.Ltmp172:
.Lfunc_end14:
	.size	UART_SelectSingleWireMode, .Lfunc_end14-UART_SelectSingleWireMode
	.cfi_endproc
	.cantunwind
	.fnend
                                        @ -- End function
	.type	.L__const.UART_Open.au32ClkTbl,%object @ @__const.UART_Open.au32ClkTbl
	.section	.rodata..L__const.UART_Open.au32ClkTbl,"a",%progbits
	.p2align	2, 0x0
.L__const.UART_Open.au32ClkTbl:
	.long	12000000                        @ 0xb71b00
	.long	0                               @ 0x0
	.long	32768                           @ 0x8000
	.long	48000000                        @ 0x2dc6c00
	.long	0                               @ 0x0
	.long	38400                           @ 0x9600
	.size	.L__const.UART_Open.au32ClkTbl, 24

	.type	.L__const.UART_SetLine_Config.au32ClkTbl,%object @ @__const.UART_SetLine_Config.au32ClkTbl
	.section	.rodata..L__const.UART_SetLine_Config.au32ClkTbl,"a",%progbits
	.p2align	2, 0x0
.L__const.UART_SetLine_Config.au32ClkTbl:
	.long	12000000                        @ 0xb71b00
	.long	0                               @ 0x0
	.long	32768                           @ 0x8000
	.long	48000000                        @ 0x2dc6c00
	.long	0                               @ 0x0
	.long	38400                           @ 0x9600
	.size	.L__const.UART_SetLine_Config.au32ClkTbl, 24

	.type	.L__const.UART_SelectIrDAMode.au32ClkTbl,%object @ @__const.UART_SelectIrDAMode.au32ClkTbl
	.section	.rodata..L__const.UART_SelectIrDAMode.au32ClkTbl,"a",%progbits
	.p2align	2, 0x0
.L__const.UART_SelectIrDAMode.au32ClkTbl:
	.long	12000000                        @ 0xb71b00
	.long	0                               @ 0x0
	.long	32768                           @ 0x8000
	.long	48000000                        @ 0x2dc6c00
	.long	0                               @ 0x0
	.long	38400                           @ 0x9600
	.size	.L__const.UART_SelectIrDAMode.au32ClkTbl, 24

	.section	".note.GNU-stack","",%progbits
	.eabi_attribute	30, 6	@ Tag_ABI_optimization_goals
	.ARM_attribute	16, 1	@ Tag_AV_eba