	.text
	.syntax unified
	.eabi_attribute	67, "2.09"	@ Tag_conformance
	.cpu	cortex-m23
	.eabi_attribute	6, 16	@ Tag_CPU_arch
	.eabi_attribute	7, 77	@ Tag_CPU_arch_profile
	.eabi_attribute	8, 0	@ Tag_ARM_ISA_use
	.eabi_attribute	9, 3	@ Tag_THUMB_ISA_use
	.eabi_attribute	34, 0	@ Tag_CPU_unaligned_access
	.eabi_attribute	17, 1	@ Tag_ABI_PCS_GOT_use
	.eabi_attribute	20, 2	@ Tag_ABI_FP_denormal
	.eabi_attribute	21, 0	@ Tag_ABI_FP_exceptions
	.eabi_attribute	23, 1	@ Tag_ABI_FP_number_model
	.eabi_attribute	24, 1	@ Tag_ABI_align_needed
	.eabi_attribute	25, 1	@ Tag_ABI_align_preserved
	.eabi_attribute	38, 1	@ Tag_ABI_FP_16bit_format
	.eabi_attribute	18, 2	@ Tag_ABI_PCS_wchar_t
	.eabi_attribute	26, 1	@ Tag_ABI_enum_size
	.eabi_attribute	14, 0	@ Tag_ABI_PCS_R9_use
	.file	"usci_uart.c"
	.file	1 "C:\\Keil_v5\\ARM\\ARMCLANG\\Bin\\..\\include" "stdint.h"
	.file	2 "E:\\ROBOCON2024\\01. Coding\\Nuvoton\\demo_robot_3wheel\\SampleCode\\NuCodeGen\\DemoCodeGen\\KEIL" "../../../../Library/Device/Nuvoton/M251/Include/uuart_reg.h"
	.section	.text.UUART_ClearIntFlag,"ax",%progbits
	.hidden	UUART_ClearIntFlag              @ -- Begin function UUART_ClearIntFlag
	.globl	UUART_ClearIntFlag
	.p2align	1
	.type	UUART_ClearIntFlag,%function
	.code	16                              @ @UUART_ClearIntFlag
	.thumb_func
UUART_ClearIntFlag:
.Lfunc_begin0:
	.file	3 "E:\\ROBOCON2024\\01. Coding\\Nuvoton\\demo_robot_3wheel\\SampleCode\\NuCodeGen\\DemoCodeGen\\KEIL" "../../../../Library/StdDriver/src/usci_uart.c"
	.loc	3 46 0                          @ ../../../../Library/StdDriver/src/usci_uart.c:46:0
	.fnstart
	.cfi_sections .debug_frame
	.cfi_startproc
@ %bb.0:
	.pad	#8
	sub	sp, #8
	.cfi_def_cfa_offset 8
	str	r0, [sp, #4]
	str	r1, [sp]
	mov	r0, sp
.Ltmp0:
	.loc	3 48 9 prologue_end             @ ../../../../Library/StdDriver/src/usci_uart.c:48:9
	ldrb	r0, [r0]
	lsls	r0, r0, #30
	cmp	r0, #0
	bpl	.LBB0_2
	b	.LBB0_1
.LBB0_1:
.Ltmp1:
	.loc	3 50 9                          @ ../../../../Library/StdDriver/src/usci_uart.c:50:9
	ldr	r1, [sp, #4]
	movw	r0, #512
	.loc	3 50 26 is_stmt 0               @ ../../../../Library/StdDriver/src/usci_uart.c:50:26
	str	r0, [r1, #100]
	.loc	3 51 5 is_stmt 1                @ ../../../../Library/StdDriver/src/usci_uart.c:51:5
	b	.LBB0_2
.Ltmp2:
.LBB0_2:
	.loc	3 0 5 is_stmt 0                 @ ../../../../Library/StdDriver/src/usci_uart.c:0:5
	mov	r0, sp
	.loc	3 53 9 is_stmt 1                @ ../../../../Library/StdDriver/src/usci_uart.c:53:9
	ldrb	r0, [r0]
	lsls	r0, r0, #29
	cmp	r0, #0
	bpl	.LBB0_4
	b	.LBB0_3
.LBB0_3:
.Ltmp3:
	.loc	3 55 9                          @ ../../../../Library/StdDriver/src/usci_uart.c:55:9
	ldr	r1, [sp, #4]
	movs	r0, #224
	.loc	3 55 26 is_stmt 0               @ ../../../../Library/StdDriver/src/usci_uart.c:55:26
	str	r0, [r1, #100]
	.loc	3 56 5 is_stmt 1                @ ../../../../Library/StdDriver/src/usci_uart.c:56:5
	b	.LBB0_4
.Ltmp4:
.LBB0_4:
	.loc	3 0 5 is_stmt 0                 @ ../../../../Library/StdDriver/src/usci_uart.c:0:5
	mov	r0, sp
	.loc	3 58 9 is_stmt 1                @ ../../../../Library/StdDriver/src/usci_uart.c:58:9
	ldrb	r0, [r0]
	lsls	r0, r0, #28
	cmp	r0, #0
	bpl	.LBB0_6
	b	.LBB0_5
.LBB0_5:
.Ltmp5:
	.loc	3 60 9                          @ ../../../../Library/StdDriver/src/usci_uart.c:60:9
	ldr	r1, [sp, #4]
	movs	r0, #8
	.loc	3 60 25 is_stmt 0               @ ../../../../Library/StdDriver/src/usci_uart.c:60:25
	str	r0, [r1, #60]
	.loc	3 61 5 is_stmt 1                @ ../../../../Library/StdDriver/src/usci_uart.c:61:5
	b	.LBB0_6
.Ltmp6:
.LBB0_6:
	.loc	3 0 5 is_stmt 0                 @ ../../../../Library/StdDriver/src/usci_uart.c:0:5
	mov	r0, sp
	.loc	3 63 9 is_stmt 1                @ ../../../../Library/StdDriver/src/usci_uart.c:63:9
	ldrb	r0, [r0]
	lsls	r0, r0, #27
	cmp	r0, #0
	bpl	.LBB0_8
	b	.LBB0_7
.LBB0_7:
.Ltmp7:
	.loc	3 65 9                          @ ../../../../Library/StdDriver/src/usci_uart.c:65:9
	ldr	r1, [sp, #4]
	movs	r0, #2
	.loc	3 65 26 is_stmt 0               @ ../../../../Library/StdDriver/src/usci_uart.c:65:26
	str	r0, [r1, #100]
	.loc	3 66 5 is_stmt 1                @ ../../../../Library/StdDriver/src/usci_uart.c:66:5
	b	.LBB0_8
.Ltmp8:
.LBB0_8:
	.loc	3 0 5 is_stmt 0                 @ ../../../../Library/StdDriver/src/usci_uart.c:0:5
	mov	r0, sp
	.loc	3 68 9 is_stmt 1                @ ../../../../Library/StdDriver/src/usci_uart.c:68:9
	ldrb	r0, [r0]
	lsls	r0, r0, #26
	cmp	r0, #0
	bpl	.LBB0_10
	b	.LBB0_9
.LBB0_9:
.Ltmp9:
	.loc	3 70 9                          @ ../../../../Library/StdDriver/src/usci_uart.c:70:9
	ldr	r1, [sp, #4]
	movs	r0, #4
	.loc	3 70 26 is_stmt 0               @ ../../../../Library/StdDriver/src/usci_uart.c:70:26
	str	r0, [r1, #100]
	.loc	3 71 5 is_stmt 1                @ ../../../../Library/StdDriver/src/usci_uart.c:71:5
	b	.LBB0_10
.Ltmp10:
.LBB0_10:
	.loc	3 0 5 is_stmt 0                 @ ../../../../Library/StdDriver/src/usci_uart.c:0:5
	mov	r0, sp
	.loc	3 73 9 is_stmt 1                @ ../../../../Library/StdDriver/src/usci_uart.c:73:9
	ldrb	r0, [r0]
	lsls	r0, r0, #25
	cmp	r0, #0
	bpl	.LBB0_12
	b	.LBB0_11
.LBB0_11:
.Ltmp11:
	.loc	3 75 9                          @ ../../../../Library/StdDriver/src/usci_uart.c:75:9
	ldr	r1, [sp, #4]
	movs	r0, #8
	.loc	3 75 26 is_stmt 0               @ ../../../../Library/StdDriver/src/usci_uart.c:75:26
	str	r0, [r1, #100]
	.loc	3 76 5 is_stmt 1                @ ../../../../Library/StdDriver/src/usci_uart.c:76:5
	b	.LBB0_12
.Ltmp12:
.LBB0_12:
	.loc	3 0 5 is_stmt 0                 @ ../../../../Library/StdDriver/src/usci_uart.c:0:5
	mov	r0, sp
	.loc	3 78 9 is_stmt 1                @ ../../../../Library/StdDriver/src/usci_uart.c:78:9
	ldrb	r0, [r0]
	lsls	r0, r0, #24
	cmp	r0, #0
	bpl	.LBB0_14
	b	.LBB0_13
.LBB0_13:
.Ltmp13:
	.loc	3 80 9                          @ ../../../../Library/StdDriver/src/usci_uart.c:80:9
	ldr	r1, [sp, #4]
	movs	r0, #16
	.loc	3 80 26 is_stmt 0               @ ../../../../Library/StdDriver/src/usci_uart.c:80:26
	str	r0, [r1, #100]
	.loc	3 81 5 is_stmt 1                @ ../../../../Library/StdDriver/src/usci_uart.c:81:5
	b	.LBB0_14
.Ltmp14:
.LBB0_14:
	.loc	3 83 1                          @ ../../../../Library/StdDriver/src/usci_uart.c:83:1
	add	sp, #8
	bx	lr
.Ltmp15:
.Lfunc_end0:
	.size	UUART_ClearIntFlag, .Lfunc_end0-UUART_ClearIntFlag
	.cfi_endproc
	.cantunwind
	.fnend
                                        @ -- End function
	.section	.text.UUART_GetIntFlag,"ax",%progbits
	.hidden	UUART_GetIntFlag                @ -- Begin function UUART_GetIntFlag
	.globl	UUART_GetIntFlag
	.p2align	1
	.type	UUART_GetIntFlag,%function
	.code	16                              @ @UUART_GetIntFlag
	.thumb_func
UUART_GetIntFlag:
.Lfunc_begin1:
	.loc	3 106 0                         @ ../../../../Library/StdDriver/src/usci_uart.c:106:0
	.fnstart
	.cfi_startproc
@ %bb.0:
	.pad	#20
	sub	sp, #20
	.cfi_def_cfa_offset 20
	str	r0, [sp, #16]
	str	r1, [sp, #12]
	movs	r0, #0
.Ltmp16:
	.loc	3 107 14 prologue_end           @ ../../../../Library/StdDriver/src/usci_uart.c:107:14
	str	r0, [sp, #8]
	.loc	3 111 16                        @ ../../../../Library/StdDriver/src/usci_uart.c:111:16
	ldr	r0, [sp, #12]
	movs	r1, #2
	.loc	3 111 24 is_stmt 0              @ ../../../../Library/StdDriver/src/usci_uart.c:111:24
	ands	r0, r1
	.loc	3 111 13                        @ ../../../../Library/StdDriver/src/usci_uart.c:111:13
	str	r0, [sp, #4]
	.loc	3 112 16 is_stmt 1              @ ../../../../Library/StdDriver/src/usci_uart.c:112:16
	ldr	r0, [sp, #16]
	.loc	3 112 25 is_stmt 0              @ ../../../../Library/StdDriver/src/usci_uart.c:112:25
	ldr	r0, [r0, #100]
	movw	r1, #512
	.loc	3 112 33                        @ ../../../../Library/StdDriver/src/usci_uart.c:112:33
	ands	r0, r1
	.loc	3 112 13                        @ ../../../../Library/StdDriver/src/usci_uart.c:112:13
	str	r0, [sp]
.Ltmp17:
	.loc	3 114 9 is_stmt 1               @ ../../../../Library/StdDriver/src/usci_uart.c:114:9
	ldr	r0, [sp, #4]
	.loc	3 114 17 is_stmt 0              @ ../../../../Library/StdDriver/src/usci_uart.c:114:17
	cbz	r0, .LBB1_3
	b	.LBB1_1
.LBB1_1:
	.loc	3 114 20                        @ ../../../../Library/StdDriver/src/usci_uart.c:114:20
	ldr	r0, [sp]
.Ltmp18:
	.loc	3 114 9                         @ ../../../../Library/StdDriver/src/usci_uart.c:114:9
	cbz	r0, .LBB1_3
	b	.LBB1_2
.LBB1_2:
.Ltmp19:
	.loc	3 116 20 is_stmt 1              @ ../../../../Library/StdDriver/src/usci_uart.c:116:20
	ldr	r0, [sp, #8]
	movs	r1, #2
	orrs	r0, r1
	str	r0, [sp, #8]
	.loc	3 117 5                         @ ../../../../Library/StdDriver/src/usci_uart.c:117:5
	b	.LBB1_3
.Ltmp20:
.LBB1_3:
	.loc	3 120 16                        @ ../../../../Library/StdDriver/src/usci_uart.c:120:16
	ldr	r0, [sp, #12]
	movs	r1, #4
	.loc	3 120 24 is_stmt 0              @ ../../../../Library/StdDriver/src/usci_uart.c:120:24
	ands	r0, r1
	.loc	3 120 13                        @ ../../../../Library/StdDriver/src/usci_uart.c:120:13
	str	r0, [sp, #4]
	.loc	3 121 16 is_stmt 1              @ ../../../../Library/StdDriver/src/usci_uart.c:121:16
	ldr	r0, [sp, #16]
	.loc	3 121 25 is_stmt 0              @ ../../../../Library/StdDriver/src/usci_uart.c:121:25
	ldr	r0, [r0, #100]
	movs	r1, #224
	.loc	3 121 33                        @ ../../../../Library/StdDriver/src/usci_uart.c:121:33
	ands	r0, r1
	.loc	3 121 13                        @ ../../../../Library/StdDriver/src/usci_uart.c:121:13
	str	r0, [sp]
.Ltmp21:
	.loc	3 123 9 is_stmt 1               @ ../../../../Library/StdDriver/src/usci_uart.c:123:9
	ldr	r0, [sp, #4]
	.loc	3 123 17 is_stmt 0              @ ../../../../Library/StdDriver/src/usci_uart.c:123:17
	cbz	r0, .LBB1_6
	b	.LBB1_4
.LBB1_4:
	.loc	3 123 20                        @ ../../../../Library/StdDriver/src/usci_uart.c:123:20
	ldr	r0, [sp]
.Ltmp22:
	.loc	3 123 9                         @ ../../../../Library/StdDriver/src/usci_uart.c:123:9
	cbz	r0, .LBB1_6
	b	.LBB1_5
.LBB1_5:
.Ltmp23:
	.loc	3 125 20 is_stmt 1              @ ../../../../Library/StdDriver/src/usci_uart.c:125:20
	ldr	r0, [sp, #8]
	movs	r1, #4
	orrs	r0, r1
	str	r0, [sp, #8]
	.loc	3 126 5                         @ ../../../../Library/StdDriver/src/usci_uart.c:126:5
	b	.LBB1_6
.Ltmp24:
.LBB1_6:
	.loc	3 129 16                        @ ../../../../Library/StdDriver/src/usci_uart.c:129:16
	ldr	r0, [sp, #12]
	movs	r1, #8
	.loc	3 129 24 is_stmt 0              @ ../../../../Library/StdDriver/src/usci_uart.c:129:24
	ands	r0, r1
	.loc	3 129 13                        @ ../../../../Library/StdDriver/src/usci_uart.c:129:13
	str	r0, [sp, #4]
	.loc	3 130 16 is_stmt 1              @ ../../../../Library/StdDriver/src/usci_uart.c:130:16
	ldr	r0, [sp, #16]
	.loc	3 130 25 is_stmt 0              @ ../../../../Library/StdDriver/src/usci_uart.c:130:25
	ldr	r0, [r0, #60]
	.loc	3 130 32                        @ ../../../../Library/StdDriver/src/usci_uart.c:130:32
	ands	r0, r1
	.loc	3 130 13                        @ ../../../../Library/StdDriver/src/usci_uart.c:130:13
	str	r0, [sp]
.Ltmp25:
	.loc	3 132 9 is_stmt 1               @ ../../../../Library/StdDriver/src/usci_uart.c:132:9
	ldr	r0, [sp, #4]
	.loc	3 132 17 is_stmt 0              @ ../../../../Library/StdDriver/src/usci_uart.c:132:17
	cbz	r0, .LBB1_9
	b	.LBB1_7
.LBB1_7:
	.loc	3 132 20                        @ ../../../../Library/StdDriver/src/usci_uart.c:132:20
	ldr	r0, [sp]
.Ltmp26:
	.loc	3 132 9                         @ ../../../../Library/StdDriver/src/usci_uart.c:132:9
	cbz	r0, .LBB1_9
	b	.LBB1_8
.LBB1_8:
.Ltmp27:
	.loc	3 134 20 is_stmt 1              @ ../../../../Library/StdDriver/src/usci_uart.c:134:20
	ldr	r0, [sp, #8]
	movs	r1, #8
	orrs	r0, r1
	str	r0, [sp, #8]
	.loc	3 135 5                         @ ../../../../Library/StdDriver/src/usci_uart.c:135:5
	b	.LBB1_9
.Ltmp28:
.LBB1_9:
	.loc	3 138 16                        @ ../../../../Library/StdDriver/src/usci_uart.c:138:16
	ldr	r0, [sp, #12]
	movs	r1, #16
	.loc	3 138 24 is_stmt 0              @ ../../../../Library/StdDriver/src/usci_uart.c:138:24
	ands	r0, r1
	.loc	3 138 13                        @ ../../../../Library/StdDriver/src/usci_uart.c:138:13
	str	r0, [sp, #4]
	.loc	3 139 16 is_stmt 1              @ ../../../../Library/StdDriver/src/usci_uart.c:139:16
	ldr	r0, [sp, #16]
	.loc	3 139 25 is_stmt 0              @ ../../../../Library/StdDriver/src/usci_uart.c:139:25
	ldr	r0, [r0, #100]
	movs	r1, #2
	.loc	3 139 33                        @ ../../../../Library/StdDriver/src/usci_uart.c:139:33
	ands	r0, r1
	.loc	3 139 13                        @ ../../../../Library/StdDriver/src/usci_uart.c:139:13
	str	r0, [sp]
.Ltmp29:
	.loc	3 141 9 is_stmt 1               @ ../../../../Library/StdDriver/src/usci_uart.c:141:9
	ldr	r0, [sp, #4]
	.loc	3 141 17 is_stmt 0              @ ../../../../Library/StdDriver/src/usci_uart.c:141:17
	cbz	r0, .LBB1_12
	b	.LBB1_10
.LBB1_10:
	.loc	3 141 20                        @ ../../../../Library/StdDriver/src/usci_uart.c:141:20
	ldr	r0, [sp]
.Ltmp30:
	.loc	3 141 9                         @ ../../../../Library/StdDriver/src/usci_uart.c:141:9
	cbz	r0, .LBB1_12
	b	.LBB1_11
.LBB1_11:
.Ltmp31:
	.loc	3 143 20 is_stmt 1              @ ../../../../Library/StdDriver/src/usci_uart.c:143:20
	ldr	r0, [sp, #8]
	movs	r1, #16
	orrs	r0, r1
	str	r0, [sp, #8]
	.loc	3 144 5                         @ ../../../../Library/StdDriver/src/usci_uart.c:144:5
	b	.LBB1_12
.Ltmp32:
.LBB1_12:
	.loc	3 147 16                        @ ../../../../Library/StdDriver/src/usci_uart.c:147:16
	ldr	r0, [sp, #12]
	movs	r1, #32
	.loc	3 147 24 is_stmt 0              @ ../../../../Library/StdDriver/src/usci_uart.c:147:24
	ands	r0, r1
	.loc	3 147 13                        @ ../../../../Library/StdDriver/src/usci_uart.c:147:13
	str	r0, [sp, #4]
	.loc	3 148 16 is_stmt 1              @ ../../../../Library/StdDriver/src/usci_uart.c:148:16
	ldr	r0, [sp, #16]
	.loc	3 148 25 is_stmt 0              @ ../../../../Library/StdDriver/src/usci_uart.c:148:25
	ldr	r0, [r0, #100]
	movs	r1, #4
	.loc	3 148 33                        @ ../../../../Library/StdDriver/src/usci_uart.c:148:33
	ands	r0, r1
	.loc	3 148 13                        @ ../../../../Library/StdDriver/src/usci_uart.c:148:13
	str	r0, [sp]
.Ltmp33:
	.loc	3 150 9 is_stmt 1               @ ../../../../Library/StdDriver/src/usci_uart.c:150:9
	ldr	r0, [sp, #4]
	.loc	3 150 17 is_stmt 0              @ ../../../../Library/StdDriver/src/usci_uart.c:150:17
	cbz	r0, .LBB1_15
	b	.LBB1_13
.LBB1_13:
	.loc	3 150 20                        @ ../../../../Library/StdDriver/src/usci_uart.c:150:20
	ldr	r0, [sp]
.Ltmp34:
	.loc	3 150 9                         @ ../../../../Library/StdDriver/src/usci_uart.c:150:9
	cbz	r0, .LBB1_15
	b	.LBB1_14
.LBB1_14:
.Ltmp35:
	.loc	3 152 20 is_stmt 1              @ ../../../../Library/StdDriver/src/usci_uart.c:152:20
	ldr	r0, [sp, #8]
	movs	r1, #32
	orrs	r0, r1
	str	r0, [sp, #8]
	.loc	3 153 5                         @ ../../../../Library/StdDriver/src/usci_uart.c:153:5
	b	.LBB1_15
.Ltmp36:
.LBB1_15:
	.loc	3 156 16                        @ ../../../../Library/StdDriver/src/usci_uart.c:156:16
	ldr	r0, [sp, #12]
	movs	r1, #64
	.loc	3 156 24 is_stmt 0              @ ../../../../Library/StdDriver/src/usci_uart.c:156:24
	ands	r0, r1
	.loc	3 156 13                        @ ../../../../Library/StdDriver/src/usci_uart.c:156:13
	str	r0, [sp, #4]
	.loc	3 157 16 is_stmt 1              @ ../../../../Library/StdDriver/src/usci_uart.c:157:16
	ldr	r0, [sp, #16]
	.loc	3 157 25 is_stmt 0              @ ../../../../Library/StdDriver/src/usci_uart.c:157:25
	ldr	r0, [r0, #100]
	movs	r1, #8
	.loc	3 157 33                        @ ../../../../Library/StdDriver/src/usci_uart.c:157:33
	ands	r0, r1
	.loc	3 157 13                        @ ../../../../Library/StdDriver/src/usci_uart.c:157:13
	str	r0, [sp]
.Ltmp37:
	.loc	3 159 9 is_stmt 1               @ ../../../../Library/StdDriver/src/usci_uart.c:159:9
	ldr	r0, [sp, #4]
	.loc	3 159 17 is_stmt 0              @ ../../../../Library/StdDriver/src/usci_uart.c:159:17
	cbz	r0, .LBB1_18
	b	.LBB1_16
.LBB1_16:
	.loc	3 159 20                        @ ../../../../Library/StdDriver/src/usci_uart.c:159:20
	ldr	r0, [sp]
.Ltmp38:
	.loc	3 159 9                         @ ../../../../Library/StdDriver/src/usci_uart.c:159:9
	cbz	r0, .LBB1_18
	b	.LBB1_17
.LBB1_17:
.Ltmp39:
	.loc	3 161 20 is_stmt 1              @ ../../../../Library/StdDriver/src/usci_uart.c:161:20
	ldr	r0, [sp, #8]
	movs	r1, #64
	orrs	r0, r1
	str	r0, [sp, #8]
	.loc	3 162 5                         @ ../../../../Library/StdDriver/src/usci_uart.c:162:5
	b	.LBB1_18
.Ltmp40:
.LBB1_18:
	.loc	3 165 16                        @ ../../../../Library/StdDriver/src/usci_uart.c:165:16
	ldr	r0, [sp, #12]
	movs	r1, #128
	.loc	3 165 24 is_stmt 0              @ ../../../../Library/StdDriver/src/usci_uart.c:165:24
	ands	r0, r1
	.loc	3 165 13                        @ ../../../../Library/StdDriver/src/usci_uart.c:165:13
	str	r0, [sp, #4]
	.loc	3 166 16 is_stmt 1              @ ../../../../Library/StdDriver/src/usci_uart.c:166:16
	ldr	r0, [sp, #16]
	.loc	3 166 25 is_stmt 0              @ ../../../../Library/StdDriver/src/usci_uart.c:166:25
	ldr	r0, [r0, #100]
	movs	r1, #16
	.loc	3 166 33                        @ ../../../../Library/StdDriver/src/usci_uart.c:166:33
	ands	r0, r1
	.loc	3 166 13                        @ ../../../../Library/StdDriver/src/usci_uart.c:166:13
	str	r0, [sp]
.Ltmp41:
	.loc	3 168 9 is_stmt 1               @ ../../../../Library/StdDriver/src/usci_uart.c:168:9
	ldr	r0, [sp, #4]
	.loc	3 168 17 is_stmt 0              @ ../../../../Library/StdDriver/src/usci_uart.c:168:17
	cbz	r0, .LBB1_21
	b	.LBB1_19
.LBB1_19:
	.loc	3 168 20                        @ ../../../../Library/StdDriver/src/usci_uart.c:168:20
	ldr	r0, [sp]
.Ltmp42:
	.loc	3 168 9                         @ ../../../../Library/StdDriver/src/usci_uart.c:168:9
	cbz	r0, .LBB1_21
	b	.LBB1_20
.LBB1_20:
.Ltmp43:
	.loc	3 170 20 is_stmt 1              @ ../../../../Library/StdDriver/src/usci_uart.c:170:20
	ldr	r0, [sp, #8]
	movs	r1, #128
	orrs	r0, r1
	str	r0, [sp, #8]
	.loc	3 171 5                         @ ../../../../Library/StdDriver/src/usci_uart.c:171:5
	b	.LBB1_21
.Ltmp44:
.LBB1_21:
	.loc	3 173 12                        @ ../../../../Library/StdDriver/src/usci_uart.c:173:12
	ldr	r0, [sp, #8]
	.loc	3 173 5 is_stmt 0               @ ../../../../Library/StdDriver/src/usci_uart.c:173:5
	add	sp, #20
	bx	lr
.Ltmp45:
.Lfunc_end1:
	.size	UUART_GetIntFlag, .Lfunc_end1-UUART_GetIntFlag
	.cfi_endproc
	.cantunwind
	.fnend
                                        @ -- End function
	.section	.text.UUART_Close,"ax",%progbits
	.hidden	UUART_Close                     @ -- Begin function UUART_Close
	.globl	UUART_Close
	.p2align	1
	.type	UUART_Close,%function
	.code	16                              @ @UUART_Close
	.thumb_func
UUART_Close:
.Lfunc_begin2:
	.loc	3 187 0 is_stmt 1               @ ../../../../Library/StdDriver/src/usci_uart.c:187:0
	.fnstart
	.cfi_startproc
@ %bb.0:
	.pad	#4
	sub	sp, #4
	.cfi_def_cfa_offset 4
	str	r0, [sp]
.Ltmp46:
	.loc	3 188 5 prologue_end            @ ../../../../Library/StdDriver/src/usci_uart.c:188:5
	ldr	r1, [sp]
	movs	r0, #0
	.loc	3 188 18 is_stmt 0              @ ../../../../Library/StdDriver/src/usci_uart.c:188:18
	str	r0, [r1]
	.loc	3 189 1 is_stmt 1               @ ../../../../Library/StdDriver/src/usci_uart.c:189:1
	add	sp, #4
	bx	lr
.Ltmp47:
.Lfunc_end2:
	.size	UUART_Close, .Lfunc_end2-UUART_Close
	.cfi_endproc
	.cantunwind
	.fnend
                                        @ -- End function
	.section	.text.UUART_DisableInt,"ax",%progbits
	.hidden	UUART_DisableInt                @ -- Begin function UUART_DisableInt
	.globl	UUART_DisableInt
	.p2align	1
	.type	UUART_DisableInt,%function
	.code	16                              @ @UUART_DisableInt
	.thumb_func
UUART_DisableInt:
.Lfunc_begin3:
	.loc	3 211 0                         @ ../../../../Library/StdDriver/src/usci_uart.c:211:0
	.fnstart
	.cfi_startproc
@ %bb.0:
	.pad	#8
	sub	sp, #8
	.cfi_def_cfa_offset 8
	str	r0, [sp, #4]
	str	r1, [sp]
	mov	r0, sp
.Ltmp48:
	.loc	3 214 9 prologue_end            @ ../../../../Library/StdDriver/src/usci_uart.c:214:9
	ldrb	r0, [r0]
	lsls	r0, r0, #30
	cmp	r0, #0
	bpl	.LBB3_2
	b	.LBB3_1
.LBB3_1:
.Ltmp49:
	.loc	3 216 9                         @ ../../../../Library/StdDriver/src/usci_uart.c:216:9
	ldr	r1, [sp, #4]
	.loc	3 216 26 is_stmt 0              @ ../../../../Library/StdDriver/src/usci_uart.c:216:26
	ldr	r0, [r1, #96]
	movs	r2, #2
	bics	r0, r2
	str	r0, [r1, #96]
	.loc	3 217 5 is_stmt 1               @ ../../../../Library/StdDriver/src/usci_uart.c:217:5
	b	.LBB3_2
.Ltmp50:
.LBB3_2:
	.loc	3 0 5 is_stmt 0                 @ ../../../../Library/StdDriver/src/usci_uart.c:0:5
	mov	r0, sp
	.loc	3 220 9 is_stmt 1               @ ../../../../Library/StdDriver/src/usci_uart.c:220:9
	ldrb	r0, [r0]
	lsls	r0, r0, #29
	cmp	r0, #0
	bpl	.LBB3_4
	b	.LBB3_3
.LBB3_3:
.Ltmp51:
	.loc	3 222 9                         @ ../../../../Library/StdDriver/src/usci_uart.c:222:9
	ldr	r1, [sp, #4]
	.loc	3 222 26 is_stmt 0              @ ../../../../Library/StdDriver/src/usci_uart.c:222:26
	ldr	r0, [r1, #96]
	movs	r2, #4
	bics	r0, r2
	str	r0, [r1, #96]
	.loc	3 223 5 is_stmt 1               @ ../../../../Library/StdDriver/src/usci_uart.c:223:5
	b	.LBB3_4
.Ltmp52:
.LBB3_4:
	.loc	3 0 5 is_stmt 0                 @ ../../../../Library/StdDriver/src/usci_uart.c:0:5
	mov	r0, sp
	.loc	3 226 9 is_stmt 1               @ ../../../../Library/StdDriver/src/usci_uart.c:226:9
	ldrb	r0, [r0]
	lsls	r0, r0, #28
	cmp	r0, #0
	bpl	.LBB3_6
	b	.LBB3_5
.LBB3_5:
.Ltmp53:
	.loc	3 228 9                         @ ../../../../Library/StdDriver/src/usci_uart.c:228:9
	ldr	r1, [sp, #4]
	.loc	3 228 25 is_stmt 0              @ ../../../../Library/StdDriver/src/usci_uart.c:228:25
	ldr	r0, [r1, #56]
	movw	r2, #16384
	bics	r0, r2
	str	r0, [r1, #56]
	.loc	3 229 5 is_stmt 1               @ ../../../../Library/StdDriver/src/usci_uart.c:229:5
	b	.LBB3_6
.Ltmp54:
.LBB3_6:
	.loc	3 0 5 is_stmt 0                 @ ../../../../Library/StdDriver/src/usci_uart.c:0:5
	mov	r0, sp
	.loc	3 232 9 is_stmt 1               @ ../../../../Library/StdDriver/src/usci_uart.c:232:9
	ldrb	r0, [r0]
	lsls	r0, r0, #27
	cmp	r0, #0
	bpl	.LBB3_8
	b	.LBB3_7
.LBB3_7:
.Ltmp55:
	.loc	3 234 9                         @ ../../../../Library/StdDriver/src/usci_uart.c:234:9
	ldr	r1, [sp, #4]
	.loc	3 234 24 is_stmt 0              @ ../../../../Library/StdDriver/src/usci_uart.c:234:24
	ldr	r0, [r1, #4]
	movs	r2, #2
	bics	r0, r2
	str	r0, [r1, #4]
	.loc	3 235 5 is_stmt 1               @ ../../../../Library/StdDriver/src/usci_uart.c:235:5
	b	.LBB3_8
.Ltmp56:
.LBB3_8:
	.loc	3 0 5 is_stmt 0                 @ ../../../../Library/StdDriver/src/usci_uart.c:0:5
	mov	r0, sp
	.loc	3 238 9 is_stmt 1               @ ../../../../Library/StdDriver/src/usci_uart.c:238:9
	ldrb	r0, [r0]
	lsls	r0, r0, #26
	cmp	r0, #0
	bpl	.LBB3_10
	b	.LBB3_9
.LBB3_9:
.Ltmp57:
	.loc	3 240 9                         @ ../../../../Library/StdDriver/src/usci_uart.c:240:9
	ldr	r1, [sp, #4]
	.loc	3 240 24 is_stmt 0              @ ../../../../Library/StdDriver/src/usci_uart.c:240:24
	ldr	r0, [r1, #4]
	movs	r2, #4
	bics	r0, r2
	str	r0, [r1, #4]
	.loc	3 241 5 is_stmt 1               @ ../../../../Library/StdDriver/src/usci_uart.c:241:5
	b	.LBB3_10
.Ltmp58:
.LBB3_10:
	.loc	3 0 5 is_stmt 0                 @ ../../../../Library/StdDriver/src/usci_uart.c:0:5
	mov	r0, sp
	.loc	3 244 9 is_stmt 1               @ ../../../../Library/StdDriver/src/usci_uart.c:244:9
	ldrb	r0, [r0]
	lsls	r0, r0, #25
	cmp	r0, #0
	bpl	.LBB3_12
	b	.LBB3_11
.LBB3_11:
.Ltmp59:
	.loc	3 246 9                         @ ../../../../Library/StdDriver/src/usci_uart.c:246:9
	ldr	r1, [sp, #4]
	.loc	3 246 24 is_stmt 0              @ ../../../../Library/StdDriver/src/usci_uart.c:246:24
	ldr	r0, [r1, #4]
	movs	r2, #8
	bics	r0, r2
	str	r0, [r1, #4]
	.loc	3 247 5 is_stmt 1               @ ../../../../Library/StdDriver/src/usci_uart.c:247:5
	b	.LBB3_12
.Ltmp60:
.LBB3_12:
	.loc	3 0 5 is_stmt 0                 @ ../../../../Library/StdDriver/src/usci_uart.c:0:5
	mov	r0, sp
	.loc	3 250 9 is_stmt 1               @ ../../../../Library/StdDriver/src/usci_uart.c:250:9
	ldrb	r0, [r0]
	lsls	r0, r0, #24
	cmp	r0, #0
	bpl	.LBB3_14
	b	.LBB3_13
.LBB3_13:
.Ltmp61:
	.loc	3 252 9                         @ ../../../../Library/StdDriver/src/usci_uart.c:252:9
	ldr	r1, [sp, #4]
	.loc	3 252 24 is_stmt 0              @ ../../../../Library/StdDriver/src/usci_uart.c:252:24
	ldr	r0, [r1, #4]
	movs	r2, #16
	bics	r0, r2
	str	r0, [r1, #4]
	.loc	3 253 5 is_stmt 1               @ ../../../../Library/StdDriver/src/usci_uart.c:253:5
	b	.LBB3_14
.Ltmp62:
.LBB3_14:
	.loc	3 254 1                         @ ../../../../Library/StdDriver/src/usci_uart.c:254:1
	add	sp, #8
	bx	lr
.Ltmp63:
.Lfunc_end3:
	.size	UUART_DisableInt, .Lfunc_end3-UUART_DisableInt
	.cfi_endproc
	.cantunwind
	.fnend
                                        @ -- End function
	.section	.text.UUART_EnableInt,"ax",%progbits
	.hidden	UUART_EnableInt                 @ -- Begin function UUART_EnableInt
	.globl	UUART_EnableInt
	.p2align	1
	.type	UUART_EnableInt,%function
	.code	16                              @ @UUART_EnableInt
	.thumb_func
UUART_EnableInt:
.Lfunc_begin4:
	.loc	3 276 0                         @ ../../../../Library/StdDriver/src/usci_uart.c:276:0
	.fnstart
	.cfi_startproc
@ %bb.0:
	.pad	#8
	sub	sp, #8
	.cfi_def_cfa_offset 8
	str	r0, [sp, #4]
	str	r1, [sp]
	mov	r0, sp
.Ltmp64:
	.loc	3 278 9 prologue_end            @ ../../../../Library/StdDriver/src/usci_uart.c:278:9
	ldrb	r0, [r0]
	lsls	r0, r0, #30
	cmp	r0, #0
	bpl	.LBB4_2
	b	.LBB4_1
.LBB4_1:
.Ltmp65:
	.loc	3 280 9                         @ ../../../../Library/StdDriver/src/usci_uart.c:280:9
	ldr	r1, [sp, #4]
	.loc	3 280 26 is_stmt 0              @ ../../../../Library/StdDriver/src/usci_uart.c:280:26
	ldr	r0, [r1, #96]
	movs	r2, #2
	orrs	r0, r2
	str	r0, [r1, #96]
	.loc	3 281 5 is_stmt 1               @ ../../../../Library/StdDriver/src/usci_uart.c:281:5
	b	.LBB4_2
.Ltmp66:
.LBB4_2:
	.loc	3 0 5 is_stmt 0                 @ ../../../../Library/StdDriver/src/usci_uart.c:0:5
	mov	r0, sp
	.loc	3 284 9 is_stmt 1               @ ../../../../Library/StdDriver/src/usci_uart.c:284:9
	ldrb	r0, [r0]
	lsls	r0, r0, #29
	cmp	r0, #0
	bpl	.LBB4_4
	b	.LBB4_3
.LBB4_3:
.Ltmp67:
	.loc	3 286 9                         @ ../../../../Library/StdDriver/src/usci_uart.c:286:9
	ldr	r1, [sp, #4]
	.loc	3 286 26 is_stmt 0              @ ../../../../Library/StdDriver/src/usci_uart.c:286:26
	ldr	r0, [r1, #96]
	movs	r2, #4
	orrs	r0, r2
	str	r0, [r1, #96]
	.loc	3 287 5 is_stmt 1               @ ../../../../Library/StdDriver/src/usci_uart.c:287:5
	b	.LBB4_4
.Ltmp68:
.LBB4_4:
	.loc	3 0 5 is_stmt 0                 @ ../../../../Library/StdDriver/src/usci_uart.c:0:5
	mov	r0, sp
	.loc	3 290 9 is_stmt 1               @ ../../../../Library/StdDriver/src/usci_uart.c:290:9
	ldrb	r0, [r0]
	lsls	r0, r0, #28
	cmp	r0, #0
	bpl	.LBB4_6
	b	.LBB4_5
.LBB4_5:
.Ltmp69:
	.loc	3 292 9                         @ ../../../../Library/StdDriver/src/usci_uart.c:292:9
	ldr	r1, [sp, #4]
	.loc	3 292 25 is_stmt 0              @ ../../../../Library/StdDriver/src/usci_uart.c:292:25
	ldr	r0, [r1, #56]
	movw	r2, #16384
	orrs	r0, r2
	str	r0, [r1, #56]
	.loc	3 293 5 is_stmt 1               @ ../../../../Library/StdDriver/src/usci_uart.c:293:5
	b	.LBB4_6
.Ltmp70:
.LBB4_6:
	.loc	3 0 5 is_stmt 0                 @ ../../../../Library/StdDriver/src/usci_uart.c:0:5
	mov	r0, sp
	.loc	3 296 9 is_stmt 1               @ ../../../../Library/StdDriver/src/usci_uart.c:296:9
	ldrb	r0, [r0]
	lsls	r0, r0, #27
	cmp	r0, #0
	bpl	.LBB4_8
	b	.LBB4_7
.LBB4_7:
.Ltmp71:
	.loc	3 298 9                         @ ../../../../Library/StdDriver/src/usci_uart.c:298:9
	ldr	r1, [sp, #4]
	.loc	3 298 24 is_stmt 0              @ ../../../../Library/StdDriver/src/usci_uart.c:298:24
	ldr	r0, [r1, #4]
	movs	r2, #2
	orrs	r0, r2
	str	r0, [r1, #4]
	.loc	3 299 5 is_stmt 1               @ ../../../../Library/StdDriver/src/usci_uart.c:299:5
	b	.LBB4_8
.Ltmp72:
.LBB4_8:
	.loc	3 0 5 is_stmt 0                 @ ../../../../Library/StdDriver/src/usci_uart.c:0:5
	mov	r0, sp
	.loc	3 302 9 is_stmt 1               @ ../../../../Library/StdDriver/src/usci_uart.c:302:9
	ldrb	r0, [r0]
	lsls	r0, r0, #26
	cmp	r0, #0
	bpl	.LBB4_10
	b	.LBB4_9
.LBB4_9:
.Ltmp73:
	.loc	3 304 9                         @ ../../../../Library/StdDriver/src/usci_uart.c:304:9
	ldr	r1, [sp, #4]
	.loc	3 304 24 is_stmt 0              @ ../../../../Library/StdDriver/src/usci_uart.c:304:24
	ldr	r0, [r1, #4]
	movs	r2, #4
	orrs	r0, r2
	str	r0, [r1, #4]
	.loc	3 305 5 is_stmt 1               @ ../../../../Library/StdDriver/src/usci_uart.c:305:5
	b	.LBB4_10
.Ltmp74:
.LBB4_10:
	.loc	3 0 5 is_stmt 0                 @ ../../../../Library/StdDriver/src/usci_uart.c:0:5
	mov	r0, sp
	.loc	3 308 9 is_stmt 1               @ ../../../../Library/StdDriver/src/usci_uart.c:308:9
	ldrb	r0, [r0]
	lsls	r0, r0, #25
	cmp	r0, #0
	bpl	.LBB4_12
	b	.LBB4_11
.LBB4_11:
.Ltmp75:
	.loc	3 310 9                         @ ../../../../Library/StdDriver/src/usci_uart.c:310:9
	ldr	r1, [sp, #4]
	.loc	3 310 24 is_stmt 0              @ ../../../../Library/StdDriver/src/usci_uart.c:310:24
	ldr	r0, [r1, #4]
	movs	r2, #8
	orrs	r0, r2
	str	r0, [r1, #4]
	.loc	3 311 5 is_stmt 1               @ ../../../../Library/StdDriver/src/usci_uart.c:311:5
	b	.LBB4_12
.Ltmp76:
.LBB4_12:
	.loc	3 0 5 is_stmt 0                 @ ../../../../Library/StdDriver/src/usci_uart.c:0:5
	mov	r0, sp
	.loc	3 314 9 is_stmt 1               @ ../../../../Library/StdDriver/src/usci_uart.c:314:9
	ldrb	r0, [r0]
	lsls	r0, r0, #24
	cmp	r0, #0
	bpl	.LBB4_14
	b	.LBB4_13
.LBB4_13:
.Ltmp77:
	.loc	3 316 9                         @ ../../../../Library/StdDriver/src/usci_uart.c:316:9
	ldr	r1, [sp, #4]
	.loc	3 316 24 is_stmt 0              @ ../../../../Library/StdDriver/src/usci_uart.c:316:24
	ldr	r0, [r1, #4]
	movs	r2, #16
	orrs	r0, r2
	str	r0, [r1, #4]
	.loc	3 317 5 is_stmt 1               @ ../../../../Library/StdDriver/src/usci_uart.c:317:5
	b	.LBB4_14
.Ltmp78:
.LBB4_14:
	.loc	3 318 1                         @ ../../../../Library/StdDriver/src/usci_uart.c:318:1
	add	sp, #8
	bx	lr
.Ltmp79:
.Lfunc_end4:
	.size	UUART_EnableInt, .Lfunc_end4-UUART_EnableInt
	.cfi_endproc
	.cantunwind
	.fnend
                                        @ -- End function
	.section	.text.UUART_Open,"ax",%progbits
	.hidden	UUART_Open                      @ -- Begin function UUART_Open
	.globl	UUART_Open
	.p2align	2
	.type	UUART_Open,%function
	.code	16                              @ @UUART_Open
	.thumb_func
UUART_Open:
.Lfunc_begin5:
	.loc	3 332 0                         @ ../../../../Library/StdDriver/src/usci_uart.c:332:0
	.fnstart
	.cfi_startproc
@ %bb.0:
	.save	{r7, lr}
	push	{r7, lr}
	.cfi_def_cfa_offset 8
	.cfi_offset lr, -4
	.cfi_offset r7, -8
	.pad	#56
	sub	sp, #56
	.cfi_def_cfa_offset 64
	str	r0, [sp, #52]
	str	r1, [sp, #48]
.Ltmp80:
	.loc	3 338 10 prologue_end           @ ../../../../Library/StdDriver/src/usci_uart.c:338:10
	ldr	r0, [sp, #52]
	ldr	r1, __arm_cp.5_0
	.loc	3 338 29 is_stmt 0              @ ../../../../Library/StdDriver/src/usci_uart.c:338:29
	cmp	r0, r1
	beq	.LBB5_2
	b	.LBB5_1
.LBB5_1:
	.loc	3 338 33                        @ ../../../../Library/StdDriver/src/usci_uart.c:338:33
	ldr	r0, [sp, #52]
	ldr	r1, __arm_cp.5_1
.Ltmp81:
	.loc	3 338 9                         @ ../../../../Library/StdDriver/src/usci_uart.c:338:9
	cmp	r0, r1
	bne	.LBB5_3
	b	.LBB5_2
.LBB5_2:
.Ltmp82:
	.loc	3 340 23 is_stmt 1              @ ../../../../Library/StdDriver/src/usci_uart.c:340:23
	bl	CLK_GetPCLK0Freq
	.loc	3 340 21 is_stmt 0              @ ../../../../Library/StdDriver/src/usci_uart.c:340:21
	str	r0, [sp, #44]
	.loc	3 341 5 is_stmt 1               @ ../../../../Library/StdDriver/src/usci_uart.c:341:5
	b	.LBB5_4
.Ltmp83:
.LBB5_3:
	.loc	3 344 23                        @ ../../../../Library/StdDriver/src/usci_uart.c:344:23
	bl	CLK_GetPCLK1Freq
	.loc	3 344 21 is_stmt 0              @ ../../../../Library/StdDriver/src/usci_uart.c:344:21
	str	r0, [sp, #44]
	b	.LBB5_4
.Ltmp84:
.LBB5_4:
	.loc	3 348 14 is_stmt 1              @ ../../../../Library/StdDriver/src/usci_uart.c:348:14
	ldr	r0, [sp, #44]
	.loc	3 348 28 is_stmt 0              @ ../../../../Library/StdDriver/src/usci_uart.c:348:28
	ldr	r1, [sp, #48]
	.loc	3 348 26                        @ ../../../../Library/StdDriver/src/usci_uart.c:348:26
	udiv	r0, r0, r1
	.loc	3 348 12                        @ ../../../../Library/StdDriver/src/usci_uart.c:348:12
	str	r0, [sp, #8]
	.loc	3 351 15 is_stmt 1              @ ../../../../Library/StdDriver/src/usci_uart.c:351:15
	ldr	r0, [sp, #44]
	.loc	3 351 29 is_stmt 0              @ ../../../../Library/StdDriver/src/usci_uart.c:351:29
	ldr	r1, [sp, #8]
	.loc	3 351 27                        @ ../../../../Library/StdDriver/src/usci_uart.c:351:27
	udiv	r0, r0, r1
	.loc	3 351 39                        @ ../../../../Library/StdDriver/src/usci_uart.c:351:39
	ldr	r1, [sp, #48]
	.loc	3 351 37                        @ ../../../../Library/StdDriver/src/usci_uart.c:351:37
	subs	r0, r0, r1
	.loc	3 351 12                        @ ../../../../Library/StdDriver/src/usci_uart.c:351:12
	str	r0, [sp, #32]
	.loc	3 352 15 is_stmt 1              @ ../../../../Library/StdDriver/src/usci_uart.c:352:15
	ldr	r0, [sp, #48]
	.loc	3 352 30 is_stmt 0              @ ../../../../Library/StdDriver/src/usci_uart.c:352:30
	ldr	r1, [sp, #44]
	.loc	3 352 45                        @ ../../../../Library/StdDriver/src/usci_uart.c:352:45
	ldr	r2, [sp, #8]
	.loc	3 352 52                        @ ../../../../Library/StdDriver/src/usci_uart.c:352:52
	adds	r2, r2, #1
	.loc	3 352 42                        @ ../../../../Library/StdDriver/src/usci_uart.c:352:42
	udiv	r1, r1, r2
	.loc	3 352 27                        @ ../../../../Library/StdDriver/src/usci_uart.c:352:27
	subs	r0, r0, r1
	.loc	3 352 13                        @ ../../../../Library/StdDriver/src/usci_uart.c:352:13
	str	r0, [sp, #28]
.Ltmp85:
	.loc	3 354 9 is_stmt 1               @ ../../../../Library/StdDriver/src/usci_uart.c:354:9
	ldr	r0, [sp, #32]
	.loc	3 354 19 is_stmt 0              @ ../../../../Library/StdDriver/src/usci_uart.c:354:19
	ldr	r1, [sp, #28]
.Ltmp86:
	.loc	3 354 9                         @ ../../../../Library/StdDriver/src/usci_uart.c:354:9
	cmp	r0, r1
	blo	.LBB5_6
	b	.LBB5_5
.LBB5_5:
.Ltmp87:
	.loc	3 356 18 is_stmt 1              @ ../../../../Library/StdDriver/src/usci_uart.c:356:18
	ldr	r0, [sp, #8]
	.loc	3 356 25 is_stmt 0              @ ../../../../Library/StdDriver/src/usci_uart.c:356:25
	adds	r0, r0, #1
	.loc	3 356 16                        @ ../../../../Library/StdDriver/src/usci_uart.c:356:16
	str	r0, [sp, #8]
	.loc	3 357 5 is_stmt 1               @ ../../../../Library/StdDriver/src/usci_uart.c:357:5
	b	.LBB5_6
.Ltmp88:
.LBB5_6:
	.loc	3 0 5 is_stmt 0                 @ ../../../../Library/StdDriver/src/usci_uart.c:0:5
	movw	r0, #16384
	.loc	3 360 12 is_stmt 1              @ ../../../../Library/StdDriver/src/usci_uart.c:360:12
	str	r0, [sp, #32]
	movs	r0, #1
.Ltmp89:
	.loc	3 363 20                        @ ../../../../Library/StdDriver/src/usci_uart.c:363:20
	str	r0, [sp, #40]
	.loc	3 363 10 is_stmt 0              @ ../../../../Library/StdDriver/src/usci_uart.c:363:10
	b	.LBB5_7
.LBB5_7:                                @ =>This Inner Loop Header: Depth=1
.Ltmp90:
	.loc	3 363 25                        @ ../../../../Library/StdDriver/src/usci_uart.c:363:25
	ldr	r0, [sp, #40]
.Ltmp91:
	.loc	3 363 5                         @ ../../../../Library/StdDriver/src/usci_uart.c:363:5
	cmp	r0, #4
	bhi	.LBB5_12
	b	.LBB5_8
.LBB5_8:                                @   in Loop: Header=BB5_7 Depth=1
.Ltmp92:
	.loc	3 365 13 is_stmt 1              @ ../../../../Library/StdDriver/src/usci_uart.c:365:13
	ldr	r0, [sp, #8]
	.loc	3 365 24 is_stmt 0              @ ../../../../Library/StdDriver/src/usci_uart.c:365:24
	ldr	r2, [sp, #32]
	.loc	3 365 33                        @ ../../../../Library/StdDriver/src/usci_uart.c:365:33
	ldr	r1, [sp, #40]
	.loc	3 365 31                        @ ../../../../Library/StdDriver/src/usci_uart.c:365:31
	muls	r1, r2, r1
.Ltmp93:
	.loc	3 365 13                        @ ../../../../Library/StdDriver/src/usci_uart.c:365:13
	cmp	r0, r1
	bhi	.LBB5_10
	b	.LBB5_9
.LBB5_9:
.Ltmp94:
	.loc	3 365 45                        @ ../../../../Library/StdDriver/src/usci_uart.c:365:45
	b	.LBB5_12
.Ltmp95:
.LBB5_10:                               @   in Loop: Header=BB5_7 Depth=1
	.loc	3 366 5 is_stmt 1               @ ../../../../Library/StdDriver/src/usci_uart.c:366:5
	b	.LBB5_11
.Ltmp96:
.LBB5_11:                               @   in Loop: Header=BB5_7 Depth=1
	.loc	3 363 53                        @ ../../../../Library/StdDriver/src/usci_uart.c:363:53
	ldr	r0, [sp, #40]
	adds	r0, r0, #1
	str	r0, [sp, #40]
	.loc	3 363 5 is_stmt 0               @ ../../../../Library/StdDriver/src/usci_uart.c:363:5
	b	.LBB5_7
.Ltmp97:
.LBB5_12:
	.loc	3 369 9 is_stmt 1               @ ../../../../Library/StdDriver/src/usci_uart.c:369:9
	ldr	r0, [sp, #40]
.Ltmp98:
	.loc	3 369 9 is_stmt 0               @ ../../../../Library/StdDriver/src/usci_uart.c:369:9
	cmp	r0, #5
	blo	.LBB5_14
	b	.LBB5_13
.LBB5_13:
	.loc	3 0 9                           @ ../../../../Library/StdDriver/src/usci_uart.c:0:9
	movs	r0, #4
.Ltmp99:
	.loc	3 369 36                        @ ../../../../Library/StdDriver/src/usci_uart.c:369:36
	str	r0, [sp, #40]
	.loc	3 369 26                        @ ../../../../Library/StdDriver/src/usci_uart.c:369:26
	b	.LBB5_14
.Ltmp100:
.LBB5_14:
	.loc	3 372 14 is_stmt 1              @ ../../../../Library/StdDriver/src/usci_uart.c:372:14
	ldr	r0, [sp, #8]
	.loc	3 372 23 is_stmt 0              @ ../../../../Library/StdDriver/src/usci_uart.c:372:23
	ldr	r1, [sp, #40]
	.loc	3 372 21                        @ ../../../../Library/StdDriver/src/usci_uart.c:372:21
	udiv	r0, r0, r1
	.loc	3 372 12                        @ ../../../../Library/StdDriver/src/usci_uart.c:372:12
	str	r0, [sp, #32]
	.loc	3 373 16 is_stmt 1              @ ../../../../Library/StdDriver/src/usci_uart.c:373:16
	ldr	r0, [sp, #8]
	.loc	3 373 25 is_stmt 0              @ ../../../../Library/StdDriver/src/usci_uart.c:373:25
	ldr	r1, [sp, #32]
	.loc	3 373 23                        @ ../../../../Library/StdDriver/src/usci_uart.c:373:23
	udiv	r0, r0, r1
	.loc	3 373 35                        @ ../../../../Library/StdDriver/src/usci_uart.c:373:35
	ldr	r1, [sp, #40]
	.loc	3 373 33                        @ ../../../../Library/StdDriver/src/usci_uart.c:373:33
	subs	r0, r0, r1
	.loc	3 373 13                        @ ../../../../Library/StdDriver/src/usci_uart.c:373:13
	str	r0, [sp, #28]
	.loc	3 374 15 is_stmt 1              @ ../../../../Library/StdDriver/src/usci_uart.c:374:15
	ldr	r0, [sp, #40]
	.loc	3 374 28 is_stmt 0              @ ../../../../Library/StdDriver/src/usci_uart.c:374:28
	ldr	r1, [sp, #8]
	.loc	3 374 38                        @ ../../../../Library/StdDriver/src/usci_uart.c:374:38
	ldr	r2, [sp, #32]
	.loc	3 374 45                        @ ../../../../Library/StdDriver/src/usci_uart.c:374:45
	adds	r2, r2, #1
	.loc	3 374 35                        @ ../../../../Library/StdDriver/src/usci_uart.c:374:35
	udiv	r1, r1, r2
	.loc	3 374 25                        @ ../../../../Library/StdDriver/src/usci_uart.c:374:25
	subs	r0, r0, r1
	.loc	3 374 13                        @ ../../../../Library/StdDriver/src/usci_uart.c:374:13
	str	r0, [sp, #24]
.Ltmp101:
	.loc	3 376 9 is_stmt 1               @ ../../../../Library/StdDriver/src/usci_uart.c:376:9
	ldr	r0, [sp, #28]
	.loc	3 376 20 is_stmt 0              @ ../../../../Library/StdDriver/src/usci_uart.c:376:20
	ldr	r1, [sp, #24]
.Ltmp102:
	.loc	3 376 9                         @ ../../../../Library/StdDriver/src/usci_uart.c:376:9
	cmp	r0, r1
	blo	.LBB5_16
	b	.LBB5_15
.LBB5_15:
.Ltmp103:
	.loc	3 378 18 is_stmt 1              @ ../../../../Library/StdDriver/src/usci_uart.c:378:18
	ldr	r0, [sp, #32]
	.loc	3 378 25 is_stmt 0              @ ../../../../Library/StdDriver/src/usci_uart.c:378:25
	adds	r0, r0, #1
	.loc	3 378 16                        @ ../../../../Library/StdDriver/src/usci_uart.c:378:16
	str	r0, [sp, #8]
	.loc	3 379 5 is_stmt 1               @ ../../../../Library/StdDriver/src/usci_uart.c:379:5
	b	.LBB5_17
.Ltmp104:
.LBB5_16:
	.loc	3 380 19                        @ ../../../../Library/StdDriver/src/usci_uart.c:380:19
	ldr	r0, [sp, #32]
	.loc	3 380 17 is_stmt 0              @ ../../../../Library/StdDriver/src/usci_uart.c:380:17
	str	r0, [sp, #8]
	b	.LBB5_17
.Ltmp105:
.LBB5_17:
	.loc	3 0 17                          @ ../../../../Library/StdDriver/src/usci_uart.c:0:17
	movs	r0, #0
	mvns	r1, r0
	.loc	3 383 12 is_stmt 1              @ ../../../../Library/StdDriver/src/usci_uart.c:383:12
	str	r1, [sp, #20]
	.loc	3 384 17                        @ ../../../../Library/StdDriver/src/usci_uart.c:384:17
	str	r0, [sp, #12]
	.loc	3 385 18                        @ ../../../../Library/StdDriver/src/usci_uart.c:385:18
	str	r0, [sp, #16]
	movs	r0, #6
.Ltmp106:
	.loc	3 387 19                        @ ../../../../Library/StdDriver/src/usci_uart.c:387:19
	str	r0, [sp, #36]
	.loc	3 387 10 is_stmt 0              @ ../../../../Library/StdDriver/src/usci_uart.c:387:10
	b	.LBB5_18
.LBB5_18:                               @ =>This Inner Loop Header: Depth=1
.Ltmp107:
	.loc	3 387 24                        @ ../../../../Library/StdDriver/src/usci_uart.c:387:24
	ldr	r0, [sp, #36]
.Ltmp108:
	.loc	3 387 5                         @ ../../../../Library/StdDriver/src/usci_uart.c:387:5
	cmp	r0, #16
	bhi	.LBB5_31
	b	.LBB5_19
.LBB5_19:                               @   in Loop: Header=BB5_18 Depth=1
.Ltmp109:
	.loc	3 392 21 is_stmt 1              @ ../../../../Library/StdDriver/src/usci_uart.c:392:21
	ldr	r0, [sp, #8]
	.loc	3 392 30 is_stmt 0              @ ../../../../Library/StdDriver/src/usci_uart.c:392:30
	ldr	r1, [sp, #36]
	.loc	3 392 28                        @ ../../../../Library/StdDriver/src/usci_uart.c:392:28
	udiv	r0, r0, r1
	.loc	3 392 19                        @ ../../../../Library/StdDriver/src/usci_uart.c:392:19
	str	r0, [sp, #4]
.Ltmp110:
	.loc	3 394 13 is_stmt 1              @ ../../../../Library/StdDriver/src/usci_uart.c:394:13
	ldr	r0, [sp, #4]
.Ltmp111:
	.loc	3 394 13 is_stmt 0              @ ../../../../Library/StdDriver/src/usci_uart.c:394:13
	lsrs	r0, r0, #10
	cbz	r0, .LBB5_21
	b	.LBB5_20
.LBB5_20:                               @   in Loop: Header=BB5_18 Depth=1
	.loc	3 0 13                          @ ../../../../Library/StdDriver/src/usci_uart.c:0:13
	movw	r0, #1024
.Ltmp112:
	.loc	3 396 23 is_stmt 1              @ ../../../../Library/StdDriver/src/usci_uart.c:396:23
	str	r0, [sp, #4]
	.loc	3 397 42                        @ ../../../../Library/StdDriver/src/usci_uart.c:397:42
	ldr	r0, [sp, #44]
	.loc	3 397 57 is_stmt 0              @ ../../../../Library/StdDriver/src/usci_uart.c:397:57
	ldr	r1, [sp, #4]
	.loc	3 397 69                        @ ../../../../Library/StdDriver/src/usci_uart.c:397:69
	ldr	r2, [sp, #36]
	.loc	3 397 67                        @ ../../../../Library/StdDriver/src/usci_uart.c:397:67
	muls	r2, r1, r2
	.loc	3 397 80                        @ ../../../../Library/StdDriver/src/usci_uart.c:397:80
	ldr	r1, [sp, #40]
	.loc	3 397 78                        @ ../../../../Library/StdDriver/src/usci_uart.c:397:78
	muls	r1, r2, r1
	.loc	3 397 54                        @ ../../../../Library/StdDriver/src/usci_uart.c:397:54
	udiv	r0, r0, r1
	.loc	3 397 99                        @ ../../../../Library/StdDriver/src/usci_uart.c:397:99
	ldr	r1, [sp, #48]
	.loc	3 397 92                        @ ../../../../Library/StdDriver/src/usci_uart.c:397:92
	subs	r0, r0, r1
	.loc	3 397 32                        @ ../../../../Library/StdDriver/src/usci_uart.c:397:32
	bl	abs
	.loc	3 397 30                        @ ../../../../Library/StdDriver/src/usci_uart.c:397:30
	str	r0, [sp, #28]
	.loc	3 397 20                        @ ../../../../Library/StdDriver/src/usci_uart.c:397:20
	str	r0, [sp, #32]
	.loc	3 398 9 is_stmt 1               @ ../../../../Library/StdDriver/src/usci_uart.c:398:9
	b	.LBB5_22
.Ltmp113:
.LBB5_21:                               @   in Loop: Header=BB5_18 Depth=1
	.loc	3 401 32                        @ ../../../../Library/StdDriver/src/usci_uart.c:401:32
	ldr	r0, [sp, #44]
	.loc	3 401 47 is_stmt 0              @ ../../../../Library/StdDriver/src/usci_uart.c:401:47
	ldr	r1, [sp, #4]
	.loc	3 401 59                        @ ../../../../Library/StdDriver/src/usci_uart.c:401:59
	ldr	r2, [sp, #36]
	.loc	3 401 57                        @ ../../../../Library/StdDriver/src/usci_uart.c:401:57
	muls	r2, r1, r2
	.loc	3 401 70                        @ ../../../../Library/StdDriver/src/usci_uart.c:401:70
	ldr	r1, [sp, #40]
	.loc	3 401 68                        @ ../../../../Library/StdDriver/src/usci_uart.c:401:68
	muls	r1, r2, r1
	.loc	3 401 44                        @ ../../../../Library/StdDriver/src/usci_uart.c:401:44
	udiv	r0, r0, r1
	.loc	3 401 89                        @ ../../../../Library/StdDriver/src/usci_uart.c:401:89
	ldr	r1, [sp, #48]
	.loc	3 401 82                        @ ../../../../Library/StdDriver/src/usci_uart.c:401:82
	subs	r0, r0, r1
	.loc	3 401 22                        @ ../../../../Library/StdDriver/src/usci_uart.c:401:22
	bl	abs
	.loc	3 401 20                        @ ../../../../Library/StdDriver/src/usci_uart.c:401:20
	str	r0, [sp, #32]
	.loc	3 402 33 is_stmt 1              @ ../../../../Library/StdDriver/src/usci_uart.c:402:33
	ldr	r0, [sp, #44]
	.loc	3 402 49 is_stmt 0              @ ../../../../Library/StdDriver/src/usci_uart.c:402:49
	ldr	r1, [sp, #4]
	.loc	3 402 59                        @ ../../../../Library/StdDriver/src/usci_uart.c:402:59
	adds	r1, r1, #1
	.loc	3 402 66                        @ ../../../../Library/StdDriver/src/usci_uart.c:402:66
	ldr	r2, [sp, #36]
	.loc	3 402 64                        @ ../../../../Library/StdDriver/src/usci_uart.c:402:64
	muls	r2, r1, r2
	.loc	3 402 77                        @ ../../../../Library/StdDriver/src/usci_uart.c:402:77
	ldr	r1, [sp, #40]
	.loc	3 402 75                        @ ../../../../Library/StdDriver/src/usci_uart.c:402:75
	muls	r1, r2, r1
	.loc	3 402 45                        @ ../../../../Library/StdDriver/src/usci_uart.c:402:45
	udiv	r0, r0, r1
	.loc	3 402 96                        @ ../../../../Library/StdDriver/src/usci_uart.c:402:96
	ldr	r1, [sp, #48]
	.loc	3 402 89                        @ ../../../../Library/StdDriver/src/usci_uart.c:402:89
	subs	r0, r0, r1
	.loc	3 402 23                        @ ../../../../Library/StdDriver/src/usci_uart.c:402:23
	bl	abs
	.loc	3 402 21                        @ ../../../../Library/StdDriver/src/usci_uart.c:402:21
	str	r0, [sp, #28]
	b	.LBB5_22
.Ltmp114:
.LBB5_22:                               @   in Loop: Header=BB5_18 Depth=1
	.loc	3 405 13 is_stmt 1              @ ../../../../Library/StdDriver/src/usci_uart.c:405:13
	ldr	r0, [sp, #32]
	.loc	3 405 22 is_stmt 0              @ ../../../../Library/StdDriver/src/usci_uart.c:405:22
	ldr	r1, [sp, #28]
.Ltmp115:
	.loc	3 405 13                        @ ../../../../Library/StdDriver/src/usci_uart.c:405:13
	cmp	r0, r1
	bls	.LBB5_24
	b	.LBB5_23
.LBB5_23:                               @   in Loop: Header=BB5_18 Depth=1
.Ltmp116:
	.loc	3 407 25 is_stmt 1              @ ../../../../Library/StdDriver/src/usci_uart.c:407:25
	ldr	r0, [sp, #4]
	.loc	3 407 35 is_stmt 0              @ ../../../../Library/StdDriver/src/usci_uart.c:407:35
	adds	r0, r0, #1
	.loc	3 407 23                        @ ../../../../Library/StdDriver/src/usci_uart.c:407:23
	str	r0, [sp, #4]
	.loc	3 408 9 is_stmt 1               @ ../../../../Library/StdDriver/src/usci_uart.c:408:9
	b	.LBB5_25
.Ltmp117:
.LBB5_24:                               @   in Loop: Header=BB5_18 Depth=1
	.loc	3 409 24                        @ ../../../../Library/StdDriver/src/usci_uart.c:409:24
	ldr	r0, [sp, #32]
	.loc	3 409 22 is_stmt 0              @ ../../../../Library/StdDriver/src/usci_uart.c:409:22
	str	r0, [sp, #28]
	b	.LBB5_25
.Ltmp118:
.LBB5_25:                               @   in Loop: Header=BB5_18 Depth=1
	.loc	3 412 13 is_stmt 1              @ ../../../../Library/StdDriver/src/usci_uart.c:412:13
	ldr	r0, [sp, #28]
	.loc	3 412 23 is_stmt 0              @ ../../../../Library/StdDriver/src/usci_uart.c:412:23
	ldr	r1, [sp, #20]
.Ltmp119:
	.loc	3 412 13                        @ ../../../../Library/StdDriver/src/usci_uart.c:412:13
	cmp	r0, r1
	bhs	.LBB5_29
	b	.LBB5_26
.LBB5_26:                               @   in Loop: Header=BB5_18 Depth=1
.Ltmp120:
	.loc	3 414 22 is_stmt 1              @ ../../../../Library/StdDriver/src/usci_uart.c:414:22
	ldr	r0, [sp, #28]
	.loc	3 414 20 is_stmt 0              @ ../../../../Library/StdDriver/src/usci_uart.c:414:20
	str	r0, [sp, #20]
	.loc	3 415 27 is_stmt 1              @ ../../../../Library/StdDriver/src/usci_uart.c:415:27
	ldr	r0, [sp, #36]
	.loc	3 415 25 is_stmt 0              @ ../../../../Library/StdDriver/src/usci_uart.c:415:25
	str	r0, [sp, #12]
	.loc	3 416 28 is_stmt 1              @ ../../../../Library/StdDriver/src/usci_uart.c:416:28
	ldr	r0, [sp, #4]
	.loc	3 416 26 is_stmt 0              @ ../../../../Library/StdDriver/src/usci_uart.c:416:26
	str	r0, [sp, #16]
.Ltmp121:
	.loc	3 419 17 is_stmt 1              @ ../../../../Library/StdDriver/src/usci_uart.c:419:17
	ldr	r0, [sp, #20]
.Ltmp122:
	.loc	3 419 17 is_stmt 0              @ ../../../../Library/StdDriver/src/usci_uart.c:419:17
	cbnz	r0, .LBB5_28
	b	.LBB5_27
.LBB5_27:
.Ltmp123:
	.loc	3 421 17 is_stmt 1              @ ../../../../Library/StdDriver/src/usci_uart.c:421:17
	b	.LBB5_31
.Ltmp124:
.LBB5_28:                               @   in Loop: Header=BB5_18 Depth=1
	.loc	3 423 9                         @ ../../../../Library/StdDriver/src/usci_uart.c:423:9
	b	.LBB5_29
.Ltmp125:
.LBB5_29:                               @   in Loop: Header=BB5_18 Depth=1
	.loc	3 424 5                         @ ../../../../Library/StdDriver/src/usci_uart.c:424:5
	b	.LBB5_30
.Ltmp126:
.LBB5_30:                               @   in Loop: Header=BB5_18 Depth=1
	.loc	3 387 50                        @ ../../../../Library/StdDriver/src/usci_uart.c:387:50
	ldr	r0, [sp, #36]
	adds	r0, r0, #1
	str	r0, [sp, #36]
	.loc	3 387 5 is_stmt 0               @ ../../../../Library/StdDriver/src/usci_uart.c:387:5
	b	.LBB5_18
.Ltmp127:
.LBB5_31:
	.loc	3 427 5 is_stmt 1               @ ../../../../Library/StdDriver/src/usci_uart.c:427:5
	ldr	r1, [sp, #52]
	movs	r0, #0
	.loc	3 427 18 is_stmt 0              @ ../../../../Library/StdDriver/src/usci_uart.c:427:18
	str	r0, [r1]
	.loc	3 429 5 is_stmt 1               @ ../../../../Library/StdDriver/src/usci_uart.c:429:5
	ldr	r1, [sp, #52]
	movs	r0, #2
	.loc	3 429 18 is_stmt 0              @ ../../../../Library/StdDriver/src/usci_uart.c:429:18
	str	r0, [r1]
	.loc	3 432 5 is_stmt 1               @ ../../../../Library/StdDriver/src/usci_uart.c:432:5
	ldr	r1, [sp, #52]
	ldr	r0, __arm_cp.5_2
	.loc	3 432 22 is_stmt 0              @ ../../../../Library/StdDriver/src/usci_uart.c:432:22
	str	r0, [r1, #44]
	.loc	3 433 5 is_stmt 1               @ ../../../../Library/StdDriver/src/usci_uart.c:433:5
	ldr	r1, [sp, #52]
	movs	r0, #16
	.loc	3 433 21 is_stmt 0              @ ../../../../Library/StdDriver/src/usci_uart.c:433:21
	str	r0, [r1, #16]
	.loc	3 436 24 is_stmt 1              @ ../../../../Library/StdDriver/src/usci_uart.c:436:24
	ldr	r0, [sp, #16]
	.loc	3 436 37 is_stmt 0              @ ../../../../Library/StdDriver/src/usci_uart.c:436:37
	lsls	r0, r0, #16
	ldr	r1, __arm_cp.5_3
	.loc	3 436 42                        @ ../../../../Library/StdDriver/src/usci_uart.c:436:42
	adds	r0, r0, r1
	.loc	3 437 24 is_stmt 1              @ ../../../../Library/StdDriver/src/usci_uart.c:437:24
	ldr	r1, [sp, #12]
	.loc	3 437 36 is_stmt 0              @ ../../../../Library/StdDriver/src/usci_uart.c:437:36
	lsls	r1, r1, #10
	.loc	3 437 41                        @ ../../../../Library/StdDriver/src/usci_uart.c:437:41
	movw	r2, #1024
	subs	r1, r1, r2
	.loc	3 436 69 is_stmt 1              @ ../../../../Library/StdDriver/src/usci_uart.c:436:69
	orrs	r0, r1
	.loc	3 438 24                        @ ../../../../Library/StdDriver/src/usci_uart.c:438:24
	ldr	r1, [sp, #40]
	.loc	3 438 34 is_stmt 0              @ ../../../../Library/StdDriver/src/usci_uart.c:438:34
	lsls	r1, r1, #8
	.loc	3 438 39                        @ ../../../../Library/StdDriver/src/usci_uart.c:438:39
	movw	r2, #256
	subs	r1, r1, r2
	.loc	3 437 67 is_stmt 1              @ ../../../../Library/StdDriver/src/usci_uart.c:437:67
	orrs	r0, r1
	.loc	3 436 5                         @ ../../../../Library/StdDriver/src/usci_uart.c:436:5
	ldr	r1, [sp, #52]
	.loc	3 436 20 is_stmt 0              @ ../../../../Library/StdDriver/src/usci_uart.c:436:20
	str	r0, [r1, #8]
	.loc	3 440 5 is_stmt 1               @ ../../../../Library/StdDriver/src/usci_uart.c:440:5
	ldr	r1, [sp, #52]
	.loc	3 440 22 is_stmt 0              @ ../../../../Library/StdDriver/src/usci_uart.c:440:22
	ldr	r0, [r1, #92]
	movs	r2, #1
	lsls	r2, r2, #31
	orrs	r0, r2
	str	r0, [r1, #92]
	.loc	3 442 13 is_stmt 1              @ ../../../../Library/StdDriver/src/usci_uart.c:442:13
	ldr	r0, [sp, #44]
	.loc	3 442 27 is_stmt 0              @ ../../../../Library/StdDriver/src/usci_uart.c:442:27
	ldr	r1, [sp, #40]
	.loc	3 442 25                        @ ../../../../Library/StdDriver/src/usci_uart.c:442:25
	udiv	r0, r0, r1
	.loc	3 442 39                        @ ../../../../Library/StdDriver/src/usci_uart.c:442:39
	ldr	r1, [sp, #12]
	.loc	3 442 37                        @ ../../../../Library/StdDriver/src/usci_uart.c:442:37
	udiv	r0, r0, r1
	.loc	3 442 53                        @ ../../../../Library/StdDriver/src/usci_uart.c:442:53
	ldr	r1, [sp, #16]
	.loc	3 442 51                        @ ../../../../Library/StdDriver/src/usci_uart.c:442:51
	udiv	r0, r0, r1
	.loc	3 442 5                         @ ../../../../Library/StdDriver/src/usci_uart.c:442:5
	add	sp, #56
	pop	{r7, pc}
.Ltmp128:
	.p2align	2
@ %bb.32:
	.loc	3 0 5                           @ ../../../../Library/StdDriver/src/usci_uart.c:0:5
__arm_cp.5_0:
	.long	1074593792                      @ 0x400d0000
.Lcpi_end0:
	.size	__arm_cp.5_0, .Lcpi_end0-__arm_cp.5_0
__arm_cp.5_1:
	.long	1074601984                      @ 0x400d2000
.Lcpi_end1:
	.size	__arm_cp.5_1, .Lcpi_end1-__arm_cp.5_1
__arm_cp.5_2:
	.long	2049                            @ 0x801
.Lcpi_end2:
	.size	__arm_cp.5_2, .Lcpi_end2-__arm_cp.5_2
__arm_cp.5_3:
	.long	4294901760                      @ 0xffff0000
.Lcpi_end3:
	.size	__arm_cp.5_3, .Lcpi_end3-__arm_cp.5_3
.Lfunc_end5:
	.size	UUART_Open, .Lfunc_end5-UUART_Open
	.cfi_endproc
	.cantunwind
	.fnend
                                        @ -- End function
	.section	.text.UUART_Read,"ax",%progbits
	.hidden	UUART_Read                      @ -- Begin function UUART_Read
	.globl	UUART_Read
	.p2align	1
	.type	UUART_Read,%function
	.code	16                              @ @UUART_Read
	.thumb_func
UUART_Read:
.Lfunc_begin6:
	.loc	3 458 0 is_stmt 1               @ ../../../../Library/StdDriver/src/usci_uart.c:458:0
	.fnstart
	.cfi_startproc
@ %bb.0:
	.pad	#20
	sub	sp, #20
	.cfi_def_cfa_offset 20
	str	r0, [sp, #16]
	str	r1, [sp, #12]
	str	r2, [sp, #8]
	movs	r0, #0
.Ltmp129:
	.loc	3 461 19 prologue_end           @ ../../../../Library/StdDriver/src/usci_uart.c:461:19
	str	r0, [sp, #4]
	.loc	3 461 10 is_stmt 0              @ ../../../../Library/StdDriver/src/usci_uart.c:461:10
	b	.LBB6_1
.LBB6_1:                                @ =>This Loop Header: Depth=1
                                        @     Child Loop BB6_3 Depth 2
.Ltmp130:
	.loc	3 461 26                        @ ../../../../Library/StdDriver/src/usci_uart.c:461:26
	ldr	r0, [sp, #4]
	.loc	3 461 37                        @ ../../../../Library/StdDriver/src/usci_uart.c:461:37
	ldr	r1, [sp, #8]
.Ltmp131:
	.loc	3 461 5                         @ ../../../../Library/StdDriver/src/usci_uart.c:461:5
	cmp	r0, r1
	bhs	.LBB6_11
	b	.LBB6_2
.LBB6_2:                                @   in Loop: Header=BB6_1 Depth=1
	.loc	3 0 5                           @ ../../../../Library/StdDriver/src/usci_uart.c:0:5
	movs	r0, #0
.Ltmp132:
	.loc	3 463 18 is_stmt 1              @ ../../../../Library/StdDriver/src/usci_uart.c:463:18
	str	r0, [sp]
	.loc	3 465 9                         @ ../../../../Library/StdDriver/src/usci_uart.c:465:9
	b	.LBB6_3
.LBB6_3:                                @   Parent Loop BB6_1 Depth=1
                                        @ =>  This Inner Loop Header: Depth=2
	.loc	3 465 16 is_stmt 0              @ ../../../../Library/StdDriver/src/usci_uart.c:465:16
	ldr	r0, [sp, #16]
	.loc	3 465 25                        @ ../../../../Library/StdDriver/src/usci_uart.c:465:25
	ldr	r0, [r0, #60]
	.loc	3 465 9                         @ ../../../../Library/StdDriver/src/usci_uart.c:465:9
	lsls	r0, r0, #31
	cbz	r0, .LBB6_7
	b	.LBB6_4
.LBB6_4:                                @   in Loop: Header=BB6_3 Depth=2
.Ltmp133:
	.loc	3 467 23 is_stmt 1              @ ../../../../Library/StdDriver/src/usci_uart.c:467:23
	ldr	r0, [sp]
	adds	r0, r0, #1
	str	r0, [sp]
.Ltmp134:
	.loc	3 469 17                        @ ../../../../Library/StdDriver/src/usci_uart.c:469:17
	ldr	r0, [sp]
.Ltmp135:
	.loc	3 469 17 is_stmt 0              @ ../../../../Library/StdDriver/src/usci_uart.c:469:17
	lsrs	r0, r0, #30
	cbz	r0, .LBB6_6
	b	.LBB6_5
.LBB6_5:                                @   in Loop: Header=BB6_1 Depth=1
.Ltmp136:
	.loc	3 471 17 is_stmt 1              @ ../../../../Library/StdDriver/src/usci_uart.c:471:17
	b	.LBB6_7
.Ltmp137:
.LBB6_6:                                @   in Loop: Header=BB6_3 Depth=2
	.loc	3 465 9                         @ ../../../../Library/StdDriver/src/usci_uart.c:465:9
	b	.LBB6_3
.LBB6_7:                                @   in Loop: Header=BB6_1 Depth=1
.Ltmp138:
	.loc	3 475 13                        @ ../../../../Library/StdDriver/src/usci_uart.c:475:13
	ldr	r0, [sp]
.Ltmp139:
	.loc	3 475 13 is_stmt 0              @ ../../../../Library/StdDriver/src/usci_uart.c:475:13
	lsrs	r0, r0, #30
	cbz	r0, .LBB6_9
	b	.LBB6_8
.LBB6_8:
.Ltmp140:
	.loc	3 477 13 is_stmt 1              @ ../../../../Library/StdDriver/src/usci_uart.c:477:13
	b	.LBB6_11
.Ltmp141:
.LBB6_9:                                @   in Loop: Header=BB6_1 Depth=1
	.loc	3 480 39                        @ ../../../../Library/StdDriver/src/usci_uart.c:480:39
	ldr	r0, [sp, #16]
	.loc	3 480 48 is_stmt 0              @ ../../../../Library/StdDriver/src/usci_uart.c:480:48
	ldr	r0, [r0, #52]
	.loc	3 480 9                         @ ../../../../Library/StdDriver/src/usci_uart.c:480:9
	ldr	r1, [sp, #12]
	.loc	3 480 18                        @ ../../../../Library/StdDriver/src/usci_uart.c:480:18
	ldr	r2, [sp, #4]
	.loc	3 480 28                        @ ../../../../Library/StdDriver/src/usci_uart.c:480:28
	strb	r0, [r1, r2]
	.loc	3 481 5 is_stmt 1               @ ../../../../Library/StdDriver/src/usci_uart.c:481:5
	b	.LBB6_10
.Ltmp142:
.LBB6_10:                               @   in Loop: Header=BB6_1 Depth=1
	.loc	3 461 59                        @ ../../../../Library/StdDriver/src/usci_uart.c:461:59
	ldr	r0, [sp, #4]
	adds	r0, r0, #1
	str	r0, [sp, #4]
	.loc	3 461 5 is_stmt 0               @ ../../../../Library/StdDriver/src/usci_uart.c:461:5
	b	.LBB6_1
.Ltmp143:
.LBB6_11:
	.loc	3 483 12 is_stmt 1              @ ../../../../Library/StdDriver/src/usci_uart.c:483:12
	ldr	r0, [sp, #4]
	.loc	3 483 5 is_stmt 0               @ ../../../../Library/StdDriver/src/usci_uart.c:483:5
	add	sp, #20
	bx	lr
.Ltmp144:
.Lfunc_end6:
	.size	UUART_Read, .Lfunc_end6-UUART_Read
	.cfi_endproc
	.cantunwind
	.fnend
                                        @ -- End function
	.section	.text.UUART_SetLine_Config,"ax",%progbits
	.hidden	UUART_SetLine_Config            @ -- Begin function UUART_SetLine_Config
	.globl	UUART_SetLine_Config
	.p2align	2
	.type	UUART_SetLine_Config,%function
	.code	16                              @ @UUART_SetLine_Config
	.thumb_func
UUART_SetLine_Config:
.Lfunc_begin7:
	.loc	3 512 0 is_stmt 1               @ ../../../../Library/StdDriver/src/usci_uart.c:512:0
	.fnstart
	.cfi_startproc
@ %bb.0:
	.save	{r4, lr}
	push	{r4, lr}
	.cfi_def_cfa_offset 8
	.cfi_offset lr, -4
	.cfi_offset r4, -8
	.pad	#64
	sub	sp, #64
	.cfi_def_cfa_offset 72
	ldr	r4, [sp, #72]
	str	r0, [sp, #60]
	str	r1, [sp, #56]
	str	r2, [sp, #52]
	str	r3, [sp, #48]
.Ltmp145:
	.loc	3 517 10 prologue_end           @ ../../../../Library/StdDriver/src/usci_uart.c:517:10
	ldr	r0, [sp, #60]
	ldr	r1, __arm_cp.7_0
	.loc	3 517 29 is_stmt 0              @ ../../../../Library/StdDriver/src/usci_uart.c:517:29
	cmp	r0, r1
	beq	.LBB7_2
	b	.LBB7_1
.LBB7_1:
	.loc	3 517 33                        @ ../../../../Library/StdDriver/src/usci_uart.c:517:33
	ldr	r0, [sp, #60]
	ldr	r1, __arm_cp.7_1
.Ltmp146:
	.loc	3 517 9                         @ ../../../../Library/StdDriver/src/usci_uart.c:517:9
	cmp	r0, r1
	bne	.LBB7_3
	b	.LBB7_2
.LBB7_2:
.Ltmp147:
	.loc	3 519 23 is_stmt 1              @ ../../../../Library/StdDriver/src/usci_uart.c:519:23
	bl	CLK_GetPCLK0Freq
	.loc	3 519 21 is_stmt 0              @ ../../../../Library/StdDriver/src/usci_uart.c:519:21
	str	r0, [sp, #44]
	.loc	3 520 5 is_stmt 1               @ ../../../../Library/StdDriver/src/usci_uart.c:520:5
	b	.LBB7_4
.Ltmp148:
.LBB7_3:
	.loc	3 523 23                        @ ../../../../Library/StdDriver/src/usci_uart.c:523:23
	bl	CLK_GetPCLK1Freq
	.loc	3 523 21 is_stmt 0              @ ../../../../Library/StdDriver/src/usci_uart.c:523:21
	str	r0, [sp, #44]
	b	.LBB7_4
.Ltmp149:
.LBB7_4:
	.loc	3 526 9 is_stmt 1               @ ../../../../Library/StdDriver/src/usci_uart.c:526:9
	ldr	r0, [sp, #56]
.Ltmp150:
	.loc	3 526 9 is_stmt 0               @ ../../../../Library/StdDriver/src/usci_uart.c:526:9
	cbnz	r0, .LBB7_5
	b	.LBB7_33
.LBB7_5:
.Ltmp151:
	.loc	3 532 18 is_stmt 1              @ ../../../../Library/StdDriver/src/usci_uart.c:532:18
	ldr	r0, [sp, #44]
	.loc	3 532 32 is_stmt 0              @ ../../../../Library/StdDriver/src/usci_uart.c:532:32
	ldr	r1, [sp, #56]
	.loc	3 532 30                        @ ../../../../Library/StdDriver/src/usci_uart.c:532:30
	udiv	r0, r0, r1
	.loc	3 532 16                        @ ../../../../Library/StdDriver/src/usci_uart.c:532:16
	str	r0, [sp, #8]
	.loc	3 533 19 is_stmt 1              @ ../../../../Library/StdDriver/src/usci_uart.c:533:19
	ldr	r0, [sp, #44]
	.loc	3 533 33 is_stmt 0              @ ../../../../Library/StdDriver/src/usci_uart.c:533:33
	ldr	r1, [sp, #8]
	.loc	3 533 31                        @ ../../../../Library/StdDriver/src/usci_uart.c:533:31
	udiv	r0, r0, r1
	.loc	3 533 43                        @ ../../../../Library/StdDriver/src/usci_uart.c:533:43
	ldr	r1, [sp, #56]
	.loc	3 533 41                        @ ../../../../Library/StdDriver/src/usci_uart.c:533:41
	subs	r0, r0, r1
	.loc	3 533 16                        @ ../../../../Library/StdDriver/src/usci_uart.c:533:16
	str	r0, [sp, #24]
	.loc	3 534 19 is_stmt 1              @ ../../../../Library/StdDriver/src/usci_uart.c:534:19
	ldr	r0, [sp, #56]
	.loc	3 534 34 is_stmt 0              @ ../../../../Library/StdDriver/src/usci_uart.c:534:34
	ldr	r1, [sp, #44]
	.loc	3 534 49                        @ ../../../../Library/StdDriver/src/usci_uart.c:534:49
	ldr	r2, [sp, #8]
	.loc	3 534 56                        @ ../../../../Library/StdDriver/src/usci_uart.c:534:56
	adds	r2, r2, #1
	.loc	3 534 46                        @ ../../../../Library/StdDriver/src/usci_uart.c:534:46
	udiv	r1, r1, r2
	.loc	3 534 31                        @ ../../../../Library/StdDriver/src/usci_uart.c:534:31
	subs	r0, r0, r1
	.loc	3 534 17                        @ ../../../../Library/StdDriver/src/usci_uart.c:534:17
	str	r0, [sp, #20]
.Ltmp152:
	.loc	3 536 13 is_stmt 1              @ ../../../../Library/StdDriver/src/usci_uart.c:536:13
	ldr	r0, [sp, #24]
	.loc	3 536 23 is_stmt 0              @ ../../../../Library/StdDriver/src/usci_uart.c:536:23
	ldr	r1, [sp, #20]
.Ltmp153:
	.loc	3 536 13                        @ ../../../../Library/StdDriver/src/usci_uart.c:536:13
	cmp	r0, r1
	blo	.LBB7_7
	b	.LBB7_6
.LBB7_6:
.Ltmp154:
	.loc	3 538 22 is_stmt 1              @ ../../../../Library/StdDriver/src/usci_uart.c:538:22
	ldr	r0, [sp, #8]
	.loc	3 538 29 is_stmt 0              @ ../../../../Library/StdDriver/src/usci_uart.c:538:29
	adds	r0, r0, #1
	.loc	3 538 20                        @ ../../../../Library/StdDriver/src/usci_uart.c:538:20
	str	r0, [sp, #8]
	.loc	3 539 9 is_stmt 1               @ ../../../../Library/StdDriver/src/usci_uart.c:539:9
	b	.LBB7_7
.Ltmp155:
.LBB7_7:
	.loc	3 0 9 is_stmt 0                 @ ../../../../Library/StdDriver/src/usci_uart.c:0:9
	movw	r0, #16384
	.loc	3 541 16 is_stmt 1              @ ../../../../Library/StdDriver/src/usci_uart.c:541:16
	str	r0, [sp, #24]
	movs	r0, #1
.Ltmp156:
	.loc	3 543 24                        @ ../../../../Library/StdDriver/src/usci_uart.c:543:24
	str	r0, [sp, #40]
	.loc	3 543 14 is_stmt 0              @ ../../../../Library/StdDriver/src/usci_uart.c:543:14
	b	.LBB7_8
.LBB7_8:                                @ =>This Inner Loop Header: Depth=1
.Ltmp157:
	.loc	3 543 29                        @ ../../../../Library/StdDriver/src/usci_uart.c:543:29
	ldr	r0, [sp, #40]
.Ltmp158:
	.loc	3 543 9                         @ ../../../../Library/StdDriver/src/usci_uart.c:543:9
	cmp	r0, #4
	bhi	.LBB7_13
	b	.LBB7_9
.LBB7_9:                                @   in Loop: Header=BB7_8 Depth=1
.Ltmp159:
	.loc	3 545 17 is_stmt 1              @ ../../../../Library/StdDriver/src/usci_uart.c:545:17
	ldr	r0, [sp, #8]
	.loc	3 545 28 is_stmt 0              @ ../../../../Library/StdDriver/src/usci_uart.c:545:28
	ldr	r2, [sp, #24]
	.loc	3 545 37                        @ ../../../../Library/StdDriver/src/usci_uart.c:545:37
	ldr	r1, [sp, #40]
	.loc	3 545 35                        @ ../../../../Library/StdDriver/src/usci_uart.c:545:35
	muls	r1, r2, r1
.Ltmp160:
	.loc	3 545 17                        @ ../../../../Library/StdDriver/src/usci_uart.c:545:17
	cmp	r0, r1
	bhi	.LBB7_11
	b	.LBB7_10
.LBB7_10:
.Ltmp161:
	.loc	3 545 49                        @ ../../../../Library/StdDriver/src/usci_uart.c:545:49
	b	.LBB7_13
.Ltmp162:
.LBB7_11:                               @   in Loop: Header=BB7_8 Depth=1
	.loc	3 546 9 is_stmt 1               @ ../../../../Library/StdDriver/src/usci_uart.c:546:9
	b	.LBB7_12
.Ltmp163:
.LBB7_12:                               @   in Loop: Header=BB7_8 Depth=1
	.loc	3 543 57                        @ ../../../../Library/StdDriver/src/usci_uart.c:543:57
	ldr	r0, [sp, #40]
	adds	r0, r0, #1
	str	r0, [sp, #40]
	.loc	3 543 9 is_stmt 0               @ ../../../../Library/StdDriver/src/usci_uart.c:543:9
	b	.LBB7_8
.Ltmp164:
.LBB7_13:
	.loc	3 548 13 is_stmt 1              @ ../../../../Library/StdDriver/src/usci_uart.c:548:13
	ldr	r0, [sp, #40]
.Ltmp165:
	.loc	3 548 13 is_stmt 0              @ ../../../../Library/StdDriver/src/usci_uart.c:548:13
	cmp	r0, #5
	blo	.LBB7_15
	b	.LBB7_14
.LBB7_14:
	.loc	3 0 13                          @ ../../../../Library/StdDriver/src/usci_uart.c:0:13
	movs	r0, #4
.Ltmp166:
	.loc	3 548 40                        @ ../../../../Library/StdDriver/src/usci_uart.c:548:40
	str	r0, [sp, #40]
	.loc	3 548 30                        @ ../../../../Library/StdDriver/src/usci_uart.c:548:30
	b	.LBB7_15
.Ltmp167:
.LBB7_15:
	.loc	3 550 18 is_stmt 1              @ ../../../../Library/StdDriver/src/usci_uart.c:550:18
	ldr	r0, [sp, #8]
	.loc	3 550 27 is_stmt 0              @ ../../../../Library/StdDriver/src/usci_uart.c:550:27
	ldr	r1, [sp, #40]
	.loc	3 550 25                        @ ../../../../Library/StdDriver/src/usci_uart.c:550:25
	udiv	r0, r0, r1
	.loc	3 550 16                        @ ../../../../Library/StdDriver/src/usci_uart.c:550:16
	str	r0, [sp, #24]
	.loc	3 551 20 is_stmt 1              @ ../../../../Library/StdDriver/src/usci_uart.c:551:20
	ldr	r0, [sp, #8]
	.loc	3 551 29 is_stmt 0              @ ../../../../Library/StdDriver/src/usci_uart.c:551:29
	ldr	r1, [sp, #24]
	.loc	3 551 27                        @ ../../../../Library/StdDriver/src/usci_uart.c:551:27
	udiv	r0, r0, r1
	.loc	3 551 39                        @ ../../../../Library/StdDriver/src/usci_uart.c:551:39
	ldr	r1, [sp, #40]
	.loc	3 551 37                        @ ../../../../Library/StdDriver/src/usci_uart.c:551:37
	subs	r0, r0, r1
	.loc	3 551 17                        @ ../../../../Library/StdDriver/src/usci_uart.c:551:17
	str	r0, [sp, #20]
	.loc	3 552 19 is_stmt 1              @ ../../../../Library/StdDriver/src/usci_uart.c:552:19
	ldr	r0, [sp, #40]
	.loc	3 552 32 is_stmt 0              @ ../../../../Library/StdDriver/src/usci_uart.c:552:32
	ldr	r1, [sp, #8]
	.loc	3 552 42                        @ ../../../../Library/StdDriver/src/usci_uart.c:552:42
	ldr	r2, [sp, #24]
	.loc	3 552 49                        @ ../../../../Library/StdDriver/src/usci_uart.c:552:49
	adds	r2, r2, #1
	.loc	3 552 39                        @ ../../../../Library/StdDriver/src/usci_uart.c:552:39
	udiv	r1, r1, r2
	.loc	3 552 29                        @ ../../../../Library/StdDriver/src/usci_uart.c:552:29
	subs	r0, r0, r1
	.loc	3 552 17                        @ ../../../../Library/StdDriver/src/usci_uart.c:552:17
	str	r0, [sp, #16]
.Ltmp168:
	.loc	3 554 13 is_stmt 1              @ ../../../../Library/StdDriver/src/usci_uart.c:554:13
	ldr	r0, [sp, #20]
	.loc	3 554 24 is_stmt 0              @ ../../../../Library/StdDriver/src/usci_uart.c:554:24
	ldr	r1, [sp, #16]
.Ltmp169:
	.loc	3 554 13                        @ ../../../../Library/StdDriver/src/usci_uart.c:554:13
	cmp	r0, r1
	blo	.LBB7_17
	b	.LBB7_16
.LBB7_16:
.Ltmp170:
	.loc	3 556 22 is_stmt 1              @ ../../../../Library/StdDriver/src/usci_uart.c:556:22
	ldr	r0, [sp, #24]
	.loc	3 556 29 is_stmt 0              @ ../../../../Library/StdDriver/src/usci_uart.c:556:29
	adds	r0, r0, #1
	.loc	3 556 20                        @ ../../../../Library/StdDriver/src/usci_uart.c:556:20
	str	r0, [sp, #8]
	.loc	3 557 9 is_stmt 1               @ ../../../../Library/StdDriver/src/usci_uart.c:557:9
	b	.LBB7_18
.Ltmp171:
.LBB7_17:
	.loc	3 558 23                        @ ../../../../Library/StdDriver/src/usci_uart.c:558:23
	ldr	r0, [sp, #24]
	.loc	3 558 21 is_stmt 0              @ ../../../../Library/StdDriver/src/usci_uart.c:558:21
	str	r0, [sp, #8]
	b	.LBB7_18
.Ltmp172:
.LBB7_18:
	.loc	3 0 21                          @ ../../../../Library/StdDriver/src/usci_uart.c:0:21
	movs	r0, #0
	mvns	r1, r0
	.loc	3 561 16 is_stmt 1              @ ../../../../Library/StdDriver/src/usci_uart.c:561:16
	str	r1, [sp, #12]
	.loc	3 562 21                        @ ../../../../Library/StdDriver/src/usci_uart.c:562:21
	str	r0, [sp, #32]
	.loc	3 563 22                        @ ../../../../Library/StdDriver/src/usci_uart.c:563:22
	str	r0, [sp, #36]
	movs	r0, #6
.Ltmp173:
	.loc	3 565 23                        @ ../../../../Library/StdDriver/src/usci_uart.c:565:23
	str	r0, [sp, #28]
	.loc	3 565 14 is_stmt 0              @ ../../../../Library/StdDriver/src/usci_uart.c:565:14
	b	.LBB7_19
.LBB7_19:                               @ =>This Inner Loop Header: Depth=1
.Ltmp174:
	.loc	3 565 28                        @ ../../../../Library/StdDriver/src/usci_uart.c:565:28
	ldr	r0, [sp, #28]
.Ltmp175:
	.loc	3 565 9                         @ ../../../../Library/StdDriver/src/usci_uart.c:565:9
	cmp	r0, #16
	bhi	.LBB7_32
	b	.LBB7_20
.LBB7_20:                               @   in Loop: Header=BB7_19 Depth=1
.Ltmp176:
	.loc	3 570 25 is_stmt 1              @ ../../../../Library/StdDriver/src/usci_uart.c:570:25
	ldr	r0, [sp, #8]
	.loc	3 570 34 is_stmt 0              @ ../../../../Library/StdDriver/src/usci_uart.c:570:34
	ldr	r1, [sp, #28]
	.loc	3 570 32                        @ ../../../../Library/StdDriver/src/usci_uart.c:570:32
	udiv	r0, r0, r1
	.loc	3 570 23                        @ ../../../../Library/StdDriver/src/usci_uart.c:570:23
	str	r0, [sp, #4]
.Ltmp177:
	.loc	3 572 17 is_stmt 1              @ ../../../../Library/StdDriver/src/usci_uart.c:572:17
	ldr	r0, [sp, #4]
.Ltmp178:
	.loc	3 572 17 is_stmt 0              @ ../../../../Library/StdDriver/src/usci_uart.c:572:17
	lsrs	r0, r0, #10
	cbz	r0, .LBB7_22
	b	.LBB7_21
.LBB7_21:                               @   in Loop: Header=BB7_19 Depth=1
	.loc	3 0 17                          @ ../../../../Library/StdDriver/src/usci_uart.c:0:17
	movw	r0, #1024
.Ltmp179:
	.loc	3 574 27 is_stmt 1              @ ../../../../Library/StdDriver/src/usci_uart.c:574:27
	str	r0, [sp, #4]
	.loc	3 575 46                        @ ../../../../Library/StdDriver/src/usci_uart.c:575:46
	ldr	r0, [sp, #44]
	.loc	3 575 61 is_stmt 0              @ ../../../../Library/StdDriver/src/usci_uart.c:575:61
	ldr	r1, [sp, #4]
	.loc	3 575 73                        @ ../../../../Library/StdDriver/src/usci_uart.c:575:73
	ldr	r2, [sp, #28]
	.loc	3 575 71                        @ ../../../../Library/StdDriver/src/usci_uart.c:575:71
	muls	r2, r1, r2
	.loc	3 575 84                        @ ../../../../Library/StdDriver/src/usci_uart.c:575:84
	ldr	r1, [sp, #40]
	.loc	3 575 82                        @ ../../../../Library/StdDriver/src/usci_uart.c:575:82
	muls	r1, r2, r1
	.loc	3 575 58                        @ ../../../../Library/StdDriver/src/usci_uart.c:575:58
	udiv	r0, r0, r1
	.loc	3 575 103                       @ ../../../../Library/StdDriver/src/usci_uart.c:575:103
	ldr	r1, [sp, #56]
	.loc	3 575 96                        @ ../../../../Library/StdDriver/src/usci_uart.c:575:96
	subs	r0, r0, r1
	.loc	3 575 36                        @ ../../../../Library/StdDriver/src/usci_uart.c:575:36
	bl	abs
	.loc	3 575 34                        @ ../../../../Library/StdDriver/src/usci_uart.c:575:34
	str	r0, [sp, #20]
	.loc	3 575 24                        @ ../../../../Library/StdDriver/src/usci_uart.c:575:24
	str	r0, [sp, #24]
	.loc	3 576 13 is_stmt 1              @ ../../../../Library/StdDriver/src/usci_uart.c:576:13
	b	.LBB7_23
.Ltmp180:
.LBB7_22:                               @   in Loop: Header=BB7_19 Depth=1
	.loc	3 579 36                        @ ../../../../Library/StdDriver/src/usci_uart.c:579:36
	ldr	r0, [sp, #44]
	.loc	3 579 51 is_stmt 0              @ ../../../../Library/StdDriver/src/usci_uart.c:579:51
	ldr	r1, [sp, #4]
	.loc	3 579 63                        @ ../../../../Library/StdDriver/src/usci_uart.c:579:63
	ldr	r2, [sp, #28]
	.loc	3 579 61                        @ ../../../../Library/StdDriver/src/usci_uart.c:579:61
	muls	r2, r1, r2
	.loc	3 579 74                        @ ../../../../Library/StdDriver/src/usci_uart.c:579:74
	ldr	r1, [sp, #40]
	.loc	3 579 72                        @ ../../../../Library/StdDriver/src/usci_uart.c:579:72
	muls	r1, r2, r1
	.loc	3 579 48                        @ ../../../../Library/StdDriver/src/usci_uart.c:579:48
	udiv	r0, r0, r1
	.loc	3 579 93                        @ ../../../../Library/StdDriver/src/usci_uart.c:579:93
	ldr	r1, [sp, #56]
	.loc	3 579 86                        @ ../../../../Library/StdDriver/src/usci_uart.c:579:86
	subs	r0, r0, r1
	.loc	3 579 26                        @ ../../../../Library/StdDriver/src/usci_uart.c:579:26
	bl	abs
	.loc	3 579 24                        @ ../../../../Library/StdDriver/src/usci_uart.c:579:24
	str	r0, [sp, #24]
	.loc	3 580 37 is_stmt 1              @ ../../../../Library/StdDriver/src/usci_uart.c:580:37
	ldr	r0, [sp, #44]
	.loc	3 580 53 is_stmt 0              @ ../../../../Library/StdDriver/src/usci_uart.c:580:53
	ldr	r1, [sp, #4]
	.loc	3 580 63                        @ ../../../../Library/StdDriver/src/usci_uart.c:580:63
	adds	r1, r1, #1
	.loc	3 580 70                        @ ../../../../Library/StdDriver/src/usci_uart.c:580:70
	ldr	r2, [sp, #28]
	.loc	3 580 68                        @ ../../../../Library/StdDriver/src/usci_uart.c:580:68
	muls	r2, r1, r2
	.loc	3 580 81                        @ ../../../../Library/StdDriver/src/usci_uart.c:580:81
	ldr	r1, [sp, #40]
	.loc	3 580 79                        @ ../../../../Library/StdDriver/src/usci_uart.c:580:79
	muls	r1, r2, r1
	.loc	3 580 49                        @ ../../../../Library/StdDriver/src/usci_uart.c:580:49
	udiv	r0, r0, r1
	.loc	3 580 100                       @ ../../../../Library/StdDriver/src/usci_uart.c:580:100
	ldr	r1, [sp, #56]
	.loc	3 580 93                        @ ../../../../Library/StdDriver/src/usci_uart.c:580:93
	subs	r0, r0, r1
	.loc	3 580 27                        @ ../../../../Library/StdDriver/src/usci_uart.c:580:27
	bl	abs
	.loc	3 580 25                        @ ../../../../Library/StdDriver/src/usci_uart.c:580:25
	str	r0, [sp, #20]
	b	.LBB7_23
.Ltmp181:
.LBB7_23:                               @   in Loop: Header=BB7_19 Depth=1
	.loc	3 583 17 is_stmt 1              @ ../../../../Library/StdDriver/src/usci_uart.c:583:17
	ldr	r0, [sp, #24]
	.loc	3 583 26 is_stmt 0              @ ../../../../Library/StdDriver/src/usci_uart.c:583:26
	ldr	r1, [sp, #20]
.Ltmp182:
	.loc	3 583 17                        @ ../../../../Library/StdDriver/src/usci_uart.c:583:17
	cmp	r0, r1
	bls	.LBB7_25
	b	.LBB7_24
.LBB7_24:                               @   in Loop: Header=BB7_19 Depth=1
.Ltmp183:
	.loc	3 585 29 is_stmt 1              @ ../../../../Library/StdDriver/src/usci_uart.c:585:29
	ldr	r0, [sp, #4]
	.loc	3 585 39 is_stmt 0              @ ../../../../Library/StdDriver/src/usci_uart.c:585:39
	adds	r0, r0, #1
	.loc	3 585 27                        @ ../../../../Library/StdDriver/src/usci_uart.c:585:27
	str	r0, [sp, #4]
	.loc	3 586 13 is_stmt 1              @ ../../../../Library/StdDriver/src/usci_uart.c:586:13
	b	.LBB7_26
.Ltmp184:
.LBB7_25:                               @   in Loop: Header=BB7_19 Depth=1
	.loc	3 587 28                        @ ../../../../Library/StdDriver/src/usci_uart.c:587:28
	ldr	r0, [sp, #24]
	.loc	3 587 26 is_stmt 0              @ ../../../../Library/StdDriver/src/usci_uart.c:587:26
	str	r0, [sp, #20]
	b	.LBB7_26
.Ltmp185:
.LBB7_26:                               @   in Loop: Header=BB7_19 Depth=1
	.loc	3 589 17 is_stmt 1              @ ../../../../Library/StdDriver/src/usci_uart.c:589:17
	ldr	r0, [sp, #20]
	.loc	3 589 27 is_stmt 0              @ ../../../../Library/StdDriver/src/usci_uart.c:589:27
	ldr	r1, [sp, #12]
.Ltmp186:
	.loc	3 589 17                        @ ../../../../Library/StdDriver/src/usci_uart.c:589:17
	cmp	r0, r1
	bhs	.LBB7_30
	b	.LBB7_27
.LBB7_27:                               @   in Loop: Header=BB7_19 Depth=1
.Ltmp187:
	.loc	3 591 26 is_stmt 1              @ ../../../../Library/StdDriver/src/usci_uart.c:591:26
	ldr	r0, [sp, #20]
	.loc	3 591 24 is_stmt 0              @ ../../../../Library/StdDriver/src/usci_uart.c:591:24
	str	r0, [sp, #12]
	.loc	3 592 31 is_stmt 1              @ ../../../../Library/StdDriver/src/usci_uart.c:592:31
	ldr	r0, [sp, #28]
	.loc	3 592 29 is_stmt 0              @ ../../../../Library/StdDriver/src/usci_uart.c:592:29
	str	r0, [sp, #32]
	.loc	3 593 32 is_stmt 1              @ ../../../../Library/StdDriver/src/usci_uart.c:593:32
	ldr	r0, [sp, #4]
	.loc	3 593 30 is_stmt 0              @ ../../../../Library/StdDriver/src/usci_uart.c:593:30
	str	r0, [sp, #36]
.Ltmp188:
	.loc	3 596 21 is_stmt 1              @ ../../../../Library/StdDriver/src/usci_uart.c:596:21
	ldr	r0, [sp, #12]
.Ltmp189:
	.loc	3 596 21 is_stmt 0              @ ../../../../Library/StdDriver/src/usci_uart.c:596:21
	cbnz	r0, .LBB7_29
	b	.LBB7_28
.LBB7_28:
.Ltmp190:
	.loc	3 598 21 is_stmt 1              @ ../../../../Library/StdDriver/src/usci_uart.c:598:21
	b	.LBB7_32
.Ltmp191:
.LBB7_29:                               @   in Loop: Header=BB7_19 Depth=1
	.loc	3 600 13                        @ ../../../../Library/StdDriver/src/usci_uart.c:600:13
	b	.LBB7_30
.Ltmp192:
.LBB7_30:                               @   in Loop: Header=BB7_19 Depth=1
	.loc	3 601 9                         @ ../../../../Library/StdDriver/src/usci_uart.c:601:9
	b	.LBB7_31
.Ltmp193:
.LBB7_31:                               @   in Loop: Header=BB7_19 Depth=1
	.loc	3 565 54                        @ ../../../../Library/StdDriver/src/usci_uart.c:565:54
	ldr	r0, [sp, #28]
	adds	r0, r0, #1
	str	r0, [sp, #28]
	.loc	3 565 9 is_stmt 0               @ ../../../../Library/StdDriver/src/usci_uart.c:565:9
	b	.LBB7_19
.Ltmp194:
.LBB7_32:
	.loc	3 604 28 is_stmt 1              @ ../../../../Library/StdDriver/src/usci_uart.c:604:28
	ldr	r0, [sp, #36]
	.loc	3 604 41 is_stmt 0              @ ../../../../Library/StdDriver/src/usci_uart.c:604:41
	lsls	r0, r0, #16
	ldr	r1, __arm_cp.7_3
	.loc	3 604 46                        @ ../../../../Library/StdDriver/src/usci_uart.c:604:46
	adds	r0, r0, r1
	.loc	3 605 28 is_stmt 1              @ ../../../../Library/StdDriver/src/usci_uart.c:605:28
	ldr	r1, [sp, #32]
	.loc	3 605 40 is_stmt 0              @ ../../../../Library/StdDriver/src/usci_uart.c:605:40
	lsls	r1, r1, #10
	.loc	3 605 45                        @ ../../../../Library/StdDriver/src/usci_uart.c:605:45
	movw	r2, #1024
	subs	r1, r1, r2
	.loc	3 604 73 is_stmt 1              @ ../../../../Library/StdDriver/src/usci_uart.c:604:73
	orrs	r0, r1
	.loc	3 606 28                        @ ../../../../Library/StdDriver/src/usci_uart.c:606:28
	ldr	r1, [sp, #40]
	.loc	3 606 38 is_stmt 0              @ ../../../../Library/StdDriver/src/usci_uart.c:606:38
	lsls	r1, r1, #8
	.loc	3 606 43                        @ ../../../../Library/StdDriver/src/usci_uart.c:606:43
	movw	r2, #256
	subs	r1, r1, r2
	.loc	3 605 71 is_stmt 1              @ ../../../../Library/StdDriver/src/usci_uart.c:605:71
	orrs	r0, r1
	.loc	3 604 9                         @ ../../../../Library/StdDriver/src/usci_uart.c:604:9
	ldr	r1, [sp, #60]
	.loc	3 604 24 is_stmt 0              @ ../../../../Library/StdDriver/src/usci_uart.c:604:24
	str	r0, [r1, #8]
	.loc	3 607 5 is_stmt 1               @ ../../../../Library/StdDriver/src/usci_uart.c:607:5
	b	.LBB7_34
.Ltmp195:
.LBB7_33:
	.loc	3 610 23                        @ ../../../../Library/StdDriver/src/usci_uart.c:610:23
	ldr	r0, [sp, #60]
	.loc	3 610 32 is_stmt 0              @ ../../../../Library/StdDriver/src/usci_uart.c:610:32
	ldr	r0, [r0, #8]
	movw	r1, #768
	.loc	3 610 38                        @ ../../../../Library/StdDriver/src/usci_uart.c:610:38
	ands	r0, r1
	.loc	3 610 64                        @ ../../../../Library/StdDriver/src/usci_uart.c:610:64
	lsrs	r0, r0, #8
	.loc	3 610 91                        @ ../../../../Library/StdDriver/src/usci_uart.c:610:91
	adds	r0, r0, #1
	.loc	3 610 19                        @ ../../../../Library/StdDriver/src/usci_uart.c:610:19
	str	r0, [sp, #40]
	.loc	3 611 25 is_stmt 1              @ ../../../../Library/StdDriver/src/usci_uart.c:611:25
	ldr	r0, [sp, #60]
	.loc	3 611 34 is_stmt 0              @ ../../../../Library/StdDriver/src/usci_uart.c:611:34
	ldr	r0, [r0, #8]
	movw	r1, #31744
	.loc	3 611 40                        @ ../../../../Library/StdDriver/src/usci_uart.c:611:40
	ands	r0, r1
	.loc	3 611 65                        @ ../../../../Library/StdDriver/src/usci_uart.c:611:65
	lsrs	r0, r0, #10
	.loc	3 611 91                        @ ../../../../Library/StdDriver/src/usci_uart.c:611:91
	adds	r0, r0, #1
	.loc	3 611 21                        @ ../../../../Library/StdDriver/src/usci_uart.c:611:21
	str	r0, [sp, #32]
	.loc	3 612 26 is_stmt 1              @ ../../../../Library/StdDriver/src/usci_uart.c:612:26
	ldr	r0, [sp, #60]
	.loc	3 612 35 is_stmt 0              @ ../../../../Library/StdDriver/src/usci_uart.c:612:35
	ldr	r0, [r0, #8]
	ldr	r1, __arm_cp.7_2
	.loc	3 612 41                        @ ../../../../Library/StdDriver/src/usci_uart.c:612:41
	ands	r0, r1
	.loc	3 612 67                        @ ../../../../Library/StdDriver/src/usci_uart.c:612:67
	lsrs	r0, r0, #16
	.loc	3 612 94                        @ ../../../../Library/StdDriver/src/usci_uart.c:612:94
	adds	r0, r0, #1
	.loc	3 612 22                        @ ../../../../Library/StdDriver/src/usci_uart.c:612:22
	str	r0, [sp, #36]
	b	.LBB7_34
.Ltmp196:
.LBB7_34:
	.loc	3 616 25 is_stmt 1              @ ../../../../Library/StdDriver/src/usci_uart.c:616:25
	ldr	r0, [sp, #60]
	.loc	3 616 34 is_stmt 0              @ ../../../../Library/StdDriver/src/usci_uart.c:616:34
	ldr	r0, [r0, #44]
	movw	r1, #3840
	.loc	3 616 42                        @ ../../../../Library/StdDriver/src/usci_uart.c:616:42
	bics	r0, r1
	.loc	3 616 73                        @ ../../../../Library/StdDriver/src/usci_uart.c:616:73
	ldr	r1, [sp, #52]
	.loc	3 616 71                        @ ../../../../Library/StdDriver/src/usci_uart.c:616:71
	orrs	r0, r1
	.loc	3 616 5                         @ ../../../../Library/StdDriver/src/usci_uart.c:616:5
	ldr	r1, [sp, #60]
	.loc	3 616 22                        @ ../../../../Library/StdDriver/src/usci_uart.c:616:22
	str	r0, [r1, #44]
	.loc	3 617 25 is_stmt 1              @ ../../../../Library/StdDriver/src/usci_uart.c:617:25
	ldr	r0, [sp, #60]
	.loc	3 617 34 is_stmt 0              @ ../../../../Library/StdDriver/src/usci_uart.c:617:34
	ldr	r0, [r0, #92]
	ldr	r1, __arm_cp.7_4
	.loc	3 617 42                        @ ../../../../Library/StdDriver/src/usci_uart.c:617:42
	ands	r0, r1
	.loc	3 618 77 is_stmt 1              @ ../../../../Library/StdDriver/src/usci_uart.c:618:77
	ldr	r1, [sp, #48]
	.loc	3 618 75 is_stmt 0              @ ../../../../Library/StdDriver/src/usci_uart.c:618:75
	orrs	r0, r1
	.loc	3 617 5 is_stmt 1               @ ../../../../Library/StdDriver/src/usci_uart.c:617:5
	ldr	r1, [sp, #60]
	.loc	3 617 22 is_stmt 0              @ ../../../../Library/StdDriver/src/usci_uart.c:617:22
	str	r0, [r1, #92]
	.loc	3 619 25 is_stmt 1              @ ../../../../Library/StdDriver/src/usci_uart.c:619:25
	ldr	r0, [sp, #60]
	.loc	3 619 34 is_stmt 0              @ ../../../../Library/StdDriver/src/usci_uart.c:619:34
	ldr	r0, [r0, #92]
	movs	r1, #1
	.loc	3 619 42                        @ ../../../../Library/StdDriver/src/usci_uart.c:619:42
	bics	r0, r1
	.loc	3 619 72                        @ ../../../../Library/StdDriver/src/usci_uart.c:619:72
	ldr	r1, [sp, #72]
	.loc	3 619 70                        @ ../../../../Library/StdDriver/src/usci_uart.c:619:70
	orrs	r0, r1
	.loc	3 619 5                         @ ../../../../Library/StdDriver/src/usci_uart.c:619:5
	ldr	r1, [sp, #60]
	.loc	3 619 22                        @ ../../../../Library/StdDriver/src/usci_uart.c:619:22
	str	r0, [r1, #92]
	.loc	3 621 13 is_stmt 1              @ ../../../../Library/StdDriver/src/usci_uart.c:621:13
	ldr	r0, [sp, #44]
	.loc	3 621 27 is_stmt 0              @ ../../../../Library/StdDriver/src/usci_uart.c:621:27
	ldr	r1, [sp, #40]
	.loc	3 621 25                        @ ../../../../Library/StdDriver/src/usci_uart.c:621:25
	udiv	r0, r0, r1
	.loc	3 621 39                        @ ../../../../Library/StdDriver/src/usci_uart.c:621:39
	ldr	r1, [sp, #32]
	.loc	3 621 37                        @ ../../../../Library/StdDriver/src/usci_uart.c:621:37
	udiv	r0, r0, r1
	.loc	3 621 53                        @ ../../../../Library/StdDriver/src/usci_uart.c:621:53
	ldr	r1, [sp, #36]
	.loc	3 621 51                        @ ../../../../Library/StdDriver/src/usci_uart.c:621:51
	udiv	r0, r0, r1
	.loc	3 621 5                         @ ../../../../Library/StdDriver/src/usci_uart.c:621:5
	add	sp, #64
	pop	{r4, pc}
.Ltmp197:
	.p2align	2
@ %bb.35:
	.loc	3 0 5                           @ ../../../../Library/StdDriver/src/usci_uart.c:0:5
__arm_cp.7_0:
	.long	1074593792                      @ 0x400d0000
.Lcpi_end4:
	.size	__arm_cp.7_0, .Lcpi_end4-__arm_cp.7_0
__arm_cp.7_1:
	.long	1074601984                      @ 0x400d2000
.Lcpi_end5:
	.size	__arm_cp.7_1, .Lcpi_end5-__arm_cp.7_1
__arm_cp.7_2:
	.long	67043328                        @ 0x3ff0000
.Lcpi_end6:
	.size	__arm_cp.7_2, .Lcpi_end6-__arm_cp.7_2
__arm_cp.7_3:
	.long	4294901760                      @ 0xffff0000
.Lcpi_end7:
	.size	__arm_cp.7_3, .Lcpi_end7-__arm_cp.7_3
__arm_cp.7_4:
	.long	4227858425                      @ 0xfbfffff9
.Lcpi_end8:
	.size	__arm_cp.7_4, .Lcpi_end8-__arm_cp.7_4
.Lfunc_end7:
	.size	UUART_SetLine_Config, .Lfunc_end7-UUART_SetLine_Config
	.cfi_endproc
	.cantunwind
	.fnend
                                        @ -- End function
	.section	.text.UUART_Write,"ax",%progbits
	.hidden	UUART_Write                     @ -- Begin function UUART_Write
	.globl	UUART_Write
	.p2align	1
	.type	UUART_Write,%function
	.code	16                              @ @UUART_Write
	.thumb_func
UUART_Write:
.Lfunc_begin8:
	.loc	3 637 0 is_stmt 1               @ ../../../../Library/StdDriver/src/usci_uart.c:637:0
	.fnstart
	.cfi_startproc
@ %bb.0:
	.pad	#20
	sub	sp, #20
	.cfi_def_cfa_offset 20
	str	r0, [sp, #16]
	str	r1, [sp, #12]
	str	r2, [sp, #8]
	movs	r0, #0
.Ltmp198:
	.loc	3 640 19 prologue_end           @ ../../../../Library/StdDriver/src/usci_uart.c:640:19
	str	r0, [sp, #4]
	.loc	3 640 10 is_stmt 0              @ ../../../../Library/StdDriver/src/usci_uart.c:640:10
	b	.LBB8_1
.LBB8_1:                                @ =>This Loop Header: Depth=1
                                        @     Child Loop BB8_3 Depth 2
.Ltmp199:
	.loc	3 640 26                        @ ../../../../Library/StdDriver/src/usci_uart.c:640:26
	ldr	r0, [sp, #4]
	.loc	3 640 38                        @ ../../../../Library/StdDriver/src/usci_uart.c:640:38
	ldr	r1, [sp, #8]
.Ltmp200:
	.loc	3 640 5                         @ ../../../../Library/StdDriver/src/usci_uart.c:640:5
	cmp	r0, r1
	beq	.LBB8_11
	b	.LBB8_2
.LBB8_2:                                @   in Loop: Header=BB8_1 Depth=1
	.loc	3 0 5                           @ ../../../../Library/StdDriver/src/usci_uart.c:0:5
	movs	r0, #0
.Ltmp201:
	.loc	3 642 18 is_stmt 1              @ ../../../../Library/StdDriver/src/usci_uart.c:642:18
	str	r0, [sp]
	.loc	3 644 9                         @ ../../../../Library/StdDriver/src/usci_uart.c:644:9
	b	.LBB8_3
.LBB8_3:                                @   Parent Loop BB8_1 Depth=1
                                        @ =>  This Inner Loop Header: Depth=2
	.loc	3 644 17 is_stmt 0              @ ../../../../Library/StdDriver/src/usci_uart.c:644:17
	ldr	r0, [sp, #16]
	.loc	3 644 26                        @ ../../../../Library/StdDriver/src/usci_uart.c:644:26
	ldr	r0, [r0, #60]
	.loc	3 644 9                         @ ../../../../Library/StdDriver/src/usci_uart.c:644:9
	lsls	r0, r0, #23
	cmp	r0, #0
	bmi	.LBB8_7
	b	.LBB8_4
.LBB8_4:                                @   in Loop: Header=BB8_3 Depth=2
.Ltmp202:
	.loc	3 646 23 is_stmt 1              @ ../../../../Library/StdDriver/src/usci_uart.c:646:23
	ldr	r0, [sp]
	adds	r0, r0, #1
	str	r0, [sp]
.Ltmp203:
	.loc	3 648 17                        @ ../../../../Library/StdDriver/src/usci_uart.c:648:17
	ldr	r0, [sp]
.Ltmp204:
	.loc	3 648 17 is_stmt 0              @ ../../../../Library/StdDriver/src/usci_uart.c:648:17
	lsrs	r0, r0, #30
	cbz	r0, .LBB8_6
	b	.LBB8_5
.LBB8_5:                                @   in Loop: Header=BB8_1 Depth=1
.Ltmp205:
	.loc	3 650 17 is_stmt 1              @ ../../../../Library/StdDriver/src/usci_uart.c:650:17
	b	.LBB8_7
.Ltmp206:
.LBB8_6:                                @   in Loop: Header=BB8_3 Depth=2
	.loc	3 644 9                         @ ../../../../Library/StdDriver/src/usci_uart.c:644:9
	b	.LBB8_3
.LBB8_7:                                @   in Loop: Header=BB8_1 Depth=1
.Ltmp207:
	.loc	3 654 13                        @ ../../../../Library/StdDriver/src/usci_uart.c:654:13
	ldr	r0, [sp]
.Ltmp208:
	.loc	3 654 13 is_stmt 0              @ ../../../../Library/StdDriver/src/usci_uart.c:654:13
	lsrs	r0, r0, #30
	cbz	r0, .LBB8_9
	b	.LBB8_8
.LBB8_8:
.Ltmp209:
	.loc	3 656 13 is_stmt 1              @ ../../../../Library/StdDriver/src/usci_uart.c:656:13
	b	.LBB8_11
.Ltmp210:
.LBB8_9:                                @   in Loop: Header=BB8_1 Depth=1
	.loc	3 659 35                        @ ../../../../Library/StdDriver/src/usci_uart.c:659:35
	ldr	r0, [sp, #12]
	.loc	3 659 44 is_stmt 0              @ ../../../../Library/StdDriver/src/usci_uart.c:659:44
	ldr	r1, [sp, #4]
	.loc	3 659 35                        @ ../../../../Library/StdDriver/src/usci_uart.c:659:35
	ldrb	r0, [r0, r1]
	.loc	3 659 9                         @ ../../../../Library/StdDriver/src/usci_uart.c:659:9
	ldr	r1, [sp, #16]
	.loc	3 659 24                        @ ../../../../Library/StdDriver/src/usci_uart.c:659:24
	str	r0, [r1, #48]
	.loc	3 660 5 is_stmt 1               @ ../../../../Library/StdDriver/src/usci_uart.c:660:5
	b	.LBB8_10
.Ltmp211:
.LBB8_10:                               @   in Loop: Header=BB8_1 Depth=1
	.loc	3 640 61                        @ ../../../../Library/StdDriver/src/usci_uart.c:640:61
	ldr	r0, [sp, #4]
	adds	r0, r0, #1
	str	r0, [sp, #4]
	.loc	3 640 5 is_stmt 0               @ ../../../../Library/StdDriver/src/usci_uart.c:640:5
	b	.LBB8_1
.Ltmp212:
.LBB8_11:
	.loc	3 662 12 is_stmt 1              @ ../../../../Library/StdDriver/src/usci_uart.c:662:12
	ldr	r0, [sp, #4]
	.loc	3 662 5 is_stmt 0               @ ../../../../Library/StdDriver/src/usci_uart.c:662:5
	add	sp, #20
	bx	lr
.Ltmp213:
.Lfunc_end8:
	.size	UUART_Write, .Lfunc_end8-UUART_Write
	.cfi_endproc
	.cantunwind
	.fnend
                                        @ -- End function
	.section	.text.UUART_EnableWakeup,"ax",%progbits
	.hidden	UUART_EnableWakeup              @ -- Begin function UUART_EnableWakeup
	.globl	UUART_EnableWakeup
	.p2align	1
	.type	UUART_EnableWakeup,%function
	.code	16                              @ @UUART_EnableWakeup
	.thumb_func
UUART_EnableWakeup:
.Lfunc_begin9:
	.loc	3 679 0 is_stmt 1               @ ../../../../Library/StdDriver/src/usci_uart.c:679:0
	.fnstart
	.cfi_startproc
@ %bb.0:
	.pad	#8
	sub	sp, #8
	.cfi_def_cfa_offset 8
	str	r0, [sp, #4]
	str	r1, [sp]
.Ltmp214:
	.loc	3 680 25 prologue_end           @ ../../../../Library/StdDriver/src/usci_uart.c:680:25
	ldr	r2, [sp]
	.loc	3 680 5 is_stmt 0               @ ../../../../Library/StdDriver/src/usci_uart.c:680:5
	ldr	r1, [sp, #4]
	.loc	3 680 22                        @ ../../../../Library/StdDriver/src/usci_uart.c:680:22
	ldr	r0, [r1, #92]
	orrs	r0, r2
	str	r0, [r1, #92]
	.loc	3 681 5 is_stmt 1               @ ../../../../Library/StdDriver/src/usci_uart.c:681:5
	ldr	r1, [sp, #4]
	.loc	3 681 20 is_stmt 0              @ ../../../../Library/StdDriver/src/usci_uart.c:681:20
	ldr	r0, [r1, #84]
	movs	r2, #1
	orrs	r0, r2
	str	r0, [r1, #84]
	.loc	3 682 1 is_stmt 1               @ ../../../../Library/StdDriver/src/usci_uart.c:682:1
	add	sp, #8
	bx	lr
.Ltmp215:
.Lfunc_end9:
	.size	UUART_EnableWakeup, .Lfunc_end9-UUART_EnableWakeup
	.cfi_endproc
	.cantunwind
	.fnend
                                        @ -- End function
	.section	.text.UUART_DisableWakeup,"ax",%progbits
	.hidden	UUART_DisableWakeup             @ -- Begin function UUART_DisableWakeup
	.globl	UUART_DisableWakeup
	.p2align	1
	.type	UUART_DisableWakeup,%function
	.code	16                              @ @UUART_DisableWakeup
	.thumb_func
UUART_DisableWakeup:
.Lfunc_begin10:
	.loc	3 694 0                         @ ../../../../Library/StdDriver/src/usci_uart.c:694:0
	.fnstart
	.cfi_startproc
@ %bb.0:
	.pad	#4
	sub	sp, #4
	.cfi_def_cfa_offset 4
	str	r0, [sp]
.Ltmp216:
	.loc	3 695 5 prologue_end            @ ../../../../Library/StdDriver/src/usci_uart.c:695:5
	ldr	r1, [sp]
	.loc	3 695 22 is_stmt 0              @ ../../../../Library/StdDriver/src/usci_uart.c:695:22
	ldr	r0, [r1, #92]
	movw	r2, #1536
	bics	r0, r2
	str	r0, [r1, #92]
	.loc	3 696 5 is_stmt 1               @ ../../../../Library/StdDriver/src/usci_uart.c:696:5
	ldr	r1, [sp]
	.loc	3 696 20 is_stmt 0              @ ../../../../Library/StdDriver/src/usci_uart.c:696:20
	ldr	r0, [r1, #84]
	movs	r2, #1
	bics	r0, r2
	str	r0, [r1, #84]
	.loc	3 697 1 is_stmt 1               @ ../../../../Library/StdDriver/src/usci_uart.c:697:1
	add	sp, #4
	bx	lr
.Ltmp217:
.Lfunc_end10:
	.size	UUART_DisableWakeup, .Lfunc_end10-UUART_DisableWakeup
	.cfi_endproc
	.cantunwind
	.fnend
                                        @ -- End function
	.section	.text.UUART_EnableFlowCtrl,"ax",%progbits
	.hidden	UUART_EnableFlowCtrl            @ -- Begin function UUART_EnableFlowCtrl
	.globl	UUART_EnableFlowCtrl
	.p2align	1
	.type	UUART_EnableFlowCtrl,%function
	.code	16                              @ @UUART_EnableFlowCtrl
	.thumb_func
UUART_EnableFlowCtrl:
.Lfunc_begin11:
	.loc	3 708 0                         @ ../../../../Library/StdDriver/src/usci_uart.c:708:0
	.fnstart
	.cfi_startproc
@ %bb.0:
	.pad	#4
	sub	sp, #4
	.cfi_def_cfa_offset 4
	str	r0, [sp]
.Ltmp218:
	.loc	3 710 5 prologue_end            @ ../../../../Library/StdDriver/src/usci_uart.c:710:5
	ldr	r1, [sp]
	.loc	3 710 22 is_stmt 0              @ ../../../../Library/StdDriver/src/usci_uart.c:710:22
	ldr	r0, [r1, #44]
	movs	r2, #128
	bics	r0, r2
	str	r0, [r1, #44]
	.loc	3 713 5 is_stmt 1               @ ../../../../Library/StdDriver/src/usci_uart.c:713:5
	ldr	r1, [sp]
	.loc	3 713 21 is_stmt 0              @ ../../../../Library/StdDriver/src/usci_uart.c:713:21
	ldr	r0, [r1, #32]
	movs	r2, #4
	bics	r0, r2
	str	r0, [r1, #32]
	.loc	3 716 5 is_stmt 1               @ ../../../../Library/StdDriver/src/usci_uart.c:716:5
	ldr	r1, [sp]
	.loc	3 716 22 is_stmt 0              @ ../../../../Library/StdDriver/src/usci_uart.c:716:22
	ldr	r0, [r1, #92]
	movs	r2, #24
	orrs	r0, r2
	str	r0, [r1, #92]
	.loc	3 717 1 is_stmt 1               @ ../../../../Library/StdDriver/src/usci_uart.c:717:1
	add	sp, #4
	bx	lr
.Ltmp219:
.Lfunc_end11:
	.size	UUART_EnableFlowCtrl, .Lfunc_end11-UUART_EnableFlowCtrl
	.cfi_endproc
	.cantunwind
	.fnend
                                        @ -- End function
	.section	.text.UUART_DisableFlowCtrl,"ax",%progbits
	.hidden	UUART_DisableFlowCtrl           @ -- Begin function UUART_DisableFlowCtrl
	.globl	UUART_DisableFlowCtrl
	.p2align	1
	.type	UUART_DisableFlowCtrl,%function
	.code	16                              @ @UUART_DisableFlowCtrl
	.thumb_func
UUART_DisableFlowCtrl:
.Lfunc_begin12:
	.loc	3 728 0                         @ ../../../../Library/StdDriver/src/usci_uart.c:728:0
	.fnstart
	.cfi_startproc
@ %bb.0:
	.pad	#4
	sub	sp, #4
	.cfi_def_cfa_offset 4
	str	r0, [sp]
.Ltmp220:
	.loc	3 730 5 prologue_end            @ ../../../../Library/StdDriver/src/usci_uart.c:730:5
	ldr	r1, [sp]
	.loc	3 730 22 is_stmt 0              @ ../../../../Library/StdDriver/src/usci_uart.c:730:22
	ldr	r0, [r1, #92]
	movs	r2, #24
	bics	r0, r2
	str	r0, [r1, #92]
	.loc	3 731 1 is_stmt 1               @ ../../../../Library/StdDriver/src/usci_uart.c:731:1
	add	sp, #4
	bx	lr
.Ltmp221:
.Lfunc_end12:
	.size	UUART_DisableFlowCtrl, .Lfunc_end12-UUART_DisableFlowCtrl
	.cfi_endproc
	.cantunwind
	.fnend
                                        @ -- End function
	.section	".note.GNU-stack","",%progbits
	.eabi_attribute	30, 6	@ Tag_ABI_optimization_goals
	.ARM_attribute	16, 1	@ Tag_AV_eba